ARM GAS  C:\Users\Keshuai\AppData\Local\Temp\cc9xpn9V.s 			page 1


   1              		.syntax unified
   2              		.cpu cortex-m3
   3              		.fpu softvfp
   4              		.eabi_attribute 20, 1
   5              		.eabi_attribute 21, 1
   6              		.eabi_attribute 23, 3
   7              		.eabi_attribute 24, 1
   8              		.eabi_attribute 25, 1
   9              		.eabi_attribute 26, 1
  10              		.eabi_attribute 30, 6
  11              		.eabi_attribute 34, 1
  12              		.eabi_attribute 18, 4
  13              		.thumb
  14              		.file	"cyfitter_cfg.c"
  15              		.text
  16              	.Ltext0:
  17              		.cfi_sections	.debug_frame
  18              		.section	.text.CYMEMZERO,"ax",%progbits
  19              		.align	2
  20              		.thumb
  21              		.thumb_func
  22              		.type	CYMEMZERO, %function
  23              	CYMEMZERO:
  24              	.LFB0:
  25              		.file 1 "Generated_Source\\PSoC5\\cyfitter_cfg.c"
   1:Generated_Source\PSoC5/cyfitter_cfg.c **** /*******************************************************************************
   2:Generated_Source\PSoC5/cyfitter_cfg.c **** * File Name: cyfitter_cfg.c
   3:Generated_Source\PSoC5/cyfitter_cfg.c **** * 
   4:Generated_Source\PSoC5/cyfitter_cfg.c **** * PSoC Creator  4.0 Update 1
   5:Generated_Source\PSoC5/cyfitter_cfg.c **** *
   6:Generated_Source\PSoC5/cyfitter_cfg.c **** * Description:
   7:Generated_Source\PSoC5/cyfitter_cfg.c **** * This file contains device initialization code.
   8:Generated_Source\PSoC5/cyfitter_cfg.c **** * Except for the user defined sections in CyClockStartupError(), this file should not be modified.
   9:Generated_Source\PSoC5/cyfitter_cfg.c **** * This file is automatically generated by PSoC Creator.
  10:Generated_Source\PSoC5/cyfitter_cfg.c **** *
  11:Generated_Source\PSoC5/cyfitter_cfg.c **** ********************************************************************************
  12:Generated_Source\PSoC5/cyfitter_cfg.c **** * Copyright (c) 2007-2016 Cypress Semiconductor.  All rights reserved.
  13:Generated_Source\PSoC5/cyfitter_cfg.c **** * You may use this file only in accordance with the license, terms, conditions, 
  14:Generated_Source\PSoC5/cyfitter_cfg.c **** * disclaimers, and limitations in the end user license agreement accompanying 
  15:Generated_Source\PSoC5/cyfitter_cfg.c **** * the software package with which this file was provided.
  16:Generated_Source\PSoC5/cyfitter_cfg.c **** ********************************************************************************/
  17:Generated_Source\PSoC5/cyfitter_cfg.c **** 
  18:Generated_Source\PSoC5/cyfitter_cfg.c **** #include <string.h>
  19:Generated_Source\PSoC5/cyfitter_cfg.c **** #include "cytypes.h"
  20:Generated_Source\PSoC5/cyfitter_cfg.c **** #include "cydevice_trm.h"
  21:Generated_Source\PSoC5/cyfitter_cfg.c **** #include "cyfitter.h"
  22:Generated_Source\PSoC5/cyfitter_cfg.c **** #include "CyLib.h"
  23:Generated_Source\PSoC5/cyfitter_cfg.c **** #include "cyfitter_cfg.h"
  24:Generated_Source\PSoC5/cyfitter_cfg.c **** #include "cyapicallbacks.h"
  25:Generated_Source\PSoC5/cyfitter_cfg.c **** 
  26:Generated_Source\PSoC5/cyfitter_cfg.c **** #define CY_NEED_CYCLOCKSTARTUPERROR 1
  27:Generated_Source\PSoC5/cyfitter_cfg.c **** 
  28:Generated_Source\PSoC5/cyfitter_cfg.c **** 
  29:Generated_Source\PSoC5/cyfitter_cfg.c **** #if defined(__GNUC__) || defined(__ARMCC_VERSION)
  30:Generated_Source\PSoC5/cyfitter_cfg.c ****     #define CYPACKED 
  31:Generated_Source\PSoC5/cyfitter_cfg.c ****     #define CYPACKED_ATTR __attribute__ ((packed))
  32:Generated_Source\PSoC5/cyfitter_cfg.c ****     #define CYALIGNED __attribute__ ((aligned))
ARM GAS  C:\Users\Keshuai\AppData\Local\Temp\cc9xpn9V.s 			page 2


  33:Generated_Source\PSoC5/cyfitter_cfg.c ****     #define CY_CFG_UNUSED __attribute__ ((unused))
  34:Generated_Source\PSoC5/cyfitter_cfg.c ****     #ifndef CY_CFG_SECTION
  35:Generated_Source\PSoC5/cyfitter_cfg.c ****         #define CY_CFG_SECTION __attribute__ ((section(".psocinit")))
  36:Generated_Source\PSoC5/cyfitter_cfg.c ****     #endif
  37:Generated_Source\PSoC5/cyfitter_cfg.c ****     
  38:Generated_Source\PSoC5/cyfitter_cfg.c ****     #if defined(__ARMCC_VERSION)
  39:Generated_Source\PSoC5/cyfitter_cfg.c ****         #define CY_CFG_MEMORY_BARRIER() __memory_changed()
  40:Generated_Source\PSoC5/cyfitter_cfg.c ****     #else
  41:Generated_Source\PSoC5/cyfitter_cfg.c ****         #define CY_CFG_MEMORY_BARRIER() __sync_synchronize()
  42:Generated_Source\PSoC5/cyfitter_cfg.c ****     #endif
  43:Generated_Source\PSoC5/cyfitter_cfg.c ****     
  44:Generated_Source\PSoC5/cyfitter_cfg.c **** #elif defined(__ICCARM__)
  45:Generated_Source\PSoC5/cyfitter_cfg.c ****     #include <intrinsics.h>
  46:Generated_Source\PSoC5/cyfitter_cfg.c **** 
  47:Generated_Source\PSoC5/cyfitter_cfg.c ****     #define CYPACKED __packed
  48:Generated_Source\PSoC5/cyfitter_cfg.c ****     #define CYPACKED_ATTR 
  49:Generated_Source\PSoC5/cyfitter_cfg.c ****     #define CYALIGNED _Pragma("data_alignment=4")
  50:Generated_Source\PSoC5/cyfitter_cfg.c ****     #define CY_CFG_UNUSED _Pragma("diag_suppress=Pe177")
  51:Generated_Source\PSoC5/cyfitter_cfg.c ****     #define CY_CFG_SECTION _Pragma("location=\".psocinit\"")
  52:Generated_Source\PSoC5/cyfitter_cfg.c ****     
  53:Generated_Source\PSoC5/cyfitter_cfg.c ****     #define CY_CFG_MEMORY_BARRIER() __DMB()
  54:Generated_Source\PSoC5/cyfitter_cfg.c ****     
  55:Generated_Source\PSoC5/cyfitter_cfg.c **** #else
  56:Generated_Source\PSoC5/cyfitter_cfg.c ****     #error Unsupported toolchain
  57:Generated_Source\PSoC5/cyfitter_cfg.c **** #endif
  58:Generated_Source\PSoC5/cyfitter_cfg.c **** 
  59:Generated_Source\PSoC5/cyfitter_cfg.c **** 
  60:Generated_Source\PSoC5/cyfitter_cfg.c **** CY_CFG_UNUSED
  61:Generated_Source\PSoC5/cyfitter_cfg.c **** static void CYMEMZERO(void *s, size_t n);
  62:Generated_Source\PSoC5/cyfitter_cfg.c **** CY_CFG_UNUSED
  63:Generated_Source\PSoC5/cyfitter_cfg.c **** static void CYMEMZERO(void *s, size_t n)
  64:Generated_Source\PSoC5/cyfitter_cfg.c **** {
  26              		.loc 1 64 0
  27              		.cfi_startproc
  28              		@ args = 0, pretend = 0, frame = 8
  29              		@ frame_needed = 1, uses_anonymous_args = 0
  30 0000 80B5     		push	{r7, lr}
  31              		.cfi_def_cfa_offset 8
  32              		.cfi_offset 7, -8
  33              		.cfi_offset 14, -4
  34 0002 82B0     		sub	sp, sp, #8
  35              		.cfi_def_cfa_offset 16
  36 0004 00AF     		add	r7, sp, #0
  37              		.cfi_def_cfa_register 7
  38 0006 7860     		str	r0, [r7, #4]
  39 0008 3960     		str	r1, [r7]
  65:Generated_Source\PSoC5/cyfitter_cfg.c **** 	(void)memset(s, 0, n);
  40              		.loc 1 65 0
  41 000a 7868     		ldr	r0, [r7, #4]
  42 000c 0021     		movs	r1, #0
  43 000e 3A68     		ldr	r2, [r7]
  44 0010 FFF7FEFF 		bl	memset
  66:Generated_Source\PSoC5/cyfitter_cfg.c **** }
  45              		.loc 1 66 0
  46 0014 0837     		adds	r7, r7, #8
  47              		.cfi_def_cfa_offset 8
  48 0016 BD46     		mov	sp, r7
ARM GAS  C:\Users\Keshuai\AppData\Local\Temp\cc9xpn9V.s 			page 3


  49              		.cfi_def_cfa_register 13
  50              		@ sp needed
  51 0018 80BD     		pop	{r7, pc}
  52              		.cfi_endproc
  53              	.LFE0:
  54              		.size	CYMEMZERO, .-CYMEMZERO
  55 001a 00BF     		.section	.text.CYCONFIGCPY,"ax",%progbits
  56              		.align	2
  57              		.thumb
  58              		.thumb_func
  59              		.type	CYCONFIGCPY, %function
  60              	CYCONFIGCPY:
  61              	.LFB1:
  67:Generated_Source\PSoC5/cyfitter_cfg.c **** CY_CFG_UNUSED
  68:Generated_Source\PSoC5/cyfitter_cfg.c **** static void CYCONFIGCPY(void *dest, const void *src, size_t n);
  69:Generated_Source\PSoC5/cyfitter_cfg.c **** CY_CFG_UNUSED
  70:Generated_Source\PSoC5/cyfitter_cfg.c **** static void CYCONFIGCPY(void *dest, const void *src, size_t n)
  71:Generated_Source\PSoC5/cyfitter_cfg.c **** {
  62              		.loc 1 71 0
  63              		.cfi_startproc
  64              		@ args = 0, pretend = 0, frame = 16
  65              		@ frame_needed = 1, uses_anonymous_args = 0
  66 0000 80B5     		push	{r7, lr}
  67              		.cfi_def_cfa_offset 8
  68              		.cfi_offset 7, -8
  69              		.cfi_offset 14, -4
  70 0002 84B0     		sub	sp, sp, #16
  71              		.cfi_def_cfa_offset 24
  72 0004 00AF     		add	r7, sp, #0
  73              		.cfi_def_cfa_register 7
  74 0006 F860     		str	r0, [r7, #12]
  75 0008 B960     		str	r1, [r7, #8]
  76 000a 7A60     		str	r2, [r7, #4]
  72:Generated_Source\PSoC5/cyfitter_cfg.c **** 	(void)memcpy(dest, src, n);
  77              		.loc 1 72 0
  78 000c F868     		ldr	r0, [r7, #12]
  79 000e B968     		ldr	r1, [r7, #8]
  80 0010 7A68     		ldr	r2, [r7, #4]
  81 0012 FFF7FEFF 		bl	memcpy
  73:Generated_Source\PSoC5/cyfitter_cfg.c **** }
  82              		.loc 1 73 0
  83 0016 1037     		adds	r7, r7, #16
  84              		.cfi_def_cfa_offset 8
  85 0018 BD46     		mov	sp, r7
  86              		.cfi_def_cfa_register 13
  87              		@ sp needed
  88 001a 80BD     		pop	{r7, pc}
  89              		.cfi_endproc
  90              	.LFE1:
  91              		.size	CYCONFIGCPY, .-CYCONFIGCPY
  92              		.section	.text.CYCONFIGCPYCODE,"ax",%progbits
  93              		.align	2
  94              		.thumb
  95              		.thumb_func
  96              		.type	CYCONFIGCPYCODE, %function
  97              	CYCONFIGCPYCODE:
  98              	.LFB2:
ARM GAS  C:\Users\Keshuai\AppData\Local\Temp\cc9xpn9V.s 			page 4


  74:Generated_Source\PSoC5/cyfitter_cfg.c **** CY_CFG_UNUSED
  75:Generated_Source\PSoC5/cyfitter_cfg.c **** static void CYCONFIGCPYCODE(void *dest, const void *src, size_t n);
  76:Generated_Source\PSoC5/cyfitter_cfg.c **** CY_CFG_UNUSED
  77:Generated_Source\PSoC5/cyfitter_cfg.c **** static void CYCONFIGCPYCODE(void *dest, const void *src, size_t n)
  78:Generated_Source\PSoC5/cyfitter_cfg.c **** {
  99              		.loc 1 78 0
 100              		.cfi_startproc
 101              		@ args = 0, pretend = 0, frame = 16
 102              		@ frame_needed = 1, uses_anonymous_args = 0
 103 0000 80B5     		push	{r7, lr}
 104              		.cfi_def_cfa_offset 8
 105              		.cfi_offset 7, -8
 106              		.cfi_offset 14, -4
 107 0002 84B0     		sub	sp, sp, #16
 108              		.cfi_def_cfa_offset 24
 109 0004 00AF     		add	r7, sp, #0
 110              		.cfi_def_cfa_register 7
 111 0006 F860     		str	r0, [r7, #12]
 112 0008 B960     		str	r1, [r7, #8]
 113 000a 7A60     		str	r2, [r7, #4]
  79:Generated_Source\PSoC5/cyfitter_cfg.c **** 	(void)memcpy(dest, src, n);
 114              		.loc 1 79 0
 115 000c F868     		ldr	r0, [r7, #12]
 116 000e B968     		ldr	r1, [r7, #8]
 117 0010 7A68     		ldr	r2, [r7, #4]
 118 0012 FFF7FEFF 		bl	memcpy
  80:Generated_Source\PSoC5/cyfitter_cfg.c **** }
 119              		.loc 1 80 0
 120 0016 1037     		adds	r7, r7, #16
 121              		.cfi_def_cfa_offset 8
 122 0018 BD46     		mov	sp, r7
 123              		.cfi_def_cfa_register 13
 124              		@ sp needed
 125 001a 80BD     		pop	{r7, pc}
 126              		.cfi_endproc
 127              	.LFE2:
 128              		.size	CYCONFIGCPYCODE, .-CYCONFIGCPYCODE
 129              		.section	.text.CyClockStartupError,"ax",%progbits
 130              		.align	2
 131              		.thumb
 132              		.thumb_func
 133              		.type	CyClockStartupError, %function
 134              	CyClockStartupError:
 135              	.LFB3:
  81:Generated_Source\PSoC5/cyfitter_cfg.c **** 
  82:Generated_Source\PSoC5/cyfitter_cfg.c **** 
  83:Generated_Source\PSoC5/cyfitter_cfg.c **** 
  84:Generated_Source\PSoC5/cyfitter_cfg.c **** 
  85:Generated_Source\PSoC5/cyfitter_cfg.c **** /* Clock startup error codes                                                   */
  86:Generated_Source\PSoC5/cyfitter_cfg.c **** #define CYCLOCKSTART_NO_ERROR    0u
  87:Generated_Source\PSoC5/cyfitter_cfg.c **** #define CYCLOCKSTART_XTAL_ERROR  1u
  88:Generated_Source\PSoC5/cyfitter_cfg.c **** #define CYCLOCKSTART_32KHZ_ERROR 2u
  89:Generated_Source\PSoC5/cyfitter_cfg.c **** #define CYCLOCKSTART_PLL_ERROR   3u
  90:Generated_Source\PSoC5/cyfitter_cfg.c **** 
  91:Generated_Source\PSoC5/cyfitter_cfg.c **** 
  92:Generated_Source\PSoC5/cyfitter_cfg.c **** #ifdef CY_NEED_CYCLOCKSTARTUPERROR
  93:Generated_Source\PSoC5/cyfitter_cfg.c **** /*******************************************************************************
ARM GAS  C:\Users\Keshuai\AppData\Local\Temp\cc9xpn9V.s 			page 5


  94:Generated_Source\PSoC5/cyfitter_cfg.c **** * Function Name: CyClockStartupError
  95:Generated_Source\PSoC5/cyfitter_cfg.c **** ********************************************************************************
  96:Generated_Source\PSoC5/cyfitter_cfg.c **** * Summary:
  97:Generated_Source\PSoC5/cyfitter_cfg.c **** *  If an error is encountered during clock configuration (crystal startup error,
  98:Generated_Source\PSoC5/cyfitter_cfg.c **** *  PLL lock error, etc.), the system will end up here.  Unless reimplemented by
  99:Generated_Source\PSoC5/cyfitter_cfg.c **** *  the customer, this function will stop in an infinite loop.
 100:Generated_Source\PSoC5/cyfitter_cfg.c **** *
 101:Generated_Source\PSoC5/cyfitter_cfg.c **** * Parameters:
 102:Generated_Source\PSoC5/cyfitter_cfg.c **** *   void
 103:Generated_Source\PSoC5/cyfitter_cfg.c **** *
 104:Generated_Source\PSoC5/cyfitter_cfg.c **** * Return:
 105:Generated_Source\PSoC5/cyfitter_cfg.c **** *   void
 106:Generated_Source\PSoC5/cyfitter_cfg.c **** *
 107:Generated_Source\PSoC5/cyfitter_cfg.c **** *******************************************************************************/
 108:Generated_Source\PSoC5/cyfitter_cfg.c **** CY_CFG_UNUSED
 109:Generated_Source\PSoC5/cyfitter_cfg.c **** static void CyClockStartupError(uint8 errorCode);
 110:Generated_Source\PSoC5/cyfitter_cfg.c **** CY_CFG_UNUSED
 111:Generated_Source\PSoC5/cyfitter_cfg.c **** static void CyClockStartupError(uint8 errorCode)
 112:Generated_Source\PSoC5/cyfitter_cfg.c **** {
 136              		.loc 1 112 0
 137              		.cfi_startproc
 138              		@ args = 0, pretend = 0, frame = 8
 139              		@ frame_needed = 1, uses_anonymous_args = 0
 140              		@ link register save eliminated.
 141 0000 80B4     		push	{r7}
 142              		.cfi_def_cfa_offset 4
 143              		.cfi_offset 7, -4
 144 0002 83B0     		sub	sp, sp, #12
 145              		.cfi_def_cfa_offset 16
 146 0004 00AF     		add	r7, sp, #0
 147              		.cfi_def_cfa_register 7
 148 0006 0346     		mov	r3, r0
 149 0008 FB71     		strb	r3, [r7, #7]
 150              	.L5:
 113:Generated_Source\PSoC5/cyfitter_cfg.c ****     /* To remove the compiler warning if errorCode not used.                */
 114:Generated_Source\PSoC5/cyfitter_cfg.c ****     errorCode = errorCode;
 115:Generated_Source\PSoC5/cyfitter_cfg.c **** 
 116:Generated_Source\PSoC5/cyfitter_cfg.c ****     /* If we have a clock startup error (bad MHz crystal, PLL lock, etc.),  */
 117:Generated_Source\PSoC5/cyfitter_cfg.c ****     /* we will end up here to allow the customer to implement something to  */
 118:Generated_Source\PSoC5/cyfitter_cfg.c ****     /* deal with the clock condition.                                       */
 119:Generated_Source\PSoC5/cyfitter_cfg.c **** 
 120:Generated_Source\PSoC5/cyfitter_cfg.c **** #ifdef CY_CFG_CLOCK_STARTUP_ERROR_CALLBACK
 121:Generated_Source\PSoC5/cyfitter_cfg.c **** 	CY_CFG_Clock_Startup_ErrorCallback();
 122:Generated_Source\PSoC5/cyfitter_cfg.c **** #else
 123:Generated_Source\PSoC5/cyfitter_cfg.c **** 	/*  If not using CY_CFG_CLOCK_STARTUP_ERROR_CALLBACK, place your clock startup code here. */
 124:Generated_Source\PSoC5/cyfitter_cfg.c ****     /* `#START CyClockStartupError` */
 125:Generated_Source\PSoC5/cyfitter_cfg.c **** 
 126:Generated_Source\PSoC5/cyfitter_cfg.c **** 
 127:Generated_Source\PSoC5/cyfitter_cfg.c **** 
 128:Generated_Source\PSoC5/cyfitter_cfg.c ****     /* `#END` */
 129:Generated_Source\PSoC5/cyfitter_cfg.c **** 
 130:Generated_Source\PSoC5/cyfitter_cfg.c ****     /* If nothing else, stop here since the clocks have not started         */
 131:Generated_Source\PSoC5/cyfitter_cfg.c ****     /* correctly.                                                           */
 132:Generated_Source\PSoC5/cyfitter_cfg.c ****     while(1) {}
 151              		.loc 1 132 0 discriminator 1
 152 000a FEE7     		b	.L5
 153              		.cfi_endproc
ARM GAS  C:\Users\Keshuai\AppData\Local\Temp\cc9xpn9V.s 			page 6


 154              	.LFE3:
 155              		.size	CyClockStartupError, .-CyClockStartupError
 156              		.section	.text.cfg_write_bytes32,"ax",%progbits
 157              		.align	2
 158              		.thumb
 159              		.thumb_func
 160              		.type	cfg_write_bytes32, %function
 161              	cfg_write_bytes32:
 162              	.LFB4:
 133:Generated_Source\PSoC5/cyfitter_cfg.c **** #endif /* CY_CFG_CLOCK_STARTUP_ERROR_CALLBACK */ 
 134:Generated_Source\PSoC5/cyfitter_cfg.c **** }
 135:Generated_Source\PSoC5/cyfitter_cfg.c **** #endif
 136:Generated_Source\PSoC5/cyfitter_cfg.c **** 
 137:Generated_Source\PSoC5/cyfitter_cfg.c **** #define CY_CFG_BASE_ADDR_COUNT 23u
 138:Generated_Source\PSoC5/cyfitter_cfg.c **** CYPACKED typedef struct
 139:Generated_Source\PSoC5/cyfitter_cfg.c **** {
 140:Generated_Source\PSoC5/cyfitter_cfg.c **** 	uint8 offset;
 141:Generated_Source\PSoC5/cyfitter_cfg.c **** 	uint8 value;
 142:Generated_Source\PSoC5/cyfitter_cfg.c **** } CYPACKED_ATTR cy_cfg_addrvalue_t;
 143:Generated_Source\PSoC5/cyfitter_cfg.c **** 
 144:Generated_Source\PSoC5/cyfitter_cfg.c **** #define cy_cfg_addr_table ((const uint32 CYFAR *)0x48000000u)
 145:Generated_Source\PSoC5/cyfitter_cfg.c **** #define cy_cfg_data_table ((const cy_cfg_addrvalue_t CYFAR *)0x4800005Cu)
 146:Generated_Source\PSoC5/cyfitter_cfg.c **** 
 147:Generated_Source\PSoC5/cyfitter_cfg.c **** /* IOPINS0_0 Address: CYREG_PRT0_DM0 Size (bytes): 8 */
 148:Generated_Source\PSoC5/cyfitter_cfg.c **** #define BS_IOPINS0_0_VAL ((const uint8 CYFAR *)0x480000C0u)
 149:Generated_Source\PSoC5/cyfitter_cfg.c **** 
 150:Generated_Source\PSoC5/cyfitter_cfg.c **** /* IOPINS0_8 Address: CYREG_PRT15_DR Size (bytes): 10 */
 151:Generated_Source\PSoC5/cyfitter_cfg.c **** #define BS_IOPINS0_8_VAL ((const uint8 CYFAR *)0x480000C8u)
 152:Generated_Source\PSoC5/cyfitter_cfg.c **** 
 153:Generated_Source\PSoC5/cyfitter_cfg.c **** /* IOPINS0_1 Address: CYREG_PRT1_DM0 Size (bytes): 8 */
 154:Generated_Source\PSoC5/cyfitter_cfg.c **** #define BS_IOPINS0_1_VAL ((const uint8 CYFAR *)0x480000D4u)
 155:Generated_Source\PSoC5/cyfitter_cfg.c **** 
 156:Generated_Source\PSoC5/cyfitter_cfg.c **** /* CYDEV_CLKDIST_ACFG0_CFG0 Address: CYREG_CLKDIST_ACFG0_CFG0 Size (bytes): 4 */
 157:Generated_Source\PSoC5/cyfitter_cfg.c **** #define BS_CYDEV_CLKDIST_ACFG0_CFG0_VAL ((const uint8 CYFAR *)0x480000DCu)
 158:Generated_Source\PSoC5/cyfitter_cfg.c **** 
 159:Generated_Source\PSoC5/cyfitter_cfg.c **** 
 160:Generated_Source\PSoC5/cyfitter_cfg.c **** /*******************************************************************************
 161:Generated_Source\PSoC5/cyfitter_cfg.c **** * Function Name: cfg_write_bytes32
 162:Generated_Source\PSoC5/cyfitter_cfg.c **** ********************************************************************************
 163:Generated_Source\PSoC5/cyfitter_cfg.c **** * Summary:
 164:Generated_Source\PSoC5/cyfitter_cfg.c **** *  This function is used for setting up the chip configuration areas that
 165:Generated_Source\PSoC5/cyfitter_cfg.c **** *  contain relatively sparse data.
 166:Generated_Source\PSoC5/cyfitter_cfg.c **** *
 167:Generated_Source\PSoC5/cyfitter_cfg.c **** * Parameters:
 168:Generated_Source\PSoC5/cyfitter_cfg.c **** *   void
 169:Generated_Source\PSoC5/cyfitter_cfg.c **** *
 170:Generated_Source\PSoC5/cyfitter_cfg.c **** * Return:
 171:Generated_Source\PSoC5/cyfitter_cfg.c **** *   void
 172:Generated_Source\PSoC5/cyfitter_cfg.c **** *
 173:Generated_Source\PSoC5/cyfitter_cfg.c **** *******************************************************************************/
 174:Generated_Source\PSoC5/cyfitter_cfg.c **** static void cfg_write_bytes32(const uint32 addr_table[], const cy_cfg_addrvalue_t data_table[]);
 175:Generated_Source\PSoC5/cyfitter_cfg.c **** static void cfg_write_bytes32(const uint32 addr_table[], const cy_cfg_addrvalue_t data_table[])
 176:Generated_Source\PSoC5/cyfitter_cfg.c **** {
 163              		.loc 1 176 0
 164              		.cfi_startproc
 165              		@ args = 0, pretend = 0, frame = 24
 166              		@ frame_needed = 1, uses_anonymous_args = 0
ARM GAS  C:\Users\Keshuai\AppData\Local\Temp\cc9xpn9V.s 			page 7


 167              		@ link register save eliminated.
 168 0000 80B4     		push	{r7}
 169              		.cfi_def_cfa_offset 4
 170              		.cfi_offset 7, -4
 171 0002 87B0     		sub	sp, sp, #28
 172              		.cfi_def_cfa_offset 32
 173 0004 00AF     		add	r7, sp, #0
 174              		.cfi_def_cfa_register 7
 175 0006 7860     		str	r0, [r7, #4]
 176 0008 3960     		str	r1, [r7]
 177:Generated_Source\PSoC5/cyfitter_cfg.c **** 	/* For 32-bit little-endian architectures */
 178:Generated_Source\PSoC5/cyfitter_cfg.c **** 	uint32 i, j = 0u;
 177              		.loc 1 178 0
 178 000a 0023     		movs	r3, #0
 179 000c 3B61     		str	r3, [r7, #16]
 179:Generated_Source\PSoC5/cyfitter_cfg.c **** 	for (i = 0u; i < CY_CFG_BASE_ADDR_COUNT; i++)
 180              		.loc 1 179 0
 181 000e 0023     		movs	r3, #0
 182 0010 7B61     		str	r3, [r7, #20]
 183 0012 27E0     		b	.L7
 184              	.L10:
 185              	.LBB2:
 180:Generated_Source\PSoC5/cyfitter_cfg.c **** 	{
 181:Generated_Source\PSoC5/cyfitter_cfg.c **** 		uint32 baseAddr = addr_table[i];
 186              		.loc 1 181 0
 187 0014 7B69     		ldr	r3, [r7, #20]
 188 0016 9B00     		lsls	r3, r3, #2
 189 0018 7A68     		ldr	r2, [r7, #4]
 190 001a 1344     		add	r3, r3, r2
 191 001c 1B68     		ldr	r3, [r3]
 192 001e BB60     		str	r3, [r7, #8]
 182:Generated_Source\PSoC5/cyfitter_cfg.c **** 		uint8 count = (uint8)baseAddr;
 193              		.loc 1 182 0
 194 0020 BB68     		ldr	r3, [r7, #8]
 195 0022 FB73     		strb	r3, [r7, #15]
 183:Generated_Source\PSoC5/cyfitter_cfg.c **** 		baseAddr &= 0xFFFFFF00u;
 196              		.loc 1 183 0
 197 0024 BB68     		ldr	r3, [r7, #8]
 198 0026 23F0FF03 		bic	r3, r3, #255
 199 002a BB60     		str	r3, [r7, #8]
 184:Generated_Source\PSoC5/cyfitter_cfg.c **** 		while (count != 0u)
 200              		.loc 1 184 0
 201 002c 14E0     		b	.L8
 202              	.L9:
 185:Generated_Source\PSoC5/cyfitter_cfg.c **** 		{
 186:Generated_Source\PSoC5/cyfitter_cfg.c **** 			CY_SET_XTND_REG8((void CYFAR *)(baseAddr + data_table[j].offset), data_table[j].value);
 203              		.loc 1 186 0
 204 002e 3B69     		ldr	r3, [r7, #16]
 205 0030 5B00     		lsls	r3, r3, #1
 206 0032 3A68     		ldr	r2, [r7]
 207 0034 1344     		add	r3, r3, r2
 208 0036 1B78     		ldrb	r3, [r3]	@ zero_extendqisi2
 209 0038 1A46     		mov	r2, r3
 210 003a BB68     		ldr	r3, [r7, #8]
 211 003c 1344     		add	r3, r3, r2
 212 003e 1946     		mov	r1, r3
 213 0040 3B69     		ldr	r3, [r7, #16]
ARM GAS  C:\Users\Keshuai\AppData\Local\Temp\cc9xpn9V.s 			page 8


 214 0042 5B00     		lsls	r3, r3, #1
 215 0044 3A68     		ldr	r2, [r7]
 216 0046 1344     		add	r3, r3, r2
 217 0048 5B78     		ldrb	r3, [r3, #1]	@ zero_extendqisi2
 218 004a 0B70     		strb	r3, [r1]
 187:Generated_Source\PSoC5/cyfitter_cfg.c **** 			j++;
 219              		.loc 1 187 0
 220 004c 3B69     		ldr	r3, [r7, #16]
 221 004e 0133     		adds	r3, r3, #1
 222 0050 3B61     		str	r3, [r7, #16]
 188:Generated_Source\PSoC5/cyfitter_cfg.c **** 			count--;
 223              		.loc 1 188 0
 224 0052 FB7B     		ldrb	r3, [r7, #15]	@ zero_extendqisi2
 225 0054 013B     		subs	r3, r3, #1
 226 0056 FB73     		strb	r3, [r7, #15]
 227              	.L8:
 184:Generated_Source\PSoC5/cyfitter_cfg.c **** 		{
 228              		.loc 1 184 0
 229 0058 FB7B     		ldrb	r3, [r7, #15]	@ zero_extendqisi2
 230 005a 002B     		cmp	r3, #0
 231 005c E7D1     		bne	.L9
 232              	.LBE2:
 179:Generated_Source\PSoC5/cyfitter_cfg.c **** 	{
 233              		.loc 1 179 0 discriminator 2
 234 005e 7B69     		ldr	r3, [r7, #20]
 235 0060 0133     		adds	r3, r3, #1
 236 0062 7B61     		str	r3, [r7, #20]
 237              	.L7:
 179:Generated_Source\PSoC5/cyfitter_cfg.c **** 	{
 238              		.loc 1 179 0 is_stmt 0 discriminator 1
 239 0064 7B69     		ldr	r3, [r7, #20]
 240 0066 162B     		cmp	r3, #22
 241 0068 D4D9     		bls	.L10
 189:Generated_Source\PSoC5/cyfitter_cfg.c **** 		}
 190:Generated_Source\PSoC5/cyfitter_cfg.c **** 	}
 191:Generated_Source\PSoC5/cyfitter_cfg.c **** }
 242              		.loc 1 191 0 is_stmt 1
 243 006a 1C37     		adds	r7, r7, #28
 244              		.cfi_def_cfa_offset 4
 245 006c BD46     		mov	sp, r7
 246              		.cfi_def_cfa_register 13
 247              		@ sp needed
 248 006e 5DF8047B 		ldr	r7, [sp], #4
 249              		.cfi_restore 7
 250              		.cfi_def_cfa_offset 0
 251 0072 7047     		bx	lr
 252              		.cfi_endproc
 253              	.LFE4:
 254              		.size	cfg_write_bytes32, .-cfg_write_bytes32
 255              		.section	.text.ClockSetup,"ax",%progbits
 256              		.align	2
 257              		.thumb
 258              		.thumb_func
 259              		.type	ClockSetup, %function
 260              	ClockSetup:
 261              	.LFB5:
 192:Generated_Source\PSoC5/cyfitter_cfg.c **** 
ARM GAS  C:\Users\Keshuai\AppData\Local\Temp\cc9xpn9V.s 			page 9


 193:Generated_Source\PSoC5/cyfitter_cfg.c **** /*******************************************************************************
 194:Generated_Source\PSoC5/cyfitter_cfg.c **** * Function Name: ClockSetup
 195:Generated_Source\PSoC5/cyfitter_cfg.c **** ********************************************************************************
 196:Generated_Source\PSoC5/cyfitter_cfg.c **** *
 197:Generated_Source\PSoC5/cyfitter_cfg.c **** * Summary:
 198:Generated_Source\PSoC5/cyfitter_cfg.c **** *  Performs the initialization of all of the clocks in the device based on the
 199:Generated_Source\PSoC5/cyfitter_cfg.c **** *  settings in the Clock tab of the DWR.  This includes enabling the requested
 200:Generated_Source\PSoC5/cyfitter_cfg.c **** *  clocks and setting the necessary dividers to produce the desired frequency. 
 201:Generated_Source\PSoC5/cyfitter_cfg.c **** *
 202:Generated_Source\PSoC5/cyfitter_cfg.c **** * Parameters:
 203:Generated_Source\PSoC5/cyfitter_cfg.c **** *  void
 204:Generated_Source\PSoC5/cyfitter_cfg.c **** *
 205:Generated_Source\PSoC5/cyfitter_cfg.c **** * Return:
 206:Generated_Source\PSoC5/cyfitter_cfg.c **** *  void
 207:Generated_Source\PSoC5/cyfitter_cfg.c **** *
 208:Generated_Source\PSoC5/cyfitter_cfg.c **** *******************************************************************************/
 209:Generated_Source\PSoC5/cyfitter_cfg.c **** static void ClockSetup(void);
 210:Generated_Source\PSoC5/cyfitter_cfg.c **** static void ClockSetup(void)
 211:Generated_Source\PSoC5/cyfitter_cfg.c **** {
 262              		.loc 1 211 0
 263              		.cfi_startproc
 264              		@ args = 0, pretend = 0, frame = 8
 265              		@ frame_needed = 1, uses_anonymous_args = 0
 266 0000 80B5     		push	{r7, lr}
 267              		.cfi_def_cfa_offset 8
 268              		.cfi_offset 7, -8
 269              		.cfi_offset 14, -4
 270 0002 82B0     		sub	sp, sp, #8
 271              		.cfi_def_cfa_offset 16
 272 0004 00AF     		add	r7, sp, #0
 273              		.cfi_def_cfa_register 7
 212:Generated_Source\PSoC5/cyfitter_cfg.c **** 	uint32 timeout;
 213:Generated_Source\PSoC5/cyfitter_cfg.c **** 	uint8 pllLock;
 214:Generated_Source\PSoC5/cyfitter_cfg.c **** 
 215:Generated_Source\PSoC5/cyfitter_cfg.c **** 
 216:Generated_Source\PSoC5/cyfitter_cfg.c **** 	/* Configure Digital Clocks based on settings from Clock DWR */
 217:Generated_Source\PSoC5/cyfitter_cfg.c **** 	CY_SET_XTND_REG16((void CYFAR *)(CYREG_CLKDIST_DCFG0_CFG0), 0x0000u);
 274              		.loc 1 217 0
 275 0006 3C4B     		ldr	r3, .L16
 276 0008 0022     		movs	r2, #0
 277 000a 1A80     		strh	r2, [r3]	@ movhi
 218:Generated_Source\PSoC5/cyfitter_cfg.c **** 	CY_SET_XTND_REG8((void CYFAR *)(CYREG_CLKDIST_DCFG0_CFG0 + 0x2u), 0x50u);
 278              		.loc 1 218 0
 279 000c 3B4B     		ldr	r3, .L16+4
 280 000e 5022     		movs	r2, #80
 281 0010 1A70     		strb	r2, [r3]
 219:Generated_Source\PSoC5/cyfitter_cfg.c **** 
 220:Generated_Source\PSoC5/cyfitter_cfg.c **** 	/* Configure Analog Clocks based on settings from Clock DWR */
 221:Generated_Source\PSoC5/cyfitter_cfg.c **** 	CYCONFIGCPY((void CYFAR *)(CYREG_CLKDIST_ACFG0_CFG0), (const void CYFAR *)(BS_CYDEV_CLKDIST_ACFG0_
 282              		.loc 1 221 0
 283 0012 3B48     		ldr	r0, .L16+8
 284 0014 3B49     		ldr	r1, .L16+12
 285 0016 0422     		movs	r2, #4
 286 0018 FFF7FEFF 		bl	CYCONFIGCPY
 222:Generated_Source\PSoC5/cyfitter_cfg.c **** 
 223:Generated_Source\PSoC5/cyfitter_cfg.c **** 	/* Configure ILO based on settings from Clock DWR */
 224:Generated_Source\PSoC5/cyfitter_cfg.c **** 	CY_SET_XTND_REG8((void CYFAR *)(CYREG_SLOWCLK_ILO_CR0), 0x06u);
ARM GAS  C:\Users\Keshuai\AppData\Local\Temp\cc9xpn9V.s 			page 10


 287              		.loc 1 224 0
 288 001c 3A4B     		ldr	r3, .L16+16
 289 001e 0622     		movs	r2, #6
 290 0020 1A70     		strb	r2, [r3]
 225:Generated_Source\PSoC5/cyfitter_cfg.c **** 
 226:Generated_Source\PSoC5/cyfitter_cfg.c **** 	/* Configure IMO based on settings from Clock DWR */
 227:Generated_Source\PSoC5/cyfitter_cfg.c **** 	CY_SET_XTND_REG8((void CYFAR *)(CYREG_FASTCLK_IMO_CR), 0x52u);
 291              		.loc 1 227 0
 292 0022 3A4B     		ldr	r3, .L16+20
 293 0024 5222     		movs	r2, #82
 294 0026 1A70     		strb	r2, [r3]
 228:Generated_Source\PSoC5/cyfitter_cfg.c **** 	CY_SET_XTND_REG8((void CYFAR *)(CYREG_IMO_TR1), (CY_GET_XTND_REG8((void CYFAR *)CYREG_FLSHID_CUST_
 295              		.loc 1 228 0
 296 0028 394B     		ldr	r3, .L16+24
 297 002a 3A4A     		ldr	r2, .L16+28
 298 002c 1278     		ldrb	r2, [r2]
 299 002e D2B2     		uxtb	r2, r2
 300 0030 1A70     		strb	r2, [r3]
 229:Generated_Source\PSoC5/cyfitter_cfg.c **** 
 230:Generated_Source\PSoC5/cyfitter_cfg.c **** 	/* Configure PLL based on settings from Clock DWR */
 231:Generated_Source\PSoC5/cyfitter_cfg.c **** 	CY_SET_XTND_REG16((void CYFAR *)(CYREG_FASTCLK_PLL_P), 0x0718u);
 301              		.loc 1 231 0
 302 0032 394B     		ldr	r3, .L16+32
 303 0034 4FF4E362 		mov	r2, #1816
 304 0038 1A80     		strh	r2, [r3]	@ movhi
 232:Generated_Source\PSoC5/cyfitter_cfg.c **** 	CY_SET_XTND_REG16((void CYFAR *)(CYREG_FASTCLK_PLL_CFG0), 0x2251u);
 305              		.loc 1 232 0
 306 003a 384B     		ldr	r3, .L16+36
 307 003c 42F25122 		movw	r2, #8785
 308 0040 1A80     		strh	r2, [r3]	@ movhi
 233:Generated_Source\PSoC5/cyfitter_cfg.c **** 	/* Wait up to 250us for the PLL to lock */
 234:Generated_Source\PSoC5/cyfitter_cfg.c **** 	pllLock = 0u;
 309              		.loc 1 234 0
 310 0042 0023     		movs	r3, #0
 311 0044 FB70     		strb	r3, [r7, #3]
 235:Generated_Source\PSoC5/cyfitter_cfg.c **** 	for (timeout = 250u / 10u; (timeout > 0u) && (pllLock != 0x03u); timeout--)
 312              		.loc 1 235 0
 313 0046 1923     		movs	r3, #25
 314 0048 7B60     		str	r3, [r7, #4]
 315 004a 14E0     		b	.L12
 316              	.L14:
 236:Generated_Source\PSoC5/cyfitter_cfg.c **** 	{ 
 237:Generated_Source\PSoC5/cyfitter_cfg.c **** 		pllLock = 0x03u & ((uint8)((uint8)pllLock << 1) | ((CY_GET_XTND_REG8((void CYFAR *)CYREG_FASTCLK_
 317              		.loc 1 237 0 discriminator 4
 318 004c FB78     		ldrb	r3, [r7, #3]
 319 004e 5B00     		lsls	r3, r3, #1
 320 0050 DAB2     		uxtb	r2, r3
 321 0052 334B     		ldr	r3, .L16+40
 322 0054 1B78     		ldrb	r3, [r3]
 323 0056 DBB2     		uxtb	r3, r3
 324 0058 03F00103 		and	r3, r3, #1
 325 005c DBB2     		uxtb	r3, r3
 326 005e 1343     		orrs	r3, r3, r2
 327 0060 DBB2     		uxtb	r3, r3
 328 0062 03F00303 		and	r3, r3, #3
 329 0066 FB70     		strb	r3, [r7, #3]
 238:Generated_Source\PSoC5/cyfitter_cfg.c **** 		CyDelayCycles(10u * 48u); /* Delay 10us based on 48MHz clock */
ARM GAS  C:\Users\Keshuai\AppData\Local\Temp\cc9xpn9V.s 			page 11


 330              		.loc 1 238 0 discriminator 4
 331 0068 4FF4F070 		mov	r0, #480
 332 006c FFF7FEFF 		bl	CyDelayCycles
 235:Generated_Source\PSoC5/cyfitter_cfg.c **** 	for (timeout = 250u / 10u; (timeout > 0u) && (pllLock != 0x03u); timeout--)
 333              		.loc 1 235 0 discriminator 4
 334 0070 7B68     		ldr	r3, [r7, #4]
 335 0072 013B     		subs	r3, r3, #1
 336 0074 7B60     		str	r3, [r7, #4]
 337              	.L12:
 235:Generated_Source\PSoC5/cyfitter_cfg.c **** 	for (timeout = 250u / 10u; (timeout > 0u) && (pllLock != 0x03u); timeout--)
 338              		.loc 1 235 0 is_stmt 0 discriminator 1
 339 0076 7B68     		ldr	r3, [r7, #4]
 340 0078 002B     		cmp	r3, #0
 341 007a 02D0     		beq	.L13
 235:Generated_Source\PSoC5/cyfitter_cfg.c **** 	for (timeout = 250u / 10u; (timeout > 0u) && (pllLock != 0x03u); timeout--)
 342              		.loc 1 235 0 discriminator 3
 343 007c FB78     		ldrb	r3, [r7, #3]	@ zero_extendqisi2
 344 007e 032B     		cmp	r3, #3
 345 0080 E4D1     		bne	.L14
 346              	.L13:
 239:Generated_Source\PSoC5/cyfitter_cfg.c **** 	}
 240:Generated_Source\PSoC5/cyfitter_cfg.c **** 	/* If we ran out of time the PLL didn't lock so go to the error function */
 241:Generated_Source\PSoC5/cyfitter_cfg.c **** 	if (timeout == 0u)
 347              		.loc 1 241 0 is_stmt 1
 348 0082 7B68     		ldr	r3, [r7, #4]
 349 0084 002B     		cmp	r3, #0
 350 0086 02D1     		bne	.L15
 242:Generated_Source\PSoC5/cyfitter_cfg.c **** 	{
 243:Generated_Source\PSoC5/cyfitter_cfg.c **** 		CyClockStartupError(CYCLOCKSTART_PLL_ERROR);
 351              		.loc 1 243 0
 352 0088 0320     		movs	r0, #3
 353 008a FFF7FEFF 		bl	CyClockStartupError
 354              	.L15:
 244:Generated_Source\PSoC5/cyfitter_cfg.c **** 	}
 245:Generated_Source\PSoC5/cyfitter_cfg.c **** 
 246:Generated_Source\PSoC5/cyfitter_cfg.c **** 	/* Configure Bus/Master Clock based on settings from Clock DWR */
 247:Generated_Source\PSoC5/cyfitter_cfg.c **** 	CY_SET_XTND_REG16((void CYFAR *)(CYREG_CLKDIST_MSTR0), 0x0100u);
 355              		.loc 1 247 0
 356 008e 254B     		ldr	r3, .L16+44
 357 0090 4FF48072 		mov	r2, #256
 358 0094 1A80     		strh	r2, [r3]	@ movhi
 248:Generated_Source\PSoC5/cyfitter_cfg.c **** 	CY_SET_XTND_REG8((void CYFAR *)(CYREG_CLKDIST_MSTR0), 0x07u);
 359              		.loc 1 248 0
 360 0096 234B     		ldr	r3, .L16+44
 361 0098 0722     		movs	r2, #7
 362 009a 1A70     		strb	r2, [r3]
 249:Generated_Source\PSoC5/cyfitter_cfg.c **** 	CY_SET_XTND_REG8((void CYFAR *)(CYREG_CLKDIST_BCFG0), 0x00u);
 363              		.loc 1 249 0
 364 009c 224B     		ldr	r3, .L16+48
 365 009e 0022     		movs	r2, #0
 366 00a0 1A70     		strb	r2, [r3]
 250:Generated_Source\PSoC5/cyfitter_cfg.c **** 	CY_SET_XTND_REG8((void CYFAR *)(CYREG_CLKDIST_BCFG2), 0x48u);
 367              		.loc 1 250 0
 368 00a2 224B     		ldr	r3, .L16+52
 369 00a4 4822     		movs	r2, #72
 370 00a6 1A70     		strb	r2, [r3]
 251:Generated_Source\PSoC5/cyfitter_cfg.c **** 	CY_SET_XTND_REG8((void CYFAR *)(CYREG_CLKDIST_MSTR0), 0x00u);
ARM GAS  C:\Users\Keshuai\AppData\Local\Temp\cc9xpn9V.s 			page 12


 371              		.loc 1 251 0
 372 00a8 1E4B     		ldr	r3, .L16+44
 373 00aa 0022     		movs	r2, #0
 374 00ac 1A70     		strb	r2, [r3]
 252:Generated_Source\PSoC5/cyfitter_cfg.c **** 
 253:Generated_Source\PSoC5/cyfitter_cfg.c **** 	/* Configure USB Clock based on settings from Clock DWR */
 254:Generated_Source\PSoC5/cyfitter_cfg.c **** 	CY_SET_XTND_REG8((void CYFAR *)(CYREG_CLKDIST_UCFG), 0x00u);
 375              		.loc 1 254 0
 376 00ae 204B     		ldr	r3, .L16+56
 377 00b0 0022     		movs	r2, #0
 378 00b2 1A70     		strb	r2, [r3]
 255:Generated_Source\PSoC5/cyfitter_cfg.c **** 	CY_SET_XTND_REG8((void CYFAR *)(CYREG_CLKDIST_LD), 0x02u);
 379              		.loc 1 255 0
 380 00b4 1F4B     		ldr	r3, .L16+60
 381 00b6 0222     		movs	r2, #2
 382 00b8 1A70     		strb	r2, [r3]
 256:Generated_Source\PSoC5/cyfitter_cfg.c **** 	CY_SET_XTND_REG8((void CYFAR *)(CYREG_CLKDIST_DLY1), 0x04u);
 383              		.loc 1 256 0
 384 00ba 1F4B     		ldr	r3, .L16+64
 385 00bc 0422     		movs	r2, #4
 386 00be 1A70     		strb	r2, [r3]
 257:Generated_Source\PSoC5/cyfitter_cfg.c **** 
 258:Generated_Source\PSoC5/cyfitter_cfg.c **** 	CY_SET_XTND_REG8((void CYFAR *)(CYREG_PM_ACT_CFG2), ((CY_GET_XTND_REG8((void CYFAR *)CYREG_PM_ACT_
 387              		.loc 1 258 0
 388 00c0 1E4A     		ldr	r2, .L16+68
 389 00c2 1E4B     		ldr	r3, .L16+68
 390 00c4 1B78     		ldrb	r3, [r3]
 391 00c6 DBB2     		uxtb	r3, r3
 392 00c8 43F00103 		orr	r3, r3, #1
 393 00cc DBB2     		uxtb	r3, r3
 394 00ce 1370     		strb	r3, [r2]
 259:Generated_Source\PSoC5/cyfitter_cfg.c **** 	CY_SET_XTND_REG8((void CYFAR *)(CYREG_PM_ACT_CFG1), ((CY_GET_XTND_REG8((void CYFAR *)CYREG_PM_ACT_
 395              		.loc 1 259 0
 396 00d0 1B4A     		ldr	r2, .L16+72
 397 00d2 1B4B     		ldr	r3, .L16+72
 398 00d4 1B78     		ldrb	r3, [r3]
 399 00d6 DBB2     		uxtb	r3, r3
 400 00d8 43F00103 		orr	r3, r3, #1
 401 00dc DBB2     		uxtb	r3, r3
 402 00de 1370     		strb	r3, [r2]
 260:Generated_Source\PSoC5/cyfitter_cfg.c **** 	CY_SET_XTND_REG8((void CYFAR *)(CYREG_PM_ACT_CFG0), ((CY_GET_XTND_REG8((void CYFAR *)CYREG_PM_ACT_
 403              		.loc 1 260 0
 404 00e0 184A     		ldr	r2, .L16+76
 405 00e2 184B     		ldr	r3, .L16+76
 406 00e4 1B78     		ldrb	r3, [r3]
 407 00e6 DBB2     		uxtb	r3, r3
 408 00e8 63F07F03 		orn	r3, r3, #127
 409 00ec DBB2     		uxtb	r3, r3
 410 00ee 1370     		strb	r3, [r2]
 261:Generated_Source\PSoC5/cyfitter_cfg.c **** }
 411              		.loc 1 261 0
 412 00f0 0837     		adds	r7, r7, #8
 413              		.cfi_def_cfa_offset 8
 414 00f2 BD46     		mov	sp, r7
 415              		.cfi_def_cfa_register 13
 416              		@ sp needed
 417 00f4 80BD     		pop	{r7, pc}
ARM GAS  C:\Users\Keshuai\AppData\Local\Temp\cc9xpn9V.s 			page 13


 418              	.L17:
 419 00f6 00BF     		.align	2
 420              	.L16:
 421 00f8 80400040 		.word	1073758336
 422 00fc 82400040 		.word	1073758338
 423 0100 00410040 		.word	1073758464
 424 0104 DC000048 		.word	1207959772
 425 0108 00430040 		.word	1073758976
 426 010c 00420040 		.word	1073758720
 427 0110 A1460040 		.word	1073759905
 428 0114 0F010049 		.word	1224737039
 429 0118 22420040 		.word	1073758754
 430 011c 20420040 		.word	1073758752
 431 0120 25420040 		.word	1073758757
 432 0124 04400040 		.word	1073758212
 433 0128 06400040 		.word	1073758214
 434 012c 08400040 		.word	1073758216
 435 0130 09400040 		.word	1073758217
 436 0134 01400040 		.word	1073758209
 437 0138 0B400040 		.word	1073758219
 438 013c A2430040 		.word	1073759138
 439 0140 A1430040 		.word	1073759137
 440 0144 A0430040 		.word	1073759136
 441              		.cfi_endproc
 442              	.LFE5:
 443              		.size	ClockSetup, .-ClockSetup
 444              		.section	.text.AnalogSetDefault,"ax",%progbits
 445              		.align	2
 446              		.thumb
 447              		.thumb_func
 448              		.type	AnalogSetDefault, %function
 449              	AnalogSetDefault:
 450              	.LFB6:
 262:Generated_Source\PSoC5/cyfitter_cfg.c **** 
 263:Generated_Source\PSoC5/cyfitter_cfg.c **** 
 264:Generated_Source\PSoC5/cyfitter_cfg.c **** /* Analog API Functions */
 265:Generated_Source\PSoC5/cyfitter_cfg.c **** 
 266:Generated_Source\PSoC5/cyfitter_cfg.c **** 
 267:Generated_Source\PSoC5/cyfitter_cfg.c **** /*******************************************************************************
 268:Generated_Source\PSoC5/cyfitter_cfg.c **** * Function Name: AnalogSetDefault
 269:Generated_Source\PSoC5/cyfitter_cfg.c **** ********************************************************************************
 270:Generated_Source\PSoC5/cyfitter_cfg.c **** *
 271:Generated_Source\PSoC5/cyfitter_cfg.c **** * Summary:
 272:Generated_Source\PSoC5/cyfitter_cfg.c **** *  Sets up the analog portions of the chip to default values based on chip
 273:Generated_Source\PSoC5/cyfitter_cfg.c **** *  configuration options from the project.
 274:Generated_Source\PSoC5/cyfitter_cfg.c **** *
 275:Generated_Source\PSoC5/cyfitter_cfg.c **** * Parameters:
 276:Generated_Source\PSoC5/cyfitter_cfg.c **** *  void
 277:Generated_Source\PSoC5/cyfitter_cfg.c **** *
 278:Generated_Source\PSoC5/cyfitter_cfg.c **** * Return:
 279:Generated_Source\PSoC5/cyfitter_cfg.c **** *  void
 280:Generated_Source\PSoC5/cyfitter_cfg.c **** *
 281:Generated_Source\PSoC5/cyfitter_cfg.c **** *******************************************************************************/
 282:Generated_Source\PSoC5/cyfitter_cfg.c **** static void AnalogSetDefault(void);
 283:Generated_Source\PSoC5/cyfitter_cfg.c **** static void AnalogSetDefault(void)
 284:Generated_Source\PSoC5/cyfitter_cfg.c **** {
 451              		.loc 1 284 0
ARM GAS  C:\Users\Keshuai\AppData\Local\Temp\cc9xpn9V.s 			page 14


 452              		.cfi_startproc
 453              		@ args = 0, pretend = 0, frame = 8
 454              		@ frame_needed = 1, uses_anonymous_args = 0
 455              		@ link register save eliminated.
 456 0000 80B4     		push	{r7}
 457              		.cfi_def_cfa_offset 4
 458              		.cfi_offset 7, -4
 459 0002 83B0     		sub	sp, sp, #12
 460              		.cfi_def_cfa_offset 16
 461 0004 00AF     		add	r7, sp, #0
 462              		.cfi_def_cfa_register 7
 285:Generated_Source\PSoC5/cyfitter_cfg.c **** 	uint8 bg_xover_inl_trim = CY_GET_XTND_REG8((void CYFAR *)(CYREG_FLSHID_MFG_CFG_BG_XOVER_INL_TRIM +
 463              		.loc 1 285 0
 464 0006 0F4B     		ldr	r3, .L19
 465 0008 1B78     		ldrb	r3, [r3]
 466 000a FB71     		strb	r3, [r7, #7]
 286:Generated_Source\PSoC5/cyfitter_cfg.c **** 	CY_SET_XTND_REG8((void CYFAR *)(CYREG_BG_DFT0), (bg_xover_inl_trim & 0x07u));
 467              		.loc 1 286 0
 468 000c 0E4A     		ldr	r2, .L19+4
 469 000e FB79     		ldrb	r3, [r7, #7]
 470 0010 03F00703 		and	r3, r3, #7
 471 0014 DBB2     		uxtb	r3, r3
 472 0016 1370     		strb	r3, [r2]
 287:Generated_Source\PSoC5/cyfitter_cfg.c **** 	CY_SET_XTND_REG8((void CYFAR *)(CYREG_BG_DFT1), ((bg_xover_inl_trim >> 4) & 0x0Fu));
 473              		.loc 1 287 0
 474 0018 0C4A     		ldr	r2, .L19+8
 475 001a FB79     		ldrb	r3, [r7, #7]	@ zero_extendqisi2
 476 001c 1B09     		lsrs	r3, r3, #4
 477 001e DBB2     		uxtb	r3, r3
 478 0020 1370     		strb	r3, [r2]
 288:Generated_Source\PSoC5/cyfitter_cfg.c **** 	CY_SET_XTND_REG8((void CYFAR *)CYREG_CMP0_SW0, 0x48u);
 479              		.loc 1 288 0
 480 0022 0B4B     		ldr	r3, .L19+12
 481 0024 4822     		movs	r2, #72
 482 0026 1A70     		strb	r2, [r3]
 289:Generated_Source\PSoC5/cyfitter_cfg.c **** 	CY_SET_XTND_REG8((void CYFAR *)CYREG_DSM0_SW0, 0x80u);
 483              		.loc 1 289 0
 484 0028 0A4B     		ldr	r3, .L19+16
 485 002a 8022     		movs	r2, #128
 486 002c 1A70     		strb	r2, [r3]
 290:Generated_Source\PSoC5/cyfitter_cfg.c **** 	CY_SET_XTND_REG8((void CYFAR *)CYREG_DSM0_SW4, 0x08u);
 487              		.loc 1 290 0
 488 002e 0A4B     		ldr	r3, .L19+20
 489 0030 0822     		movs	r2, #8
 490 0032 1A70     		strb	r2, [r3]
 291:Generated_Source\PSoC5/cyfitter_cfg.c **** 	CY_SET_XTND_REG8((void CYFAR *)CYREG_PUMP_CR0, 0x44u);
 491              		.loc 1 291 0
 492 0034 094B     		ldr	r3, .L19+24
 493 0036 4422     		movs	r2, #68
 494 0038 1A70     		strb	r2, [r3]
 292:Generated_Source\PSoC5/cyfitter_cfg.c **** }
 495              		.loc 1 292 0
 496 003a 0C37     		adds	r7, r7, #12
 497              		.cfi_def_cfa_offset 4
 498 003c BD46     		mov	sp, r7
 499              		.cfi_def_cfa_register 13
 500              		@ sp needed
ARM GAS  C:\Users\Keshuai\AppData\Local\Temp\cc9xpn9V.s 			page 15


 501 003e 5DF8047B 		ldr	r7, [sp], #4
 502              		.cfi_restore 7
 503              		.cfi_def_cfa_offset 0
 504 0042 7047     		bx	lr
 505              	.L20:
 506              		.align	2
 507              	.L19:
 508 0044 CF010049 		.word	1224737231
 509 0048 6E580040 		.word	1073764462
 510 004c 6F580040 		.word	1073764463
 511 0050 C05A0040 		.word	1073765056
 512 0054 005B0040 		.word	1073765120
 513 0058 045B0040 		.word	1073765124
 514 005c 76580040 		.word	1073764470
 515              		.cfi_endproc
 516              	.LFE6:
 517              		.size	AnalogSetDefault, .-AnalogSetDefault
 518              		.section	.text.SetAnalogRoutingPumps,"ax",%progbits
 519              		.align	2
 520              		.global	SetAnalogRoutingPumps
 521              		.thumb
 522              		.thumb_func
 523              		.type	SetAnalogRoutingPumps, %function
 524              	SetAnalogRoutingPumps:
 525              	.LFB7:
 293:Generated_Source\PSoC5/cyfitter_cfg.c **** 
 294:Generated_Source\PSoC5/cyfitter_cfg.c **** 
 295:Generated_Source\PSoC5/cyfitter_cfg.c **** /*******************************************************************************
 296:Generated_Source\PSoC5/cyfitter_cfg.c **** * Function Name: SetAnalogRoutingPumps
 297:Generated_Source\PSoC5/cyfitter_cfg.c **** ********************************************************************************
 298:Generated_Source\PSoC5/cyfitter_cfg.c **** *
 299:Generated_Source\PSoC5/cyfitter_cfg.c **** * Summary:
 300:Generated_Source\PSoC5/cyfitter_cfg.c **** * Enables or disables the analog pumps feeding analog routing switches.
 301:Generated_Source\PSoC5/cyfitter_cfg.c **** * Intended to be called at startup, based on the Vdda system configuration;
 302:Generated_Source\PSoC5/cyfitter_cfg.c **** * may be called during operation when the user informs us that the Vdda voltage
 303:Generated_Source\PSoC5/cyfitter_cfg.c **** * crossed the pump threshold.
 304:Generated_Source\PSoC5/cyfitter_cfg.c **** *
 305:Generated_Source\PSoC5/cyfitter_cfg.c **** * Parameters:
 306:Generated_Source\PSoC5/cyfitter_cfg.c **** *  enabled - 1 to enable the pumps, 0 to disable the pumps
 307:Generated_Source\PSoC5/cyfitter_cfg.c **** *
 308:Generated_Source\PSoC5/cyfitter_cfg.c **** * Return:
 309:Generated_Source\PSoC5/cyfitter_cfg.c **** *  void
 310:Generated_Source\PSoC5/cyfitter_cfg.c **** *
 311:Generated_Source\PSoC5/cyfitter_cfg.c **** *******************************************************************************/
 312:Generated_Source\PSoC5/cyfitter_cfg.c **** void SetAnalogRoutingPumps(uint8 enabled)
 313:Generated_Source\PSoC5/cyfitter_cfg.c **** {
 526              		.loc 1 313 0
 527              		.cfi_startproc
 528              		@ args = 0, pretend = 0, frame = 16
 529              		@ frame_needed = 1, uses_anonymous_args = 0
 530              		@ link register save eliminated.
 531 0000 80B4     		push	{r7}
 532              		.cfi_def_cfa_offset 4
 533              		.cfi_offset 7, -4
 534 0002 85B0     		sub	sp, sp, #20
 535              		.cfi_def_cfa_offset 24
 536 0004 00AF     		add	r7, sp, #0
ARM GAS  C:\Users\Keshuai\AppData\Local\Temp\cc9xpn9V.s 			page 16


 537              		.cfi_def_cfa_register 7
 538 0006 0346     		mov	r3, r0
 539 0008 FB71     		strb	r3, [r7, #7]
 314:Generated_Source\PSoC5/cyfitter_cfg.c **** 	uint8 regValue = CY_GET_XTND_REG8((void CYFAR *)CYREG_PUMP_CR0);
 540              		.loc 1 314 0
 541 000a 0B4B     		ldr	r3, .L24
 542 000c 1B78     		ldrb	r3, [r3]
 543 000e FB73     		strb	r3, [r7, #15]
 315:Generated_Source\PSoC5/cyfitter_cfg.c **** 	if (enabled != 0u)
 544              		.loc 1 315 0
 545 0010 FB79     		ldrb	r3, [r7, #7]	@ zero_extendqisi2
 546 0012 002B     		cmp	r3, #0
 547 0014 04D0     		beq	.L22
 316:Generated_Source\PSoC5/cyfitter_cfg.c **** 	{
 317:Generated_Source\PSoC5/cyfitter_cfg.c **** 		regValue |= 0x22u;
 548              		.loc 1 317 0
 549 0016 FB7B     		ldrb	r3, [r7, #15]
 550 0018 43F02203 		orr	r3, r3, #34
 551 001c FB73     		strb	r3, [r7, #15]
 552 001e 03E0     		b	.L23
 553              	.L22:
 318:Generated_Source\PSoC5/cyfitter_cfg.c **** 	}
 319:Generated_Source\PSoC5/cyfitter_cfg.c **** 	else
 320:Generated_Source\PSoC5/cyfitter_cfg.c **** 	{
 321:Generated_Source\PSoC5/cyfitter_cfg.c **** 		regValue &= (uint8)~0x22u;
 554              		.loc 1 321 0
 555 0020 FB7B     		ldrb	r3, [r7, #15]
 556 0022 23F02203 		bic	r3, r3, #34
 557 0026 FB73     		strb	r3, [r7, #15]
 558              	.L23:
 322:Generated_Source\PSoC5/cyfitter_cfg.c **** 	}
 323:Generated_Source\PSoC5/cyfitter_cfg.c **** 	CY_SET_XTND_REG8((void CYFAR *)CYREG_PUMP_CR0, regValue);
 559              		.loc 1 323 0
 560 0028 034A     		ldr	r2, .L24
 561 002a FB7B     		ldrb	r3, [r7, #15]
 562 002c 1370     		strb	r3, [r2]
 324:Generated_Source\PSoC5/cyfitter_cfg.c **** }
 563              		.loc 1 324 0
 564 002e 1437     		adds	r7, r7, #20
 565              		.cfi_def_cfa_offset 4
 566 0030 BD46     		mov	sp, r7
 567              		.cfi_def_cfa_register 13
 568              		@ sp needed
 569 0032 5DF8047B 		ldr	r7, [sp], #4
 570              		.cfi_restore 7
 571              		.cfi_def_cfa_offset 0
 572 0036 7047     		bx	lr
 573              	.L25:
 574              		.align	2
 575              	.L24:
 576 0038 76580040 		.word	1073764470
 577              		.cfi_endproc
 578              	.LFE7:
 579              		.size	SetAnalogRoutingPumps, .-SetAnalogRoutingPumps
 580              		.global	AMuxSeq_1_CYAMUXSIDE_A_curChannel
 581              		.data
 582              		.type	AMuxSeq_1_CYAMUXSIDE_A_curChannel, %object
ARM GAS  C:\Users\Keshuai\AppData\Local\Temp\cc9xpn9V.s 			page 17


 583              		.size	AMuxSeq_1_CYAMUXSIDE_A_curChannel, 1
 584              	AMuxSeq_1_CYAMUXSIDE_A_curChannel:
 585 0000 FF       		.byte	-1
 586              		.section	.text.AMuxSeq_1_CYAMUXSIDE_A_DisconnectAll,"ax",%progbits
 587              		.align	2
 588              		.global	AMuxSeq_1_CYAMUXSIDE_A_DisconnectAll
 589              		.thumb
 590              		.thumb_func
 591              		.type	AMuxSeq_1_CYAMUXSIDE_A_DisconnectAll, %function
 592              	AMuxSeq_1_CYAMUXSIDE_A_DisconnectAll:
 593              	.LFB8:
 325:Generated_Source\PSoC5/cyfitter_cfg.c **** 
 326:Generated_Source\PSoC5/cyfitter_cfg.c **** #define CY_AMUX_UNUSED CYREG_BOOST_SR
 327:Generated_Source\PSoC5/cyfitter_cfg.c **** int8 AMuxSeq_1_CYAMUXSIDE_A_curChannel = -1;
 328:Generated_Source\PSoC5/cyfitter_cfg.c **** 
 329:Generated_Source\PSoC5/cyfitter_cfg.c **** void AMuxSeq_1_CYAMUXSIDE_A_DisconnectAll(void)
 330:Generated_Source\PSoC5/cyfitter_cfg.c **** {
 594              		.loc 1 330 0
 595              		.cfi_startproc
 596              		@ args = 0, pretend = 0, frame = 0
 597              		@ frame_needed = 1, uses_anonymous_args = 0
 598              		@ link register save eliminated.
 599 0000 80B4     		push	{r7}
 600              		.cfi_def_cfa_offset 4
 601              		.cfi_offset 7, -4
 602 0002 00AF     		add	r7, sp, #0
 603              		.cfi_def_cfa_register 7
 331:Generated_Source\PSoC5/cyfitter_cfg.c **** 	AMuxSeq_1_CYAMUXSIDE_A_curChannel = -1;
 604              		.loc 1 331 0
 605 0004 0B4B     		ldr	r3, .L27
 606 0006 FF22     		movs	r2, #255
 607 0008 1A70     		strb	r2, [r3]
 332:Generated_Source\PSoC5/cyfitter_cfg.c **** 	CY_SET_REG8((void CYXDATA *)CYREG_PRT0_AG, CY_GET_REG8((void CYXDATA *)(CYREG_PRT0_AG)) & (uint8)~
 608              		.loc 1 332 0
 609 000a 0B4A     		ldr	r2, .L27+4
 610 000c 0A4B     		ldr	r3, .L27+4
 611 000e 1B78     		ldrb	r3, [r3]
 612 0010 DBB2     		uxtb	r3, r3
 613 0012 03F05703 		and	r3, r3, #87
 614 0016 DBB2     		uxtb	r3, r3
 615 0018 1370     		strb	r3, [r2]
 333:Generated_Source\PSoC5/cyfitter_cfg.c **** 	CY_SET_REG8((void CYXDATA *)CYREG_DSM0_SW0, CY_GET_REG8((void CYXDATA *)(CYREG_DSM0_SW0)) & (uint8
 616              		.loc 1 333 0
 617 001a 084A     		ldr	r2, .L27+8
 618 001c 074B     		ldr	r3, .L27+8
 619 001e 1B78     		ldrb	r3, [r3]
 620 0020 DBB2     		uxtb	r3, r3
 621 0022 23F02003 		bic	r3, r3, #32
 622 0026 DBB2     		uxtb	r3, r3
 623 0028 1370     		strb	r3, [r2]
 334:Generated_Source\PSoC5/cyfitter_cfg.c **** }
 624              		.loc 1 334 0
 625 002a BD46     		mov	sp, r7
 626              		.cfi_def_cfa_register 13
 627              		@ sp needed
 628 002c 5DF8047B 		ldr	r7, [sp], #4
 629              		.cfi_restore 7
ARM GAS  C:\Users\Keshuai\AppData\Local\Temp\cc9xpn9V.s 			page 18


 630              		.cfi_def_cfa_offset 0
 631 0030 7047     		bx	lr
 632              	.L28:
 633 0032 00BF     		.align	2
 634              	.L27:
 635 0034 00000000 		.word	AMuxSeq_1_CYAMUXSIDE_A_curChannel
 636 0038 0D510040 		.word	1073762573
 637 003c 005B0040 		.word	1073765120
 638              		.cfi_endproc
 639              	.LFE8:
 640              		.size	AMuxSeq_1_CYAMUXSIDE_A_DisconnectAll, .-AMuxSeq_1_CYAMUXSIDE_A_DisconnectAll
 641              		.section	.text.AMuxSeq_1_CYAMUXSIDE_A_Next,"ax",%progbits
 642              		.align	2
 643              		.global	AMuxSeq_1_CYAMUXSIDE_A_Next
 644              		.thumb
 645              		.thumb_func
 646              		.type	AMuxSeq_1_CYAMUXSIDE_A_Next, %function
 647              	AMuxSeq_1_CYAMUXSIDE_A_Next:
 648              	.LFB9:
 335:Generated_Source\PSoC5/cyfitter_cfg.c **** 
 336:Generated_Source\PSoC5/cyfitter_cfg.c **** #if defined(__C51__) || defined(__CX51__)
 337:Generated_Source\PSoC5/cyfitter_cfg.c ****     #pragma OT(5, SPEED)
 338:Generated_Source\PSoC5/cyfitter_cfg.c **** #endif
 339:Generated_Source\PSoC5/cyfitter_cfg.c **** void AMuxSeq_1_CYAMUXSIDE_A_Next(void)
 340:Generated_Source\PSoC5/cyfitter_cfg.c **** {
 649              		.loc 1 340 0
 650              		.cfi_startproc
 651              		@ args = 0, pretend = 0, frame = 0
 652              		@ frame_needed = 1, uses_anonymous_args = 0
 653              		@ link register save eliminated.
 654 0000 80B4     		push	{r7}
 655              		.cfi_def_cfa_offset 4
 656              		.cfi_offset 7, -4
 657 0002 00AF     		add	r7, sp, #0
 658              		.cfi_def_cfa_register 7
 341:Generated_Source\PSoC5/cyfitter_cfg.c **** 	AMuxSeq_1_CYAMUXSIDE_A_curChannel++;
 659              		.loc 1 341 0
 660 0004 3B4B     		ldr	r3, .L40
 661 0006 1B78     		ldrb	r3, [r3]	@ zero_extendqisi2
 662 0008 DBB2     		uxtb	r3, r3
 663 000a DBB2     		uxtb	r3, r3
 664 000c 0133     		adds	r3, r3, #1
 665 000e DBB2     		uxtb	r3, r3
 666 0010 DAB2     		uxtb	r2, r3
 667 0012 384B     		ldr	r3, .L40
 668 0014 1A70     		strb	r2, [r3]
 342:Generated_Source\PSoC5/cyfitter_cfg.c **** 	switch (AMuxSeq_1_CYAMUXSIDE_A_curChannel)
 669              		.loc 1 342 0
 670 0016 374B     		ldr	r3, .L40
 671 0018 1B78     		ldrb	r3, [r3]	@ zero_extendqisi2
 672 001a 5BB2     		sxtb	r3, r3
 673 001c 072B     		cmp	r3, #7
 674 001e 1FD8     		bhi	.L30
 675 0020 01A2     		adr	r2, .L32
 676 0022 52F823F0 		ldr	pc, [r2, r3, lsl #2]
 677 0026 00BF     		.p2align 2
 678              	.L32:
ARM GAS  C:\Users\Keshuai\AppData\Local\Temp\cc9xpn9V.s 			page 19


 679 0028 67000000 		.word	.L31+1
 680 002c 89000000 		.word	.L33+1
 681 0030 BB000000 		.word	.L34+1
 682 0034 61000000 		.word	.L30+1
 683 0038 49000000 		.word	.L35+1
 684 003c 4F000000 		.word	.L36+1
 685 0040 55000000 		.word	.L37+1
 686 0044 5B000000 		.word	.L38+1
 687              		.p2align 1
 688              	.L35:
 343:Generated_Source\PSoC5/cyfitter_cfg.c **** 	{
 344:Generated_Source\PSoC5/cyfitter_cfg.c **** 	case 4: /* to force jump table (not executed) */
 345:Generated_Source\PSoC5/cyfitter_cfg.c **** 		AMuxSeq_1_CYAMUXSIDE_A_curChannel = 4;
 689              		.loc 1 345 0
 690 0048 2A4B     		ldr	r3, .L40
 691 004a 0422     		movs	r2, #4
 692 004c 1A70     		strb	r2, [r3]
 693              	.L36:
 346:Generated_Source\PSoC5/cyfitter_cfg.c **** 	case 5: /* to force jump table (not executed) */
 347:Generated_Source\PSoC5/cyfitter_cfg.c **** 		AMuxSeq_1_CYAMUXSIDE_A_curChannel = 5;
 694              		.loc 1 347 0
 695 004e 294B     		ldr	r3, .L40
 696 0050 0522     		movs	r2, #5
 697 0052 1A70     		strb	r2, [r3]
 698              	.L37:
 348:Generated_Source\PSoC5/cyfitter_cfg.c **** 	case 6: /* to force jump table (not executed) */
 349:Generated_Source\PSoC5/cyfitter_cfg.c **** 		AMuxSeq_1_CYAMUXSIDE_A_curChannel = 6;
 699              		.loc 1 349 0
 700 0054 274B     		ldr	r3, .L40
 701 0056 0622     		movs	r2, #6
 702 0058 1A70     		strb	r2, [r3]
 703              	.L38:
 350:Generated_Source\PSoC5/cyfitter_cfg.c **** 	case 7: /* to force jump table (not executed) */
 351:Generated_Source\PSoC5/cyfitter_cfg.c **** 		AMuxSeq_1_CYAMUXSIDE_A_curChannel = 7;
 704              		.loc 1 351 0
 705 005a 264B     		ldr	r3, .L40
 706 005c 0722     		movs	r2, #7
 707 005e 1A70     		strb	r2, [r3]
 708              	.L30:
 352:Generated_Source\PSoC5/cyfitter_cfg.c **** 	case 3:
 353:Generated_Source\PSoC5/cyfitter_cfg.c **** 	default:
 354:Generated_Source\PSoC5/cyfitter_cfg.c **** 		AMuxSeq_1_CYAMUXSIDE_A_curChannel = 0;
 709              		.loc 1 354 0
 710 0060 244B     		ldr	r3, .L40
 711 0062 0022     		movs	r2, #0
 712 0064 1A70     		strb	r2, [r3]
 713              	.L31:
 355:Generated_Source\PSoC5/cyfitter_cfg.c **** 	case 0:
 356:Generated_Source\PSoC5/cyfitter_cfg.c **** 		CY_SET_REG8((void CYXDATA *)CYREG_PRT0_AG, CY_GET_REG8((void CYXDATA *)(CYREG_PRT0_AG)) & (uint8)
 714              		.loc 1 356 0
 715 0066 244A     		ldr	r2, .L40+4
 716 0068 234B     		ldr	r3, .L40+4
 717 006a 1B78     		ldrb	r3, [r3]
 718 006c DBB2     		uxtb	r3, r3
 719 006e 23F00803 		bic	r3, r3, #8
 720 0072 DBB2     		uxtb	r3, r3
 721 0074 1370     		strb	r3, [r2]
ARM GAS  C:\Users\Keshuai\AppData\Local\Temp\cc9xpn9V.s 			page 20


 357:Generated_Source\PSoC5/cyfitter_cfg.c **** 		CY_SET_REG8((void CYXDATA *)CYREG_PRT0_AG, CY_GET_REG8((void CYXDATA *)(CYREG_PRT0_AG)) | 0x80u);
 722              		.loc 1 357 0
 723 0076 204A     		ldr	r2, .L40+4
 724 0078 1F4B     		ldr	r3, .L40+4
 725 007a 1B78     		ldrb	r3, [r3]
 726 007c DBB2     		uxtb	r3, r3
 727 007e 63F07F03 		orn	r3, r3, #127
 728 0082 DBB2     		uxtb	r3, r3
 729 0084 1370     		strb	r3, [r2]
 358:Generated_Source\PSoC5/cyfitter_cfg.c **** 		break;
 730              		.loc 1 358 0
 731 0086 31E0     		b	.L29
 732              	.L33:
 359:Generated_Source\PSoC5/cyfitter_cfg.c **** 	case 1:
 360:Generated_Source\PSoC5/cyfitter_cfg.c **** 		CY_SET_REG8((void CYXDATA *)CYREG_PRT0_AG, CY_GET_REG8((void CYXDATA *)(CYREG_PRT0_AG)) & (uint8)
 733              		.loc 1 360 0
 734 0088 1B4A     		ldr	r2, .L40+4
 735 008a 1B4B     		ldr	r3, .L40+4
 736 008c 1B78     		ldrb	r3, [r3]
 737 008e DBB2     		uxtb	r3, r3
 738 0090 03F07F03 		and	r3, r3, #127
 739 0094 DBB2     		uxtb	r3, r3
 740 0096 1370     		strb	r3, [r2]
 361:Generated_Source\PSoC5/cyfitter_cfg.c **** 		CY_SET_REG8((void CYXDATA *)CYREG_PRT0_AG, CY_GET_REG8((void CYXDATA *)(CYREG_PRT0_AG)) | 0x20u);
 741              		.loc 1 361 0
 742 0098 174A     		ldr	r2, .L40+4
 743 009a 174B     		ldr	r3, .L40+4
 744 009c 1B78     		ldrb	r3, [r3]
 745 009e DBB2     		uxtb	r3, r3
 746 00a0 43F02003 		orr	r3, r3, #32
 747 00a4 DBB2     		uxtb	r3, r3
 748 00a6 1370     		strb	r3, [r2]
 362:Generated_Source\PSoC5/cyfitter_cfg.c **** 		CY_SET_REG8((void CYXDATA *)CYREG_DSM0_SW0, CY_GET_REG8((void CYXDATA *)(CYREG_DSM0_SW0)) | 0x20u
 749              		.loc 1 362 0
 750 00a8 144A     		ldr	r2, .L40+8
 751 00aa 144B     		ldr	r3, .L40+8
 752 00ac 1B78     		ldrb	r3, [r3]
 753 00ae DBB2     		uxtb	r3, r3
 754 00b0 43F02003 		orr	r3, r3, #32
 755 00b4 DBB2     		uxtb	r3, r3
 756 00b6 1370     		strb	r3, [r2]
 363:Generated_Source\PSoC5/cyfitter_cfg.c **** 		break;
 757              		.loc 1 363 0
 758 00b8 18E0     		b	.L29
 759              	.L34:
 364:Generated_Source\PSoC5/cyfitter_cfg.c **** 	case 2:
 365:Generated_Source\PSoC5/cyfitter_cfg.c **** 		CY_SET_REG8((void CYXDATA *)CYREG_PRT0_AG, CY_GET_REG8((void CYXDATA *)(CYREG_PRT0_AG)) & (uint8)
 760              		.loc 1 365 0
 761 00ba 0F4A     		ldr	r2, .L40+4
 762 00bc 0E4B     		ldr	r3, .L40+4
 763 00be 1B78     		ldrb	r3, [r3]
 764 00c0 DBB2     		uxtb	r3, r3
 765 00c2 23F02003 		bic	r3, r3, #32
 766 00c6 DBB2     		uxtb	r3, r3
 767 00c8 1370     		strb	r3, [r2]
 366:Generated_Source\PSoC5/cyfitter_cfg.c **** 		CY_SET_REG8((void CYXDATA *)CYREG_DSM0_SW0, CY_GET_REG8((void CYXDATA *)(CYREG_DSM0_SW0)) & (uint
 768              		.loc 1 366 0
ARM GAS  C:\Users\Keshuai\AppData\Local\Temp\cc9xpn9V.s 			page 21


 769 00ca 0C4A     		ldr	r2, .L40+8
 770 00cc 0B4B     		ldr	r3, .L40+8
 771 00ce 1B78     		ldrb	r3, [r3]
 772 00d0 DBB2     		uxtb	r3, r3
 773 00d2 23F02003 		bic	r3, r3, #32
 774 00d6 DBB2     		uxtb	r3, r3
 775 00d8 1370     		strb	r3, [r2]
 367:Generated_Source\PSoC5/cyfitter_cfg.c **** 		CY_SET_REG8((void CYXDATA *)CYREG_PRT0_AG, CY_GET_REG8((void CYXDATA *)(CYREG_PRT0_AG)) | 0x08u);
 776              		.loc 1 367 0
 777 00da 074A     		ldr	r2, .L40+4
 778 00dc 064B     		ldr	r3, .L40+4
 779 00de 1B78     		ldrb	r3, [r3]
 780 00e0 DBB2     		uxtb	r3, r3
 781 00e2 43F00803 		orr	r3, r3, #8
 782 00e6 DBB2     		uxtb	r3, r3
 783 00e8 1370     		strb	r3, [r2]
 368:Generated_Source\PSoC5/cyfitter_cfg.c **** 		break;
 784              		.loc 1 368 0
 785 00ea 00BF     		nop
 786              	.L29:
 369:Generated_Source\PSoC5/cyfitter_cfg.c **** 	}
 370:Generated_Source\PSoC5/cyfitter_cfg.c **** }
 787              		.loc 1 370 0
 788 00ec BD46     		mov	sp, r7
 789              		.cfi_def_cfa_register 13
 790              		@ sp needed
 791 00ee 5DF8047B 		ldr	r7, [sp], #4
 792              		.cfi_restore 7
 793              		.cfi_def_cfa_offset 0
 794 00f2 7047     		bx	lr
 795              	.L41:
 796              		.align	2
 797              	.L40:
 798 00f4 00000000 		.word	AMuxSeq_1_CYAMUXSIDE_A_curChannel
 799 00f8 0D510040 		.word	1073762573
 800 00fc 005B0040 		.word	1073765120
 801              		.cfi_endproc
 802              	.LFE9:
 803              		.size	AMuxSeq_1_CYAMUXSIDE_A_Next, .-AMuxSeq_1_CYAMUXSIDE_A_Next
 804              		.global	AMuxSeq_1_CYAMUXSIDE_B_curChannel
 805              		.data
 806              		.type	AMuxSeq_1_CYAMUXSIDE_B_curChannel, %object
 807              		.size	AMuxSeq_1_CYAMUXSIDE_B_curChannel, 1
 808              	AMuxSeq_1_CYAMUXSIDE_B_curChannel:
 809 0001 FF       		.byte	-1
 810              		.section	.text.AMuxSeq_1_CYAMUXSIDE_B_DisconnectAll,"ax",%progbits
 811              		.align	2
 812              		.global	AMuxSeq_1_CYAMUXSIDE_B_DisconnectAll
 813              		.thumb
 814              		.thumb_func
 815              		.type	AMuxSeq_1_CYAMUXSIDE_B_DisconnectAll, %function
 816              	AMuxSeq_1_CYAMUXSIDE_B_DisconnectAll:
 817              	.LFB10:
 371:Generated_Source\PSoC5/cyfitter_cfg.c **** 
 372:Generated_Source\PSoC5/cyfitter_cfg.c **** int8 AMuxSeq_1_CYAMUXSIDE_B_curChannel = -1;
 373:Generated_Source\PSoC5/cyfitter_cfg.c **** 
 374:Generated_Source\PSoC5/cyfitter_cfg.c **** void AMuxSeq_1_CYAMUXSIDE_B_DisconnectAll(void)
ARM GAS  C:\Users\Keshuai\AppData\Local\Temp\cc9xpn9V.s 			page 22


 375:Generated_Source\PSoC5/cyfitter_cfg.c **** {
 818              		.loc 1 375 0
 819              		.cfi_startproc
 820              		@ args = 0, pretend = 0, frame = 0
 821              		@ frame_needed = 1, uses_anonymous_args = 0
 822              		@ link register save eliminated.
 823 0000 80B4     		push	{r7}
 824              		.cfi_def_cfa_offset 4
 825              		.cfi_offset 7, -4
 826 0002 00AF     		add	r7, sp, #0
 827              		.cfi_def_cfa_register 7
 376:Generated_Source\PSoC5/cyfitter_cfg.c **** 	AMuxSeq_1_CYAMUXSIDE_B_curChannel = -1;
 828              		.loc 1 376 0
 829 0004 0B4B     		ldr	r3, .L43
 830 0006 FF22     		movs	r2, #255
 831 0008 1A70     		strb	r2, [r3]
 377:Generated_Source\PSoC5/cyfitter_cfg.c **** 	CY_SET_REG8((void CYXDATA *)CYREG_PRT0_AG, CY_GET_REG8((void CYXDATA *)(CYREG_PRT0_AG)) & (uint8)~
 832              		.loc 1 377 0
 833 000a 0B4A     		ldr	r2, .L43+4
 834 000c 0A4B     		ldr	r3, .L43+4
 835 000e 1B78     		ldrb	r3, [r3]
 836 0010 DBB2     		uxtb	r3, r3
 837 0012 23F05403 		bic	r3, r3, #84
 838 0016 DBB2     		uxtb	r3, r3
 839 0018 1370     		strb	r3, [r2]
 378:Generated_Source\PSoC5/cyfitter_cfg.c **** 	CY_SET_REG8((void CYXDATA *)CYREG_CMP0_SW0, CY_GET_REG8((void CYXDATA *)(CYREG_CMP0_SW0)) & (uint8
 840              		.loc 1 378 0
 841 001a 084A     		ldr	r2, .L43+8
 842 001c 074B     		ldr	r3, .L43+8
 843 001e 1B78     		ldrb	r3, [r3]
 844 0020 DBB2     		uxtb	r3, r3
 845 0022 23F01003 		bic	r3, r3, #16
 846 0026 DBB2     		uxtb	r3, r3
 847 0028 1370     		strb	r3, [r2]
 379:Generated_Source\PSoC5/cyfitter_cfg.c **** }
 848              		.loc 1 379 0
 849 002a BD46     		mov	sp, r7
 850              		.cfi_def_cfa_register 13
 851              		@ sp needed
 852 002c 5DF8047B 		ldr	r7, [sp], #4
 853              		.cfi_restore 7
 854              		.cfi_def_cfa_offset 0
 855 0030 7047     		bx	lr
 856              	.L44:
 857 0032 00BF     		.align	2
 858              	.L43:
 859 0034 00000000 		.word	AMuxSeq_1_CYAMUXSIDE_B_curChannel
 860 0038 0D510040 		.word	1073762573
 861 003c C05A0040 		.word	1073765056
 862              		.cfi_endproc
 863              	.LFE10:
 864              		.size	AMuxSeq_1_CYAMUXSIDE_B_DisconnectAll, .-AMuxSeq_1_CYAMUXSIDE_B_DisconnectAll
 865              		.section	.text.AMuxSeq_1_CYAMUXSIDE_B_Next,"ax",%progbits
 866              		.align	2
 867              		.global	AMuxSeq_1_CYAMUXSIDE_B_Next
 868              		.thumb
 869              		.thumb_func
ARM GAS  C:\Users\Keshuai\AppData\Local\Temp\cc9xpn9V.s 			page 23


 870              		.type	AMuxSeq_1_CYAMUXSIDE_B_Next, %function
 871              	AMuxSeq_1_CYAMUXSIDE_B_Next:
 872              	.LFB11:
 380:Generated_Source\PSoC5/cyfitter_cfg.c **** 
 381:Generated_Source\PSoC5/cyfitter_cfg.c **** #if defined(__C51__) || defined(__CX51__)
 382:Generated_Source\PSoC5/cyfitter_cfg.c ****     #pragma OT(5, SPEED)
 383:Generated_Source\PSoC5/cyfitter_cfg.c **** #endif
 384:Generated_Source\PSoC5/cyfitter_cfg.c **** void AMuxSeq_1_CYAMUXSIDE_B_Next(void)
 385:Generated_Source\PSoC5/cyfitter_cfg.c **** {
 873              		.loc 1 385 0
 874              		.cfi_startproc
 875              		@ args = 0, pretend = 0, frame = 0
 876              		@ frame_needed = 1, uses_anonymous_args = 0
 877              		@ link register save eliminated.
 878 0000 80B4     		push	{r7}
 879              		.cfi_def_cfa_offset 4
 880              		.cfi_offset 7, -4
 881 0002 00AF     		add	r7, sp, #0
 882              		.cfi_def_cfa_register 7
 386:Generated_Source\PSoC5/cyfitter_cfg.c **** 	AMuxSeq_1_CYAMUXSIDE_B_curChannel++;
 883              		.loc 1 386 0
 884 0004 3B4B     		ldr	r3, .L56
 885 0006 1B78     		ldrb	r3, [r3]	@ zero_extendqisi2
 886 0008 DBB2     		uxtb	r3, r3
 887 000a DBB2     		uxtb	r3, r3
 888 000c 0133     		adds	r3, r3, #1
 889 000e DBB2     		uxtb	r3, r3
 890 0010 DAB2     		uxtb	r2, r3
 891 0012 384B     		ldr	r3, .L56
 892 0014 1A70     		strb	r2, [r3]
 387:Generated_Source\PSoC5/cyfitter_cfg.c **** 	switch (AMuxSeq_1_CYAMUXSIDE_B_curChannel)
 893              		.loc 1 387 0
 894 0016 374B     		ldr	r3, .L56
 895 0018 1B78     		ldrb	r3, [r3]	@ zero_extendqisi2
 896 001a 5BB2     		sxtb	r3, r3
 897 001c 072B     		cmp	r3, #7
 898 001e 1FD8     		bhi	.L46
 899 0020 01A2     		adr	r2, .L48
 900 0022 52F823F0 		ldr	pc, [r2, r3, lsl #2]
 901 0026 00BF     		.p2align 2
 902              	.L48:
 903 0028 67000000 		.word	.L47+1
 904 002c 89000000 		.word	.L49+1
 905 0030 BB000000 		.word	.L50+1
 906 0034 61000000 		.word	.L46+1
 907 0038 49000000 		.word	.L51+1
 908 003c 4F000000 		.word	.L52+1
 909 0040 55000000 		.word	.L53+1
 910 0044 5B000000 		.word	.L54+1
 911              		.p2align 1
 912              	.L51:
 388:Generated_Source\PSoC5/cyfitter_cfg.c **** 	{
 389:Generated_Source\PSoC5/cyfitter_cfg.c **** 	case 4: /* to force jump table (not executed) */
 390:Generated_Source\PSoC5/cyfitter_cfg.c **** 		AMuxSeq_1_CYAMUXSIDE_B_curChannel = 4;
 913              		.loc 1 390 0
 914 0048 2A4B     		ldr	r3, .L56
 915 004a 0422     		movs	r2, #4
ARM GAS  C:\Users\Keshuai\AppData\Local\Temp\cc9xpn9V.s 			page 24


 916 004c 1A70     		strb	r2, [r3]
 917              	.L52:
 391:Generated_Source\PSoC5/cyfitter_cfg.c **** 	case 5: /* to force jump table (not executed) */
 392:Generated_Source\PSoC5/cyfitter_cfg.c **** 		AMuxSeq_1_CYAMUXSIDE_B_curChannel = 5;
 918              		.loc 1 392 0
 919 004e 294B     		ldr	r3, .L56
 920 0050 0522     		movs	r2, #5
 921 0052 1A70     		strb	r2, [r3]
 922              	.L53:
 393:Generated_Source\PSoC5/cyfitter_cfg.c **** 	case 6: /* to force jump table (not executed) */
 394:Generated_Source\PSoC5/cyfitter_cfg.c **** 		AMuxSeq_1_CYAMUXSIDE_B_curChannel = 6;
 923              		.loc 1 394 0
 924 0054 274B     		ldr	r3, .L56
 925 0056 0622     		movs	r2, #6
 926 0058 1A70     		strb	r2, [r3]
 927              	.L54:
 395:Generated_Source\PSoC5/cyfitter_cfg.c **** 	case 7: /* to force jump table (not executed) */
 396:Generated_Source\PSoC5/cyfitter_cfg.c **** 		AMuxSeq_1_CYAMUXSIDE_B_curChannel = 7;
 928              		.loc 1 396 0
 929 005a 264B     		ldr	r3, .L56
 930 005c 0722     		movs	r2, #7
 931 005e 1A70     		strb	r2, [r3]
 932              	.L46:
 397:Generated_Source\PSoC5/cyfitter_cfg.c **** 	case 3:
 398:Generated_Source\PSoC5/cyfitter_cfg.c **** 	default:
 399:Generated_Source\PSoC5/cyfitter_cfg.c **** 		AMuxSeq_1_CYAMUXSIDE_B_curChannel = 0;
 933              		.loc 1 399 0
 934 0060 244B     		ldr	r3, .L56
 935 0062 0022     		movs	r2, #0
 936 0064 1A70     		strb	r2, [r3]
 937              	.L47:
 400:Generated_Source\PSoC5/cyfitter_cfg.c **** 	case 0:
 401:Generated_Source\PSoC5/cyfitter_cfg.c **** 		CY_SET_REG8((void CYXDATA *)CYREG_PRT0_AG, CY_GET_REG8((void CYXDATA *)(CYREG_PRT0_AG)) & (uint8)
 938              		.loc 1 401 0
 939 0066 244A     		ldr	r2, .L56+4
 940 0068 234B     		ldr	r3, .L56+4
 941 006a 1B78     		ldrb	r3, [r3]
 942 006c DBB2     		uxtb	r3, r3
 943 006e 23F00403 		bic	r3, r3, #4
 944 0072 DBB2     		uxtb	r3, r3
 945 0074 1370     		strb	r3, [r2]
 402:Generated_Source\PSoC5/cyfitter_cfg.c **** 		CY_SET_REG8((void CYXDATA *)CYREG_PRT0_AG, CY_GET_REG8((void CYXDATA *)(CYREG_PRT0_AG)) | 0x40u);
 946              		.loc 1 402 0
 947 0076 204A     		ldr	r2, .L56+4
 948 0078 1F4B     		ldr	r3, .L56+4
 949 007a 1B78     		ldrb	r3, [r3]
 950 007c DBB2     		uxtb	r3, r3
 951 007e 43F04003 		orr	r3, r3, #64
 952 0082 DBB2     		uxtb	r3, r3
 953 0084 1370     		strb	r3, [r2]
 403:Generated_Source\PSoC5/cyfitter_cfg.c **** 		break;
 954              		.loc 1 403 0
 955 0086 31E0     		b	.L45
 956              	.L49:
 404:Generated_Source\PSoC5/cyfitter_cfg.c **** 	case 1:
 405:Generated_Source\PSoC5/cyfitter_cfg.c **** 		CY_SET_REG8((void CYXDATA *)CYREG_PRT0_AG, CY_GET_REG8((void CYXDATA *)(CYREG_PRT0_AG)) & (uint8)
 957              		.loc 1 405 0
ARM GAS  C:\Users\Keshuai\AppData\Local\Temp\cc9xpn9V.s 			page 25


 958 0088 1B4A     		ldr	r2, .L56+4
 959 008a 1B4B     		ldr	r3, .L56+4
 960 008c 1B78     		ldrb	r3, [r3]
 961 008e DBB2     		uxtb	r3, r3
 962 0090 23F04003 		bic	r3, r3, #64
 963 0094 DBB2     		uxtb	r3, r3
 964 0096 1370     		strb	r3, [r2]
 406:Generated_Source\PSoC5/cyfitter_cfg.c **** 		CY_SET_REG8((void CYXDATA *)CYREG_PRT0_AG, CY_GET_REG8((void CYXDATA *)(CYREG_PRT0_AG)) | 0x10u);
 965              		.loc 1 406 0
 966 0098 174A     		ldr	r2, .L56+4
 967 009a 174B     		ldr	r3, .L56+4
 968 009c 1B78     		ldrb	r3, [r3]
 969 009e DBB2     		uxtb	r3, r3
 970 00a0 43F01003 		orr	r3, r3, #16
 971 00a4 DBB2     		uxtb	r3, r3
 972 00a6 1370     		strb	r3, [r2]
 407:Generated_Source\PSoC5/cyfitter_cfg.c **** 		CY_SET_REG8((void CYXDATA *)CYREG_CMP0_SW0, CY_GET_REG8((void CYXDATA *)(CYREG_CMP0_SW0)) | 0x10u
 973              		.loc 1 407 0
 974 00a8 144A     		ldr	r2, .L56+8
 975 00aa 144B     		ldr	r3, .L56+8
 976 00ac 1B78     		ldrb	r3, [r3]
 977 00ae DBB2     		uxtb	r3, r3
 978 00b0 43F01003 		orr	r3, r3, #16
 979 00b4 DBB2     		uxtb	r3, r3
 980 00b6 1370     		strb	r3, [r2]
 408:Generated_Source\PSoC5/cyfitter_cfg.c **** 		break;
 981              		.loc 1 408 0
 982 00b8 18E0     		b	.L45
 983              	.L50:
 409:Generated_Source\PSoC5/cyfitter_cfg.c **** 	case 2:
 410:Generated_Source\PSoC5/cyfitter_cfg.c **** 		CY_SET_REG8((void CYXDATA *)CYREG_PRT0_AG, CY_GET_REG8((void CYXDATA *)(CYREG_PRT0_AG)) & (uint8)
 984              		.loc 1 410 0
 985 00ba 0F4A     		ldr	r2, .L56+4
 986 00bc 0E4B     		ldr	r3, .L56+4
 987 00be 1B78     		ldrb	r3, [r3]
 988 00c0 DBB2     		uxtb	r3, r3
 989 00c2 23F01003 		bic	r3, r3, #16
 990 00c6 DBB2     		uxtb	r3, r3
 991 00c8 1370     		strb	r3, [r2]
 411:Generated_Source\PSoC5/cyfitter_cfg.c **** 		CY_SET_REG8((void CYXDATA *)CYREG_CMP0_SW0, CY_GET_REG8((void CYXDATA *)(CYREG_CMP0_SW0)) & (uint
 992              		.loc 1 411 0
 993 00ca 0C4A     		ldr	r2, .L56+8
 994 00cc 0B4B     		ldr	r3, .L56+8
 995 00ce 1B78     		ldrb	r3, [r3]
 996 00d0 DBB2     		uxtb	r3, r3
 997 00d2 23F01003 		bic	r3, r3, #16
 998 00d6 DBB2     		uxtb	r3, r3
 999 00d8 1370     		strb	r3, [r2]
 412:Generated_Source\PSoC5/cyfitter_cfg.c **** 		CY_SET_REG8((void CYXDATA *)CYREG_PRT0_AG, CY_GET_REG8((void CYXDATA *)(CYREG_PRT0_AG)) | 0x04u);
 1000              		.loc 1 412 0
 1001 00da 074A     		ldr	r2, .L56+4
 1002 00dc 064B     		ldr	r3, .L56+4
 1003 00de 1B78     		ldrb	r3, [r3]
 1004 00e0 DBB2     		uxtb	r3, r3
 1005 00e2 43F00403 		orr	r3, r3, #4
 1006 00e6 DBB2     		uxtb	r3, r3
 1007 00e8 1370     		strb	r3, [r2]
ARM GAS  C:\Users\Keshuai\AppData\Local\Temp\cc9xpn9V.s 			page 26


 413:Generated_Source\PSoC5/cyfitter_cfg.c **** 		break;
 1008              		.loc 1 413 0
 1009 00ea 00BF     		nop
 1010              	.L45:
 414:Generated_Source\PSoC5/cyfitter_cfg.c **** 	}
 415:Generated_Source\PSoC5/cyfitter_cfg.c **** }
 1011              		.loc 1 415 0
 1012 00ec BD46     		mov	sp, r7
 1013              		.cfi_def_cfa_register 13
 1014              		@ sp needed
 1015 00ee 5DF8047B 		ldr	r7, [sp], #4
 1016              		.cfi_restore 7
 1017              		.cfi_def_cfa_offset 0
 1018 00f2 7047     		bx	lr
 1019              	.L57:
 1020              		.align	2
 1021              	.L56:
 1022 00f4 00000000 		.word	AMuxSeq_1_CYAMUXSIDE_B_curChannel
 1023 00f8 0D510040 		.word	1073762573
 1024 00fc C05A0040 		.word	1073765056
 1025              		.cfi_endproc
 1026              	.LFE11:
 1027              		.size	AMuxSeq_1_CYAMUXSIDE_B_Next, .-AMuxSeq_1_CYAMUXSIDE_B_Next
 1028              		.section	.text.cyfitter_cfg,"ax",%progbits
 1029              		.align	2
 1030              		.global	cyfitter_cfg
 1031              		.thumb
 1032              		.thumb_func
 1033              		.type	cyfitter_cfg, %function
 1034              	cyfitter_cfg:
 1035              	.LFB12:
 416:Generated_Source\PSoC5/cyfitter_cfg.c **** 
 417:Generated_Source\PSoC5/cyfitter_cfg.c **** 
 418:Generated_Source\PSoC5/cyfitter_cfg.c **** 
 419:Generated_Source\PSoC5/cyfitter_cfg.c **** /*******************************************************************************
 420:Generated_Source\PSoC5/cyfitter_cfg.c **** * Function Name: cyfitter_cfg
 421:Generated_Source\PSoC5/cyfitter_cfg.c **** ********************************************************************************
 422:Generated_Source\PSoC5/cyfitter_cfg.c **** * Summary:
 423:Generated_Source\PSoC5/cyfitter_cfg.c **** *  This function is called by the start-up code for the selected device. It
 424:Generated_Source\PSoC5/cyfitter_cfg.c **** *  performs all of the necessary device configuration based on the design
 425:Generated_Source\PSoC5/cyfitter_cfg.c **** *  settings.  This includes settings from the Design Wide Resources (DWR) such
 426:Generated_Source\PSoC5/cyfitter_cfg.c **** *  as Clocks and Pins as well as any component configuration that is necessary.
 427:Generated_Source\PSoC5/cyfitter_cfg.c **** *
 428:Generated_Source\PSoC5/cyfitter_cfg.c **** * Parameters:  
 429:Generated_Source\PSoC5/cyfitter_cfg.c **** *   void
 430:Generated_Source\PSoC5/cyfitter_cfg.c **** *
 431:Generated_Source\PSoC5/cyfitter_cfg.c **** * Return:
 432:Generated_Source\PSoC5/cyfitter_cfg.c **** *   void
 433:Generated_Source\PSoC5/cyfitter_cfg.c **** *
 434:Generated_Source\PSoC5/cyfitter_cfg.c **** *******************************************************************************/
 435:Generated_Source\PSoC5/cyfitter_cfg.c **** 
 436:Generated_Source\PSoC5/cyfitter_cfg.c **** void cyfitter_cfg(void)
 437:Generated_Source\PSoC5/cyfitter_cfg.c **** {
 1036              		.loc 1 437 0
 1037              		.cfi_startproc
 1038              		@ args = 0, pretend = 0, frame = 8
 1039              		@ frame_needed = 1, uses_anonymous_args = 0
ARM GAS  C:\Users\Keshuai\AppData\Local\Temp\cc9xpn9V.s 			page 27


 1040 0000 80B5     		push	{r7, lr}
 1041              		.cfi_def_cfa_offset 8
 1042              		.cfi_offset 7, -8
 1043              		.cfi_offset 14, -4
 1044 0002 82B0     		sub	sp, sp, #8
 1045              		.cfi_def_cfa_offset 16
 1046 0004 00AF     		add	r7, sp, #0
 1047              		.cfi_def_cfa_register 7
 438:Generated_Source\PSoC5/cyfitter_cfg.c **** #ifdef CYGlobalIntDisable
 439:Generated_Source\PSoC5/cyfitter_cfg.c **** 	/* Disable interrupts by default. Let user enable if/when they want. */
 440:Generated_Source\PSoC5/cyfitter_cfg.c **** 	CYGlobalIntDisable
 1048              		.loc 1 440 0
 1049              	@ 440 "Generated_Source\PSoC5\cyfitter_cfg.c" 1
 1050 0006 72B6     		CPSID   i
 1051              	@ 0 "" 2
 441:Generated_Source\PSoC5/cyfitter_cfg.c **** #endif
 442:Generated_Source\PSoC5/cyfitter_cfg.c **** 
 443:Generated_Source\PSoC5/cyfitter_cfg.c **** 
 444:Generated_Source\PSoC5/cyfitter_cfg.c **** 	/* Set Flash Cycles based on max possible frequency in case a glitch occurs during ClockSetup(). *
 445:Generated_Source\PSoC5/cyfitter_cfg.c **** 	CY_SET_XTND_REG8((void CYFAR *)(CYREG_CACHE_CC_CTL), (((CYDEV_INSTRUCT_CACHE_ENABLED) != 0) ? 0x61
 1052              		.loc 1 445 0
 1053              		.thumb
 1054 0008 374B     		ldr	r3, .L61
 1055 000a 6022     		movs	r2, #96
 1056 000c 1A70     		strb	r2, [r3]
 446:Generated_Source\PSoC5/cyfitter_cfg.c **** 	/* Setup clocks based on selections from Clock DWR */
 447:Generated_Source\PSoC5/cyfitter_cfg.c **** 	ClockSetup();
 1057              		.loc 1 447 0
 1058 000e FFF7FEFF 		bl	ClockSetup
 448:Generated_Source\PSoC5/cyfitter_cfg.c **** 	/* Enable/Disable Debug functionality based on settings from System DWR */
 449:Generated_Source\PSoC5/cyfitter_cfg.c **** 	CY_SET_XTND_REG8((void CYFAR *)CYREG_MLOGIC_DEBUG, (CY_GET_XTND_REG8((void CYFAR *)CYREG_MLOGIC_DE
 1059              		.loc 1 449 0
 1060 0012 364A     		ldr	r2, .L61+4
 1061 0014 354B     		ldr	r3, .L61+4
 1062 0016 1B78     		ldrb	r3, [r3]
 1063 0018 DBB2     		uxtb	r3, r3
 1064 001a 43F00403 		orr	r3, r3, #4
 1065 001e DBB2     		uxtb	r3, r3
 1066 0020 1370     		strb	r3, [r2]
 1067              	.LBB3:
 450:Generated_Source\PSoC5/cyfitter_cfg.c **** 
 451:Generated_Source\PSoC5/cyfitter_cfg.c **** 	{
 452:Generated_Source\PSoC5/cyfitter_cfg.c **** 
 453:Generated_Source\PSoC5/cyfitter_cfg.c **** 		CYPACKED typedef struct {
 454:Generated_Source\PSoC5/cyfitter_cfg.c **** 			void CYFAR *address;
 455:Generated_Source\PSoC5/cyfitter_cfg.c **** 			uint16 size;
 456:Generated_Source\PSoC5/cyfitter_cfg.c **** 		} CYPACKED_ATTR cfg_memset_t;
 457:Generated_Source\PSoC5/cyfitter_cfg.c **** 
 458:Generated_Source\PSoC5/cyfitter_cfg.c **** 		static const cfg_memset_t CYCODE cfg_memset_list [] = {
 459:Generated_Source\PSoC5/cyfitter_cfg.c **** 			/* address, size */
 460:Generated_Source\PSoC5/cyfitter_cfg.c **** 			{(void CYFAR *)(CYREG_PRT2_DR), 80u},
 461:Generated_Source\PSoC5/cyfitter_cfg.c **** 			{(void CYFAR *)(CYREG_PRT12_DR), 16u},
 462:Generated_Source\PSoC5/cyfitter_cfg.c **** 			{(void CYFAR *)(CYDEV_UCFG_B0_P0_U0_BASE), 4096u},
 463:Generated_Source\PSoC5/cyfitter_cfg.c **** 			{(void CYFAR *)(CYDEV_UCFG_B1_P2_U0_BASE), 2048u},
 464:Generated_Source\PSoC5/cyfitter_cfg.c **** 			{(void CYFAR *)(CYDEV_UCFG_DSI0_BASE), 2560u},
 465:Generated_Source\PSoC5/cyfitter_cfg.c **** 			{(void CYFAR *)(CYDEV_UCFG_DSI12_BASE), 512u},
 466:Generated_Source\PSoC5/cyfitter_cfg.c **** 			{(void CYFAR *)(CYREG_BCTL0_MDCLK_EN), 32u},
ARM GAS  C:\Users\Keshuai\AppData\Local\Temp\cc9xpn9V.s 			page 28


 467:Generated_Source\PSoC5/cyfitter_cfg.c **** 		};
 468:Generated_Source\PSoC5/cyfitter_cfg.c **** 
 469:Generated_Source\PSoC5/cyfitter_cfg.c **** 		uint8 CYDATA i;
 470:Generated_Source\PSoC5/cyfitter_cfg.c **** 
 471:Generated_Source\PSoC5/cyfitter_cfg.c **** 		/* Zero out critical memory blocks before beginning configuration */
 472:Generated_Source\PSoC5/cyfitter_cfg.c **** 		for (i = 0u; i < (sizeof(cfg_memset_list)/sizeof(cfg_memset_list[0])); i++)
 1068              		.loc 1 472 0
 1069 0022 0023     		movs	r3, #0
 1070 0024 FB71     		strb	r3, [r7, #7]
 1071 0026 13E0     		b	.L59
 1072              	.L60:
 1073              	.LBB4:
 473:Generated_Source\PSoC5/cyfitter_cfg.c **** 		{
 474:Generated_Source\PSoC5/cyfitter_cfg.c **** 			const cfg_memset_t CYCODE * CYDATA ms = &cfg_memset_list[i];
 1074              		.loc 1 474 0 discriminator 3
 1075 0028 FA79     		ldrb	r2, [r7, #7]	@ zero_extendqisi2
 1076 002a 1346     		mov	r3, r2
 1077 002c 5B00     		lsls	r3, r3, #1
 1078 002e 1344     		add	r3, r3, r2
 1079 0030 5B00     		lsls	r3, r3, #1
 1080 0032 2F4A     		ldr	r2, .L61+8
 1081 0034 1344     		add	r3, r3, r2
 1082 0036 3B60     		str	r3, [r7]
 475:Generated_Source\PSoC5/cyfitter_cfg.c **** 			CYMEMZERO(ms->address, (size_t)(uint32)(ms->size));
 1083              		.loc 1 475 0 discriminator 3
 1084 0038 3B68     		ldr	r3, [r7]
 1085 003a 1A68     		ldr	r2, [r3]	@ unaligned
 1086 003c 3B68     		ldr	r3, [r7]
 1087 003e 9B88     		ldrh	r3, [r3, #4]	@ unaligned
 1088 0040 9BB2     		uxth	r3, r3
 1089 0042 1046     		mov	r0, r2
 1090 0044 1946     		mov	r1, r3
 1091 0046 FFF7FEFF 		bl	CYMEMZERO
 1092              	.LBE4:
 472:Generated_Source\PSoC5/cyfitter_cfg.c **** 		{
 1093              		.loc 1 472 0 discriminator 3
 1094 004a FB79     		ldrb	r3, [r7, #7]	@ zero_extendqisi2
 1095 004c 0133     		adds	r3, r3, #1
 1096 004e FB71     		strb	r3, [r7, #7]
 1097              	.L59:
 472:Generated_Source\PSoC5/cyfitter_cfg.c **** 		{
 1098              		.loc 1 472 0 is_stmt 0 discriminator 1
 1099 0050 FB79     		ldrb	r3, [r7, #7]	@ zero_extendqisi2
 1100 0052 062B     		cmp	r3, #6
 1101 0054 E8D9     		bls	.L60
 476:Generated_Source\PSoC5/cyfitter_cfg.c **** 		}
 477:Generated_Source\PSoC5/cyfitter_cfg.c **** 
 478:Generated_Source\PSoC5/cyfitter_cfg.c **** 		cfg_write_bytes32(cy_cfg_addr_table, cy_cfg_data_table);
 1102              		.loc 1 478 0 is_stmt 1
 1103 0056 4FF09040 		mov	r0, #1207959552
 1104 005a 2649     		ldr	r1, .L61+12
 1105 005c FFF7FEFF 		bl	cfg_write_bytes32
 479:Generated_Source\PSoC5/cyfitter_cfg.c **** 
 480:Generated_Source\PSoC5/cyfitter_cfg.c **** 		/* Perform normal device configuration. Order is not critical for these items. */
 481:Generated_Source\PSoC5/cyfitter_cfg.c **** 		CY_SET_XTND_REG8((void CYFAR *)(CYREG_DSM0_CR3), 0x0Au);
 1106              		.loc 1 481 0
 1107 0060 254B     		ldr	r3, .L61+16
ARM GAS  C:\Users\Keshuai\AppData\Local\Temp\cc9xpn9V.s 			page 29


 1108 0062 0A22     		movs	r2, #10
 1109 0064 1A70     		strb	r2, [r3]
 482:Generated_Source\PSoC5/cyfitter_cfg.c **** 
 483:Generated_Source\PSoC5/cyfitter_cfg.c **** 		/* Enable digital routing */
 484:Generated_Source\PSoC5/cyfitter_cfg.c **** 		CY_SET_XTND_REG8((void CYFAR *)CYREG_BCTL0_BANK_CTL, CY_GET_XTND_REG8((void CYFAR *)CYREG_BCTL0_B
 1110              		.loc 1 484 0
 1111 0066 254A     		ldr	r2, .L61+20
 1112 0068 244B     		ldr	r3, .L61+20
 1113 006a 1B78     		ldrb	r3, [r3]
 1114 006c DBB2     		uxtb	r3, r3
 1115 006e 43F00203 		orr	r3, r3, #2
 1116 0072 DBB2     		uxtb	r3, r3
 1117 0074 1370     		strb	r3, [r2]
 485:Generated_Source\PSoC5/cyfitter_cfg.c **** 		CY_SET_XTND_REG8((void CYFAR *)CYREG_BCTL1_BANK_CTL, CY_GET_XTND_REG8((void CYFAR *)CYREG_BCTL1_B
 1118              		.loc 1 485 0
 1119 0076 224A     		ldr	r2, .L61+24
 1120 0078 214B     		ldr	r3, .L61+24
 1121 007a 1B78     		ldrb	r3, [r3]
 1122 007c DBB2     		uxtb	r3, r3
 1123 007e 43F00203 		orr	r3, r3, #2
 1124 0082 DBB2     		uxtb	r3, r3
 1125 0084 1370     		strb	r3, [r2]
 486:Generated_Source\PSoC5/cyfitter_cfg.c **** 
 487:Generated_Source\PSoC5/cyfitter_cfg.c **** 		/* Enable UDB array */
 488:Generated_Source\PSoC5/cyfitter_cfg.c **** 		CY_SET_XTND_REG8((void CYFAR *)CYREG_PM_ACT_CFG0, CY_GET_XTND_REG8((void CYFAR *)CYREG_PM_ACT_CFG
 1126              		.loc 1 488 0
 1127 0086 1F4A     		ldr	r2, .L61+28
 1128 0088 1E4B     		ldr	r3, .L61+28
 1129 008a 1B78     		ldrb	r3, [r3]
 1130 008c DBB2     		uxtb	r3, r3
 1131 008e 43F04003 		orr	r3, r3, #64
 1132 0092 DBB2     		uxtb	r3, r3
 1133 0094 1370     		strb	r3, [r2]
 489:Generated_Source\PSoC5/cyfitter_cfg.c **** 		CY_SET_XTND_REG8((void CYFAR *)CYREG_PM_AVAIL_CR2, CY_GET_XTND_REG8((void CYFAR *)CYREG_PM_AVAIL_
 1134              		.loc 1 489 0
 1135 0096 1C4A     		ldr	r2, .L61+32
 1136 0098 1B4B     		ldr	r3, .L61+32
 1137 009a 1B78     		ldrb	r3, [r3]
 1138 009c DBB2     		uxtb	r3, r3
 1139 009e 43F01003 		orr	r3, r3, #16
 1140 00a2 DBB2     		uxtb	r3, r3
 1141 00a4 1370     		strb	r3, [r2]
 1142              	.LBE3:
 490:Generated_Source\PSoC5/cyfitter_cfg.c **** 	}
 491:Generated_Source\PSoC5/cyfitter_cfg.c **** 
 492:Generated_Source\PSoC5/cyfitter_cfg.c **** 
 493:Generated_Source\PSoC5/cyfitter_cfg.c **** 	/* Perform second pass device configuration. These items must be configured in specific order afte
 494:Generated_Source\PSoC5/cyfitter_cfg.c **** 	CYCONFIGCPY((void CYFAR *)(CYREG_PRT0_DM0), (const void CYFAR *)(BS_IOPINS0_0_VAL), 8u);
 1143              		.loc 1 494 0
 1144 00a6 1948     		ldr	r0, .L61+36
 1145 00a8 1949     		ldr	r1, .L61+40
 1146 00aa 0822     		movs	r2, #8
 1147 00ac FFF7FEFF 		bl	CYCONFIGCPY
 495:Generated_Source\PSoC5/cyfitter_cfg.c **** 	CYCONFIGCPY((void CYFAR *)(CYREG_PRT15_DR), (const void CYFAR *)(BS_IOPINS0_8_VAL), 10u);
 1148              		.loc 1 495 0
 1149 00b0 1848     		ldr	r0, .L61+44
 1150 00b2 1949     		ldr	r1, .L61+48
ARM GAS  C:\Users\Keshuai\AppData\Local\Temp\cc9xpn9V.s 			page 30


 1151 00b4 0A22     		movs	r2, #10
 1152 00b6 FFF7FEFF 		bl	CYCONFIGCPY
 496:Generated_Source\PSoC5/cyfitter_cfg.c **** 	CYCONFIGCPY((void CYFAR *)(CYREG_PRT1_DM0), (const void CYFAR *)(BS_IOPINS0_1_VAL), 8u);
 1153              		.loc 1 496 0
 1154 00ba 1848     		ldr	r0, .L61+52
 1155 00bc 1849     		ldr	r1, .L61+56
 1156 00be 0822     		movs	r2, #8
 1157 00c0 FFF7FEFF 		bl	CYCONFIGCPY
 497:Generated_Source\PSoC5/cyfitter_cfg.c **** 	/* Switch Boost to the precision bandgap reference from its internal reference */
 498:Generated_Source\PSoC5/cyfitter_cfg.c **** 	CY_SET_REG8((void CYXDATA *)CYREG_BOOST_CR2, (CY_GET_REG8((void CYXDATA *)CYREG_BOOST_CR2) | 0x08u
 1158              		.loc 1 498 0
 1159 00c4 174A     		ldr	r2, .L61+60
 1160 00c6 174B     		ldr	r3, .L61+60
 1161 00c8 1B78     		ldrb	r3, [r3]
 1162 00ca DBB2     		uxtb	r3, r3
 1163 00cc 43F00803 		orr	r3, r3, #8
 1164 00d0 DBB2     		uxtb	r3, r3
 1165 00d2 1370     		strb	r3, [r2]
 499:Generated_Source\PSoC5/cyfitter_cfg.c **** 
 500:Generated_Source\PSoC5/cyfitter_cfg.c **** 	/* Perform basic analog initialization to defaults */
 501:Generated_Source\PSoC5/cyfitter_cfg.c **** 	AnalogSetDefault();
 1166              		.loc 1 501 0
 1167 00d4 FFF7FEFF 		bl	AnalogSetDefault
 502:Generated_Source\PSoC5/cyfitter_cfg.c **** 
 503:Generated_Source\PSoC5/cyfitter_cfg.c **** 	/* Configure alternate active mode */
 504:Generated_Source\PSoC5/cyfitter_cfg.c **** 	CYCONFIGCPY((void CYFAR *)CYDEV_PM_STBY_BASE, (const void CYFAR *)CYDEV_PM_ACT_BASE, 14u);
 1168              		.loc 1 504 0
 1169 00d8 1348     		ldr	r0, .L61+64
 1170 00da 0A49     		ldr	r1, .L61+28
 1171 00dc 0E22     		movs	r2, #14
 1172 00de FFF7FEFF 		bl	CYCONFIGCPY
 505:Generated_Source\PSoC5/cyfitter_cfg.c **** }
 1173              		.loc 1 505 0
 1174 00e2 0837     		adds	r7, r7, #8
 1175              		.cfi_def_cfa_offset 8
 1176 00e4 BD46     		mov	sp, r7
 1177              		.cfi_def_cfa_register 13
 1178              		@ sp needed
 1179 00e6 80BD     		pop	{r7, pc}
 1180              	.L62:
 1181              		.align	2
 1182              	.L61:
 1183 00e8 00480040 		.word	1073760256
 1184 00ec E8460040 		.word	1073759976
 1185 00f0 00000000 		.word	cfg_memset_list.4924
 1186 00f4 5C000048 		.word	1207959644
 1187 00f8 83580040 		.word	1073764483
 1188 00fc 03500140 		.word	1073827843
 1189 0100 13500140 		.word	1073827859
 1190 0104 A0430040 		.word	1073759136
 1191 0108 C2430040 		.word	1073759170
 1192 010c 02510040 		.word	1073762562
 1193 0110 C0000048 		.word	1207959744
 1194 0114 F0510040 		.word	1073762800
 1195 0118 C8000048 		.word	1207959752
 1196 011c 12510040 		.word	1073762578
 1197 0120 D4000048 		.word	1207959764
ARM GAS  C:\Users\Keshuai\AppData\Local\Temp\cc9xpn9V.s 			page 31


 1198 0124 22430040 		.word	1073759010
 1199 0128 B0430040 		.word	1073759152
 1200              		.cfi_endproc
 1201              	.LFE12:
 1202              		.size	cyfitter_cfg, .-cyfitter_cfg
 1203              		.section	.rodata
 1204              		.align	2
 1205              		.type	cfg_memset_list.4924, %object
 1206              		.size	cfg_memset_list.4924, 42
 1207              	cfg_memset_list.4924:
 1208 0000 20510040 		.word	1073762592
 1209 0004 5000     		.short	80
 1210 0006 C0510040 		.4byte	1073762752
 1211 000a 1000     		.short	16
 1212 000c 00000140 		.word	1073807360
 1213 0010 0010     		.short	4096
 1214 0012 00140140 		.4byte	1073812480
 1215 0016 0008     		.short	2048
 1216 0018 00400140 		.word	1073823744
 1217 001c 000A     		.short	2560
 1218 001e 004C0140 		.4byte	1073826816
 1219 0022 0002     		.short	512
 1220 0024 00500140 		.word	1073827840
 1221 0028 2000     		.short	32
 1222 002a 0000     		.text
 1223              	.Letext0:
 1224              		.file 2 "c:\\program files (x86)\\cypress\\psoc creator\\4.0\\psoc creator\\import\\gnu\\arm\\4.9.
 1225              		.file 3 "Generated_Source\\PSoC5\\cytypes.h"
 1226              		.section	.debug_info,"",%progbits
 1227              	.Ldebug_info0:
 1228 0000 0B040000 		.4byte	0x40b
 1229 0004 0400     		.2byte	0x4
 1230 0006 00000000 		.4byte	.Ldebug_abbrev0
 1231 000a 04       		.byte	0x4
 1232 000b 01       		.uleb128 0x1
 1233 000c CE010000 		.4byte	.LASF53
 1234 0010 01       		.byte	0x1
 1235 0011 1E000000 		.4byte	.LASF54
 1236 0015 86000000 		.4byte	.LASF55
 1237 0019 00000000 		.4byte	.Ldebug_ranges0+0
 1238 001d 00000000 		.4byte	0
 1239 0021 00000000 		.4byte	.Ldebug_line0
 1240 0025 02       		.uleb128 0x2
 1241 0026 04       		.byte	0x4
 1242 0027 05       		.byte	0x5
 1243 0028 696E7400 		.ascii	"int\000"
 1244 002c 03       		.uleb128 0x3
 1245 002d 06000000 		.4byte	.LASF11
 1246 0031 02       		.byte	0x2
 1247 0032 D4       		.byte	0xd4
 1248 0033 37000000 		.4byte	0x37
 1249 0037 04       		.uleb128 0x4
 1250 0038 04       		.byte	0x4
 1251 0039 07       		.byte	0x7
 1252 003a B5020000 		.4byte	.LASF0
 1253 003e 04       		.uleb128 0x4
 1254 003f 01       		.byte	0x1
ARM GAS  C:\Users\Keshuai\AppData\Local\Temp\cc9xpn9V.s 			page 32


 1255 0040 06       		.byte	0x6
 1256 0041 78030000 		.4byte	.LASF1
 1257 0045 04       		.uleb128 0x4
 1258 0046 01       		.byte	0x1
 1259 0047 08       		.byte	0x8
 1260 0048 C0010000 		.4byte	.LASF2
 1261 004c 04       		.uleb128 0x4
 1262 004d 02       		.byte	0x2
 1263 004e 05       		.byte	0x5
 1264 004f 30030000 		.4byte	.LASF3
 1265 0053 04       		.uleb128 0x4
 1266 0054 02       		.byte	0x2
 1267 0055 07       		.byte	0x7
 1268 0056 5B000000 		.4byte	.LASF4
 1269 005a 04       		.uleb128 0x4
 1270 005b 04       		.byte	0x4
 1271 005c 05       		.byte	0x5
 1272 005d 42030000 		.4byte	.LASF5
 1273 0061 04       		.uleb128 0x4
 1274 0062 04       		.byte	0x4
 1275 0063 07       		.byte	0x7
 1276 0064 82010000 		.4byte	.LASF6
 1277 0068 04       		.uleb128 0x4
 1278 0069 08       		.byte	0x8
 1279 006a 05       		.byte	0x5
 1280 006b 00030000 		.4byte	.LASF7
 1281 006f 04       		.uleb128 0x4
 1282 0070 08       		.byte	0x8
 1283 0071 07       		.byte	0x7
 1284 0072 CA020000 		.4byte	.LASF8
 1285 0076 04       		.uleb128 0x4
 1286 0077 04       		.byte	0x4
 1287 0078 07       		.byte	0x7
 1288 0079 F7020000 		.4byte	.LASF9
 1289 007d 05       		.uleb128 0x5
 1290 007e 04       		.byte	0x4
 1291 007f 04       		.uleb128 0x4
 1292 0080 01       		.byte	0x1
 1293 0081 08       		.byte	0x8
 1294 0082 4B030000 		.4byte	.LASF10
 1295 0086 06       		.uleb128 0x6
 1296 0087 94010000 		.4byte	.LASF12
 1297 008b 03       		.byte	0x3
 1298 008c 9201     		.2byte	0x192
 1299 008e 45000000 		.4byte	0x45
 1300 0092 06       		.uleb128 0x6
 1301 0093 92020000 		.4byte	.LASF13
 1302 0097 03       		.byte	0x3
 1303 0098 9301     		.2byte	0x193
 1304 009a 53000000 		.4byte	0x53
 1305 009e 06       		.uleb128 0x6
 1306 009f AE020000 		.4byte	.LASF14
 1307 00a3 03       		.byte	0x3
 1308 00a4 9401     		.2byte	0x194
 1309 00a6 61000000 		.4byte	0x61
 1310 00aa 06       		.uleb128 0x6
 1311 00ab 63020000 		.4byte	.LASF15
ARM GAS  C:\Users\Keshuai\AppData\Local\Temp\cc9xpn9V.s 			page 33


 1312 00af 03       		.byte	0x3
 1313 00b0 9501     		.2byte	0x195
 1314 00b2 3E000000 		.4byte	0x3e
 1315 00b6 04       		.uleb128 0x4
 1316 00b7 04       		.byte	0x4
 1317 00b8 04       		.byte	0x4
 1318 00b9 49010000 		.4byte	.LASF16
 1319 00bd 04       		.uleb128 0x4
 1320 00be 08       		.byte	0x8
 1321 00bf 04       		.byte	0x4
 1322 00c0 5C020000 		.4byte	.LASF17
 1323 00c4 06       		.uleb128 0x6
 1324 00c5 7D010000 		.4byte	.LASF18
 1325 00c9 03       		.byte	0x3
 1326 00ca 3C02     		.2byte	0x23c
 1327 00cc D0000000 		.4byte	0xd0
 1328 00d0 07       		.uleb128 0x7
 1329 00d1 86000000 		.4byte	0x86
 1330 00d5 06       		.uleb128 0x6
 1331 00d6 00000000 		.4byte	.LASF19
 1332 00da 03       		.byte	0x3
 1333 00db 3D02     		.2byte	0x23d
 1334 00dd E1000000 		.4byte	0xe1
 1335 00e1 07       		.uleb128 0x7
 1336 00e2 92000000 		.4byte	0x92
 1337 00e6 08       		.uleb128 0x8
 1338 00e7 02       		.byte	0x2
 1339 00e8 01       		.byte	0x1
 1340 00e9 8A       		.byte	0x8a
 1341 00ea 07010000 		.4byte	0x107
 1342 00ee 09       		.uleb128 0x9
 1343 00ef 29030000 		.4byte	.LASF20
 1344 00f3 01       		.byte	0x1
 1345 00f4 8C       		.byte	0x8c
 1346 00f5 86000000 		.4byte	0x86
 1347 00f9 00       		.byte	0
 1348 00fa 09       		.uleb128 0x9
 1349 00fb 44000000 		.4byte	.LASF21
 1350 00ff 01       		.byte	0x1
 1351 0100 8D       		.byte	0x8d
 1352 0101 86000000 		.4byte	0x86
 1353 0105 01       		.byte	0x1
 1354 0106 00       		.byte	0
 1355 0107 03       		.uleb128 0x3
 1356 0108 16030000 		.4byte	.LASF22
 1357 010c 01       		.byte	0x1
 1358 010d 8E       		.byte	0x8e
 1359 010e E6000000 		.4byte	0xe6
 1360 0112 0A       		.uleb128 0xa
 1361 0113 9A010000 		.4byte	.LASF23
 1362 0117 01       		.byte	0x1
 1363 0118 3F       		.byte	0x3f
 1364 0119 00000000 		.4byte	.LFB0
 1365 011d 1A000000 		.4byte	.LFE0-.LFB0
 1366 0121 01       		.uleb128 0x1
 1367 0122 9C       		.byte	0x9c
 1368 0123 40010000 		.4byte	0x140
ARM GAS  C:\Users\Keshuai\AppData\Local\Temp\cc9xpn9V.s 			page 34


 1369 0127 0B       		.uleb128 0xb
 1370 0128 7300     		.ascii	"s\000"
 1371 012a 01       		.byte	0x1
 1372 012b 3F       		.byte	0x3f
 1373 012c 7D000000 		.4byte	0x7d
 1374 0130 02       		.uleb128 0x2
 1375 0131 91       		.byte	0x91
 1376 0132 74       		.sleb128 -12
 1377 0133 0B       		.uleb128 0xb
 1378 0134 6E00     		.ascii	"n\000"
 1379 0136 01       		.byte	0x1
 1380 0137 3F       		.byte	0x3f
 1381 0138 2C000000 		.4byte	0x2c
 1382 013c 02       		.uleb128 0x2
 1383 013d 91       		.byte	0x91
 1384 013e 70       		.sleb128 -16
 1385 013f 00       		.byte	0
 1386 0140 0A       		.uleb128 0xa
 1387 0141 B2030000 		.4byte	.LASF24
 1388 0145 01       		.byte	0x1
 1389 0146 46       		.byte	0x46
 1390 0147 00000000 		.4byte	.LFB1
 1391 014b 1C000000 		.4byte	.LFE1-.LFB1
 1392 014f 01       		.uleb128 0x1
 1393 0150 9C       		.byte	0x9c
 1394 0151 7E010000 		.4byte	0x17e
 1395 0155 0C       		.uleb128 0xc
 1396 0156 63010000 		.4byte	.LASF25
 1397 015a 01       		.byte	0x1
 1398 015b 46       		.byte	0x46
 1399 015c 7D000000 		.4byte	0x7d
 1400 0160 02       		.uleb128 0x2
 1401 0161 91       		.byte	0x91
 1402 0162 74       		.sleb128 -12
 1403 0163 0B       		.uleb128 0xb
 1404 0164 73726300 		.ascii	"src\000"
 1405 0168 01       		.byte	0x1
 1406 0169 46       		.byte	0x46
 1407 016a 7E010000 		.4byte	0x17e
 1408 016e 02       		.uleb128 0x2
 1409 016f 91       		.byte	0x91
 1410 0170 70       		.sleb128 -16
 1411 0171 0B       		.uleb128 0xb
 1412 0172 6E00     		.ascii	"n\000"
 1413 0174 01       		.byte	0x1
 1414 0175 46       		.byte	0x46
 1415 0176 2C000000 		.4byte	0x2c
 1416 017a 02       		.uleb128 0x2
 1417 017b 91       		.byte	0x91
 1418 017c 6C       		.sleb128 -20
 1419 017d 00       		.byte	0
 1420 017e 0D       		.uleb128 0xd
 1421 017f 04       		.byte	0x4
 1422 0180 84010000 		.4byte	0x184
 1423 0184 0E       		.uleb128 0xe
 1424 0185 0A       		.uleb128 0xa
 1425 0186 6E000000 		.4byte	.LASF26
ARM GAS  C:\Users\Keshuai\AppData\Local\Temp\cc9xpn9V.s 			page 35


 1426 018a 01       		.byte	0x1
 1427 018b 4D       		.byte	0x4d
 1428 018c 00000000 		.4byte	.LFB2
 1429 0190 1C000000 		.4byte	.LFE2-.LFB2
 1430 0194 01       		.uleb128 0x1
 1431 0195 9C       		.byte	0x9c
 1432 0196 C3010000 		.4byte	0x1c3
 1433 019a 0C       		.uleb128 0xc
 1434 019b 63010000 		.4byte	.LASF25
 1435 019f 01       		.byte	0x1
 1436 01a0 4D       		.byte	0x4d
 1437 01a1 7D000000 		.4byte	0x7d
 1438 01a5 02       		.uleb128 0x2
 1439 01a6 91       		.byte	0x91
 1440 01a7 74       		.sleb128 -12
 1441 01a8 0B       		.uleb128 0xb
 1442 01a9 73726300 		.ascii	"src\000"
 1443 01ad 01       		.byte	0x1
 1444 01ae 4D       		.byte	0x4d
 1445 01af 7E010000 		.4byte	0x17e
 1446 01b3 02       		.uleb128 0x2
 1447 01b4 91       		.byte	0x91
 1448 01b5 70       		.sleb128 -16
 1449 01b6 0B       		.uleb128 0xb
 1450 01b7 6E00     		.ascii	"n\000"
 1451 01b9 01       		.byte	0x1
 1452 01ba 4D       		.byte	0x4d
 1453 01bb 2C000000 		.4byte	0x2c
 1454 01bf 02       		.uleb128 0x2
 1455 01c0 91       		.byte	0x91
 1456 01c1 6C       		.sleb128 -20
 1457 01c2 00       		.byte	0
 1458 01c3 0F       		.uleb128 0xf
 1459 01c4 4F010000 		.4byte	.LASF27
 1460 01c8 01       		.byte	0x1
 1461 01c9 6F       		.byte	0x6f
 1462 01ca 00000000 		.4byte	.LFB3
 1463 01ce 0C000000 		.4byte	.LFE3-.LFB3
 1464 01d2 01       		.uleb128 0x1
 1465 01d3 9C       		.byte	0x9c
 1466 01d4 E7010000 		.4byte	0x1e7
 1467 01d8 0C       		.uleb128 0xc
 1468 01d9 A4020000 		.4byte	.LASF28
 1469 01dd 01       		.byte	0x1
 1470 01de 6F       		.byte	0x6f
 1471 01df 86000000 		.4byte	0x86
 1472 01e3 02       		.uleb128 0x2
 1473 01e4 91       		.byte	0x91
 1474 01e5 77       		.sleb128 -9
 1475 01e6 00       		.byte	0
 1476 01e7 0F       		.uleb128 0xf
 1477 01e8 68020000 		.4byte	.LASF29
 1478 01ec 01       		.byte	0x1
 1479 01ed AF       		.byte	0xaf
 1480 01ee 00000000 		.4byte	.LFB4
 1481 01f2 74000000 		.4byte	.LFE4-.LFB4
 1482 01f6 01       		.uleb128 0x1
ARM GAS  C:\Users\Keshuai\AppData\Local\Temp\cc9xpn9V.s 			page 36


 1483 01f7 9C       		.byte	0x9c
 1484 01f8 57020000 		.4byte	0x257
 1485 01fc 0C       		.uleb128 0xc
 1486 01fd 87020000 		.4byte	.LASF30
 1487 0201 01       		.byte	0x1
 1488 0202 AF       		.byte	0xaf
 1489 0203 57020000 		.4byte	0x257
 1490 0207 02       		.uleb128 0x2
 1491 0208 91       		.byte	0x91
 1492 0209 64       		.sleb128 -28
 1493 020a 0C       		.uleb128 0xc
 1494 020b 99020000 		.4byte	.LASF31
 1495 020f 01       		.byte	0x1
 1496 0210 AF       		.byte	0xaf
 1497 0211 62020000 		.4byte	0x262
 1498 0215 02       		.uleb128 0x2
 1499 0216 91       		.byte	0x91
 1500 0217 60       		.sleb128 -32
 1501 0218 10       		.uleb128 0x10
 1502 0219 6900     		.ascii	"i\000"
 1503 021b 01       		.byte	0x1
 1504 021c B2       		.byte	0xb2
 1505 021d 9E000000 		.4byte	0x9e
 1506 0221 02       		.uleb128 0x2
 1507 0222 91       		.byte	0x91
 1508 0223 74       		.sleb128 -12
 1509 0224 10       		.uleb128 0x10
 1510 0225 6A00     		.ascii	"j\000"
 1511 0227 01       		.byte	0x1
 1512 0228 B2       		.byte	0xb2
 1513 0229 9E000000 		.4byte	0x9e
 1514 022d 02       		.uleb128 0x2
 1515 022e 91       		.byte	0x91
 1516 022f 70       		.sleb128 -16
 1517 0230 11       		.uleb128 0x11
 1518 0231 14000000 		.4byte	.LBB2
 1519 0235 4A000000 		.4byte	.LBE2-.LBB2
 1520 0239 12       		.uleb128 0x12
 1521 023a EE020000 		.4byte	.LASF32
 1522 023e 01       		.byte	0x1
 1523 023f B5       		.byte	0xb5
 1524 0240 9E000000 		.4byte	0x9e
 1525 0244 02       		.uleb128 0x2
 1526 0245 91       		.byte	0x91
 1527 0246 68       		.sleb128 -24
 1528 0247 12       		.uleb128 0x12
 1529 0248 4A000000 		.4byte	.LASF33
 1530 024c 01       		.byte	0x1
 1531 024d B6       		.byte	0xb6
 1532 024e 86000000 		.4byte	0x86
 1533 0252 02       		.uleb128 0x2
 1534 0253 91       		.byte	0x91
 1535 0254 6F       		.sleb128 -17
 1536 0255 00       		.byte	0
 1537 0256 00       		.byte	0
 1538 0257 0D       		.uleb128 0xd
 1539 0258 04       		.byte	0x4
ARM GAS  C:\Users\Keshuai\AppData\Local\Temp\cc9xpn9V.s 			page 37


 1540 0259 5D020000 		.4byte	0x25d
 1541 025d 13       		.uleb128 0x13
 1542 025e 9E000000 		.4byte	0x9e
 1543 0262 0D       		.uleb128 0xd
 1544 0263 04       		.byte	0x4
 1545 0264 68020000 		.4byte	0x268
 1546 0268 13       		.uleb128 0x13
 1547 0269 07010000 		.4byte	0x107
 1548 026d 0A       		.uleb128 0xa
 1549 026e 50000000 		.4byte	.LASF34
 1550 0272 01       		.byte	0x1
 1551 0273 D2       		.byte	0xd2
 1552 0274 00000000 		.4byte	.LFB5
 1553 0278 48010000 		.4byte	.LFE5-.LFB5
 1554 027c 01       		.uleb128 0x1
 1555 027d 9C       		.byte	0x9c
 1556 027e 9F020000 		.4byte	0x29f
 1557 0282 12       		.uleb128 0x12
 1558 0283 0E030000 		.4byte	.LASF35
 1559 0287 01       		.byte	0x1
 1560 0288 D4       		.byte	0xd4
 1561 0289 9E000000 		.4byte	0x9e
 1562 028d 02       		.uleb128 0x2
 1563 028e 91       		.byte	0x91
 1564 028f 74       		.sleb128 -12
 1565 0290 12       		.uleb128 0x12
 1566 0291 7E000000 		.4byte	.LASF36
 1567 0295 01       		.byte	0x1
 1568 0296 D5       		.byte	0xd5
 1569 0297 86000000 		.4byte	0x86
 1570 029b 02       		.uleb128 0x2
 1571 029c 91       		.byte	0x91
 1572 029d 73       		.sleb128 -13
 1573 029e 00       		.byte	0
 1574 029f 14       		.uleb128 0x14
 1575 02a0 0D000000 		.4byte	.LASF37
 1576 02a4 01       		.byte	0x1
 1577 02a5 1B01     		.2byte	0x11b
 1578 02a7 00000000 		.4byte	.LFB6
 1579 02ab 60000000 		.4byte	.LFE6-.LFB6
 1580 02af 01       		.uleb128 0x1
 1581 02b0 9C       		.byte	0x9c
 1582 02b1 C5020000 		.4byte	0x2c5
 1583 02b5 15       		.uleb128 0x15
 1584 02b6 66030000 		.4byte	.LASF38
 1585 02ba 01       		.byte	0x1
 1586 02bb 1D01     		.2byte	0x11d
 1587 02bd 86000000 		.4byte	0x86
 1588 02c1 02       		.uleb128 0x2
 1589 02c2 91       		.byte	0x91
 1590 02c3 77       		.sleb128 -9
 1591 02c4 00       		.byte	0
 1592 02c5 16       		.uleb128 0x16
 1593 02c6 50030000 		.4byte	.LASF45
 1594 02ca 01       		.byte	0x1
 1595 02cb 3801     		.2byte	0x138
 1596 02cd 00000000 		.4byte	.LFB7
ARM GAS  C:\Users\Keshuai\AppData\Local\Temp\cc9xpn9V.s 			page 38


 1597 02d1 3C000000 		.4byte	.LFE7-.LFB7
 1598 02d5 01       		.uleb128 0x1
 1599 02d6 9C       		.byte	0x9c
 1600 02d7 FA020000 		.4byte	0x2fa
 1601 02db 17       		.uleb128 0x17
 1602 02dc 3A030000 		.4byte	.LASF39
 1603 02e0 01       		.byte	0x1
 1604 02e1 3801     		.2byte	0x138
 1605 02e3 86000000 		.4byte	0x86
 1606 02e7 02       		.uleb128 0x2
 1607 02e8 91       		.byte	0x91
 1608 02e9 6F       		.sleb128 -17
 1609 02ea 15       		.uleb128 0x15
 1610 02eb A9030000 		.4byte	.LASF40
 1611 02ef 01       		.byte	0x1
 1612 02f0 3A01     		.2byte	0x13a
 1613 02f2 86000000 		.4byte	0x86
 1614 02f6 02       		.uleb128 0x2
 1615 02f7 91       		.byte	0x91
 1616 02f8 77       		.sleb128 -9
 1617 02f9 00       		.byte	0
 1618 02fa 18       		.uleb128 0x18
 1619 02fb 24010000 		.4byte	.LASF41
 1620 02ff 01       		.byte	0x1
 1621 0300 4901     		.2byte	0x149
 1622 0302 00000000 		.4byte	.LFB8
 1623 0306 40000000 		.4byte	.LFE8-.LFB8
 1624 030a 01       		.uleb128 0x1
 1625 030b 9C       		.byte	0x9c
 1626 030c 18       		.uleb128 0x18
 1627 030d A4010000 		.4byte	.LASF42
 1628 0311 01       		.byte	0x1
 1629 0312 5301     		.2byte	0x153
 1630 0314 00000000 		.4byte	.LFB9
 1631 0318 00010000 		.4byte	.LFE9-.LFB9
 1632 031c 01       		.uleb128 0x1
 1633 031d 9C       		.byte	0x9c
 1634 031e 18       		.uleb128 0x18
 1635 031f 84030000 		.4byte	.LASF43
 1636 0323 01       		.byte	0x1
 1637 0324 7601     		.2byte	0x176
 1638 0326 00000000 		.4byte	.LFB10
 1639 032a 40000000 		.4byte	.LFE10-.LFB10
 1640 032e 01       		.uleb128 0x1
 1641 032f 9C       		.byte	0x9c
 1642 0330 18       		.uleb128 0x18
 1643 0331 BE030000 		.4byte	.LASF44
 1644 0335 01       		.byte	0x1
 1645 0336 8001     		.2byte	0x180
 1646 0338 00000000 		.4byte	.LFB11
 1647 033c 00010000 		.4byte	.LFE11-.LFB11
 1648 0340 01       		.uleb128 0x1
 1649 0341 9C       		.byte	0x9c
 1650 0342 19       		.uleb128 0x19
 1651 0343 7A020000 		.4byte	.LASF46
 1652 0347 01       		.byte	0x1
 1653 0348 B401     		.2byte	0x1b4
ARM GAS  C:\Users\Keshuai\AppData\Local\Temp\cc9xpn9V.s 			page 39


 1654 034a 00000000 		.4byte	.LFB12
 1655 034e 2C010000 		.4byte	.LFE12-.LFB12
 1656 0352 01       		.uleb128 0x1
 1657 0353 9C       		.byte	0x9c
 1658 0354 EA030000 		.4byte	0x3ea
 1659 0358 11       		.uleb128 0x11
 1660 0359 22000000 		.4byte	.LBB3
 1661 035d 84000000 		.4byte	.LBE3-.LBB3
 1662 0361 1A       		.uleb128 0x1a
 1663 0362 06       		.byte	0x6
 1664 0363 01       		.byte	0x1
 1665 0364 C501     		.2byte	0x1c5
 1666 0366 85030000 		.4byte	0x385
 1667 036a 1B       		.uleb128 0x1b
 1668 036b C2020000 		.4byte	.LASF47
 1669 036f 01       		.byte	0x1
 1670 0370 C601     		.2byte	0x1c6
 1671 0372 7D000000 		.4byte	0x7d
 1672 0376 00       		.byte	0
 1673 0377 1B       		.uleb128 0x1b
 1674 0378 78010000 		.4byte	.LASF48
 1675 037c 01       		.byte	0x1
 1676 037d C701     		.2byte	0x1c7
 1677 037f 92000000 		.4byte	0x92
 1678 0383 04       		.byte	0x4
 1679 0384 00       		.byte	0
 1680 0385 06       		.uleb128 0x6
 1681 0386 E1020000 		.4byte	.LASF49
 1682 038a 01       		.byte	0x1
 1683 038b C801     		.2byte	0x1c8
 1684 038d 61030000 		.4byte	0x361
 1685 0391 1C       		.uleb128 0x1c
 1686 0392 85030000 		.4byte	0x385
 1687 0396 A1030000 		.4byte	0x3a1
 1688 039a 1D       		.uleb128 0x1d
 1689 039b 76000000 		.4byte	0x76
 1690 039f 06       		.byte	0x6
 1691 03a0 00       		.byte	0
 1692 03a1 15       		.uleb128 0x15
 1693 03a2 68010000 		.4byte	.LASF50
 1694 03a6 01       		.byte	0x1
 1695 03a7 CA01     		.2byte	0x1ca
 1696 03a9 B3030000 		.4byte	0x3b3
 1697 03ad 05       		.uleb128 0x5
 1698 03ae 03       		.byte	0x3
 1699 03af 00000000 		.4byte	cfg_memset_list.4924
 1700 03b3 13       		.uleb128 0x13
 1701 03b4 91030000 		.4byte	0x391
 1702 03b8 1E       		.uleb128 0x1e
 1703 03b9 6900     		.ascii	"i\000"
 1704 03bb 01       		.byte	0x1
 1705 03bc D501     		.2byte	0x1d5
 1706 03be 86000000 		.4byte	0x86
 1707 03c2 02       		.uleb128 0x2
 1708 03c3 91       		.byte	0x91
 1709 03c4 77       		.sleb128 -9
 1710 03c5 11       		.uleb128 0x11
ARM GAS  C:\Users\Keshuai\AppData\Local\Temp\cc9xpn9V.s 			page 40


 1711 03c6 28000000 		.4byte	.LBB4
 1712 03ca 22000000 		.4byte	.LBE4-.LBB4
 1713 03ce 1E       		.uleb128 0x1e
 1714 03cf 6D7300   		.ascii	"ms\000"
 1715 03d2 01       		.byte	0x1
 1716 03d3 DA01     		.2byte	0x1da
 1717 03d5 DC030000 		.4byte	0x3dc
 1718 03d9 02       		.uleb128 0x2
 1719 03da 91       		.byte	0x91
 1720 03db 70       		.sleb128 -16
 1721 03dc 0D       		.uleb128 0xd
 1722 03dd 04       		.byte	0x4
 1723 03de E2030000 		.4byte	0x3e2
 1724 03e2 13       		.uleb128 0x13
 1725 03e3 85030000 		.4byte	0x385
 1726 03e7 00       		.byte	0
 1727 03e8 00       		.byte	0
 1728 03e9 00       		.byte	0
 1729 03ea 1F       		.uleb128 0x1f
 1730 03eb E0000000 		.4byte	.LASF51
 1731 03ef 01       		.byte	0x1
 1732 03f0 4701     		.2byte	0x147
 1733 03f2 AA000000 		.4byte	0xaa
 1734 03f6 05       		.uleb128 0x5
 1735 03f7 03       		.byte	0x3
 1736 03f8 00000000 		.4byte	AMuxSeq_1_CYAMUXSIDE_A_curChannel
 1737 03fc 1F       		.uleb128 0x1f
 1738 03fd 02010000 		.4byte	.LASF52
 1739 0401 01       		.byte	0x1
 1740 0402 7401     		.2byte	0x174
 1741 0404 AA000000 		.4byte	0xaa
 1742 0408 05       		.uleb128 0x5
 1743 0409 03       		.byte	0x3
 1744 040a 00000000 		.4byte	AMuxSeq_1_CYAMUXSIDE_B_curChannel
 1745 040e 00       		.byte	0
 1746              		.section	.debug_abbrev,"",%progbits
 1747              	.Ldebug_abbrev0:
 1748 0000 01       		.uleb128 0x1
 1749 0001 11       		.uleb128 0x11
 1750 0002 01       		.byte	0x1
 1751 0003 25       		.uleb128 0x25
 1752 0004 0E       		.uleb128 0xe
 1753 0005 13       		.uleb128 0x13
 1754 0006 0B       		.uleb128 0xb
 1755 0007 03       		.uleb128 0x3
 1756 0008 0E       		.uleb128 0xe
 1757 0009 1B       		.uleb128 0x1b
 1758 000a 0E       		.uleb128 0xe
 1759 000b 55       		.uleb128 0x55
 1760 000c 17       		.uleb128 0x17
 1761 000d 11       		.uleb128 0x11
 1762 000e 01       		.uleb128 0x1
 1763 000f 10       		.uleb128 0x10
 1764 0010 17       		.uleb128 0x17
 1765 0011 00       		.byte	0
 1766 0012 00       		.byte	0
 1767 0013 02       		.uleb128 0x2
ARM GAS  C:\Users\Keshuai\AppData\Local\Temp\cc9xpn9V.s 			page 41


 1768 0014 24       		.uleb128 0x24
 1769 0015 00       		.byte	0
 1770 0016 0B       		.uleb128 0xb
 1771 0017 0B       		.uleb128 0xb
 1772 0018 3E       		.uleb128 0x3e
 1773 0019 0B       		.uleb128 0xb
 1774 001a 03       		.uleb128 0x3
 1775 001b 08       		.uleb128 0x8
 1776 001c 00       		.byte	0
 1777 001d 00       		.byte	0
 1778 001e 03       		.uleb128 0x3
 1779 001f 16       		.uleb128 0x16
 1780 0020 00       		.byte	0
 1781 0021 03       		.uleb128 0x3
 1782 0022 0E       		.uleb128 0xe
 1783 0023 3A       		.uleb128 0x3a
 1784 0024 0B       		.uleb128 0xb
 1785 0025 3B       		.uleb128 0x3b
 1786 0026 0B       		.uleb128 0xb
 1787 0027 49       		.uleb128 0x49
 1788 0028 13       		.uleb128 0x13
 1789 0029 00       		.byte	0
 1790 002a 00       		.byte	0
 1791 002b 04       		.uleb128 0x4
 1792 002c 24       		.uleb128 0x24
 1793 002d 00       		.byte	0
 1794 002e 0B       		.uleb128 0xb
 1795 002f 0B       		.uleb128 0xb
 1796 0030 3E       		.uleb128 0x3e
 1797 0031 0B       		.uleb128 0xb
 1798 0032 03       		.uleb128 0x3
 1799 0033 0E       		.uleb128 0xe
 1800 0034 00       		.byte	0
 1801 0035 00       		.byte	0
 1802 0036 05       		.uleb128 0x5
 1803 0037 0F       		.uleb128 0xf
 1804 0038 00       		.byte	0
 1805 0039 0B       		.uleb128 0xb
 1806 003a 0B       		.uleb128 0xb
 1807 003b 00       		.byte	0
 1808 003c 00       		.byte	0
 1809 003d 06       		.uleb128 0x6
 1810 003e 16       		.uleb128 0x16
 1811 003f 00       		.byte	0
 1812 0040 03       		.uleb128 0x3
 1813 0041 0E       		.uleb128 0xe
 1814 0042 3A       		.uleb128 0x3a
 1815 0043 0B       		.uleb128 0xb
 1816 0044 3B       		.uleb128 0x3b
 1817 0045 05       		.uleb128 0x5
 1818 0046 49       		.uleb128 0x49
 1819 0047 13       		.uleb128 0x13
 1820 0048 00       		.byte	0
 1821 0049 00       		.byte	0
 1822 004a 07       		.uleb128 0x7
 1823 004b 35       		.uleb128 0x35
 1824 004c 00       		.byte	0
ARM GAS  C:\Users\Keshuai\AppData\Local\Temp\cc9xpn9V.s 			page 42


 1825 004d 49       		.uleb128 0x49
 1826 004e 13       		.uleb128 0x13
 1827 004f 00       		.byte	0
 1828 0050 00       		.byte	0
 1829 0051 08       		.uleb128 0x8
 1830 0052 13       		.uleb128 0x13
 1831 0053 01       		.byte	0x1
 1832 0054 0B       		.uleb128 0xb
 1833 0055 0B       		.uleb128 0xb
 1834 0056 3A       		.uleb128 0x3a
 1835 0057 0B       		.uleb128 0xb
 1836 0058 3B       		.uleb128 0x3b
 1837 0059 0B       		.uleb128 0xb
 1838 005a 01       		.uleb128 0x1
 1839 005b 13       		.uleb128 0x13
 1840 005c 00       		.byte	0
 1841 005d 00       		.byte	0
 1842 005e 09       		.uleb128 0x9
 1843 005f 0D       		.uleb128 0xd
 1844 0060 00       		.byte	0
 1845 0061 03       		.uleb128 0x3
 1846 0062 0E       		.uleb128 0xe
 1847 0063 3A       		.uleb128 0x3a
 1848 0064 0B       		.uleb128 0xb
 1849 0065 3B       		.uleb128 0x3b
 1850 0066 0B       		.uleb128 0xb
 1851 0067 49       		.uleb128 0x49
 1852 0068 13       		.uleb128 0x13
 1853 0069 38       		.uleb128 0x38
 1854 006a 0B       		.uleb128 0xb
 1855 006b 00       		.byte	0
 1856 006c 00       		.byte	0
 1857 006d 0A       		.uleb128 0xa
 1858 006e 2E       		.uleb128 0x2e
 1859 006f 01       		.byte	0x1
 1860 0070 03       		.uleb128 0x3
 1861 0071 0E       		.uleb128 0xe
 1862 0072 3A       		.uleb128 0x3a
 1863 0073 0B       		.uleb128 0xb
 1864 0074 3B       		.uleb128 0x3b
 1865 0075 0B       		.uleb128 0xb
 1866 0076 27       		.uleb128 0x27
 1867 0077 19       		.uleb128 0x19
 1868 0078 11       		.uleb128 0x11
 1869 0079 01       		.uleb128 0x1
 1870 007a 12       		.uleb128 0x12
 1871 007b 06       		.uleb128 0x6
 1872 007c 40       		.uleb128 0x40
 1873 007d 18       		.uleb128 0x18
 1874 007e 9642     		.uleb128 0x2116
 1875 0080 19       		.uleb128 0x19
 1876 0081 01       		.uleb128 0x1
 1877 0082 13       		.uleb128 0x13
 1878 0083 00       		.byte	0
 1879 0084 00       		.byte	0
 1880 0085 0B       		.uleb128 0xb
 1881 0086 05       		.uleb128 0x5
ARM GAS  C:\Users\Keshuai\AppData\Local\Temp\cc9xpn9V.s 			page 43


 1882 0087 00       		.byte	0
 1883 0088 03       		.uleb128 0x3
 1884 0089 08       		.uleb128 0x8
 1885 008a 3A       		.uleb128 0x3a
 1886 008b 0B       		.uleb128 0xb
 1887 008c 3B       		.uleb128 0x3b
 1888 008d 0B       		.uleb128 0xb
 1889 008e 49       		.uleb128 0x49
 1890 008f 13       		.uleb128 0x13
 1891 0090 02       		.uleb128 0x2
 1892 0091 18       		.uleb128 0x18
 1893 0092 00       		.byte	0
 1894 0093 00       		.byte	0
 1895 0094 0C       		.uleb128 0xc
 1896 0095 05       		.uleb128 0x5
 1897 0096 00       		.byte	0
 1898 0097 03       		.uleb128 0x3
 1899 0098 0E       		.uleb128 0xe
 1900 0099 3A       		.uleb128 0x3a
 1901 009a 0B       		.uleb128 0xb
 1902 009b 3B       		.uleb128 0x3b
 1903 009c 0B       		.uleb128 0xb
 1904 009d 49       		.uleb128 0x49
 1905 009e 13       		.uleb128 0x13
 1906 009f 02       		.uleb128 0x2
 1907 00a0 18       		.uleb128 0x18
 1908 00a1 00       		.byte	0
 1909 00a2 00       		.byte	0
 1910 00a3 0D       		.uleb128 0xd
 1911 00a4 0F       		.uleb128 0xf
 1912 00a5 00       		.byte	0
 1913 00a6 0B       		.uleb128 0xb
 1914 00a7 0B       		.uleb128 0xb
 1915 00a8 49       		.uleb128 0x49
 1916 00a9 13       		.uleb128 0x13
 1917 00aa 00       		.byte	0
 1918 00ab 00       		.byte	0
 1919 00ac 0E       		.uleb128 0xe
 1920 00ad 26       		.uleb128 0x26
 1921 00ae 00       		.byte	0
 1922 00af 00       		.byte	0
 1923 00b0 00       		.byte	0
 1924 00b1 0F       		.uleb128 0xf
 1925 00b2 2E       		.uleb128 0x2e
 1926 00b3 01       		.byte	0x1
 1927 00b4 03       		.uleb128 0x3
 1928 00b5 0E       		.uleb128 0xe
 1929 00b6 3A       		.uleb128 0x3a
 1930 00b7 0B       		.uleb128 0xb
 1931 00b8 3B       		.uleb128 0x3b
 1932 00b9 0B       		.uleb128 0xb
 1933 00ba 27       		.uleb128 0x27
 1934 00bb 19       		.uleb128 0x19
 1935 00bc 11       		.uleb128 0x11
 1936 00bd 01       		.uleb128 0x1
 1937 00be 12       		.uleb128 0x12
 1938 00bf 06       		.uleb128 0x6
ARM GAS  C:\Users\Keshuai\AppData\Local\Temp\cc9xpn9V.s 			page 44


 1939 00c0 40       		.uleb128 0x40
 1940 00c1 18       		.uleb128 0x18
 1941 00c2 9742     		.uleb128 0x2117
 1942 00c4 19       		.uleb128 0x19
 1943 00c5 01       		.uleb128 0x1
 1944 00c6 13       		.uleb128 0x13
 1945 00c7 00       		.byte	0
 1946 00c8 00       		.byte	0
 1947 00c9 10       		.uleb128 0x10
 1948 00ca 34       		.uleb128 0x34
 1949 00cb 00       		.byte	0
 1950 00cc 03       		.uleb128 0x3
 1951 00cd 08       		.uleb128 0x8
 1952 00ce 3A       		.uleb128 0x3a
 1953 00cf 0B       		.uleb128 0xb
 1954 00d0 3B       		.uleb128 0x3b
 1955 00d1 0B       		.uleb128 0xb
 1956 00d2 49       		.uleb128 0x49
 1957 00d3 13       		.uleb128 0x13
 1958 00d4 02       		.uleb128 0x2
 1959 00d5 18       		.uleb128 0x18
 1960 00d6 00       		.byte	0
 1961 00d7 00       		.byte	0
 1962 00d8 11       		.uleb128 0x11
 1963 00d9 0B       		.uleb128 0xb
 1964 00da 01       		.byte	0x1
 1965 00db 11       		.uleb128 0x11
 1966 00dc 01       		.uleb128 0x1
 1967 00dd 12       		.uleb128 0x12
 1968 00de 06       		.uleb128 0x6
 1969 00df 00       		.byte	0
 1970 00e0 00       		.byte	0
 1971 00e1 12       		.uleb128 0x12
 1972 00e2 34       		.uleb128 0x34
 1973 00e3 00       		.byte	0
 1974 00e4 03       		.uleb128 0x3
 1975 00e5 0E       		.uleb128 0xe
 1976 00e6 3A       		.uleb128 0x3a
 1977 00e7 0B       		.uleb128 0xb
 1978 00e8 3B       		.uleb128 0x3b
 1979 00e9 0B       		.uleb128 0xb
 1980 00ea 49       		.uleb128 0x49
 1981 00eb 13       		.uleb128 0x13
 1982 00ec 02       		.uleb128 0x2
 1983 00ed 18       		.uleb128 0x18
 1984 00ee 00       		.byte	0
 1985 00ef 00       		.byte	0
 1986 00f0 13       		.uleb128 0x13
 1987 00f1 26       		.uleb128 0x26
 1988 00f2 00       		.byte	0
 1989 00f3 49       		.uleb128 0x49
 1990 00f4 13       		.uleb128 0x13
 1991 00f5 00       		.byte	0
 1992 00f6 00       		.byte	0
 1993 00f7 14       		.uleb128 0x14
 1994 00f8 2E       		.uleb128 0x2e
 1995 00f9 01       		.byte	0x1
ARM GAS  C:\Users\Keshuai\AppData\Local\Temp\cc9xpn9V.s 			page 45


 1996 00fa 03       		.uleb128 0x3
 1997 00fb 0E       		.uleb128 0xe
 1998 00fc 3A       		.uleb128 0x3a
 1999 00fd 0B       		.uleb128 0xb
 2000 00fe 3B       		.uleb128 0x3b
 2001 00ff 05       		.uleb128 0x5
 2002 0100 27       		.uleb128 0x27
 2003 0101 19       		.uleb128 0x19
 2004 0102 11       		.uleb128 0x11
 2005 0103 01       		.uleb128 0x1
 2006 0104 12       		.uleb128 0x12
 2007 0105 06       		.uleb128 0x6
 2008 0106 40       		.uleb128 0x40
 2009 0107 18       		.uleb128 0x18
 2010 0108 9742     		.uleb128 0x2117
 2011 010a 19       		.uleb128 0x19
 2012 010b 01       		.uleb128 0x1
 2013 010c 13       		.uleb128 0x13
 2014 010d 00       		.byte	0
 2015 010e 00       		.byte	0
 2016 010f 15       		.uleb128 0x15
 2017 0110 34       		.uleb128 0x34
 2018 0111 00       		.byte	0
 2019 0112 03       		.uleb128 0x3
 2020 0113 0E       		.uleb128 0xe
 2021 0114 3A       		.uleb128 0x3a
 2022 0115 0B       		.uleb128 0xb
 2023 0116 3B       		.uleb128 0x3b
 2024 0117 05       		.uleb128 0x5
 2025 0118 49       		.uleb128 0x49
 2026 0119 13       		.uleb128 0x13
 2027 011a 02       		.uleb128 0x2
 2028 011b 18       		.uleb128 0x18
 2029 011c 00       		.byte	0
 2030 011d 00       		.byte	0
 2031 011e 16       		.uleb128 0x16
 2032 011f 2E       		.uleb128 0x2e
 2033 0120 01       		.byte	0x1
 2034 0121 3F       		.uleb128 0x3f
 2035 0122 19       		.uleb128 0x19
 2036 0123 03       		.uleb128 0x3
 2037 0124 0E       		.uleb128 0xe
 2038 0125 3A       		.uleb128 0x3a
 2039 0126 0B       		.uleb128 0xb
 2040 0127 3B       		.uleb128 0x3b
 2041 0128 05       		.uleb128 0x5
 2042 0129 27       		.uleb128 0x27
 2043 012a 19       		.uleb128 0x19
 2044 012b 11       		.uleb128 0x11
 2045 012c 01       		.uleb128 0x1
 2046 012d 12       		.uleb128 0x12
 2047 012e 06       		.uleb128 0x6
 2048 012f 40       		.uleb128 0x40
 2049 0130 18       		.uleb128 0x18
 2050 0131 9742     		.uleb128 0x2117
 2051 0133 19       		.uleb128 0x19
 2052 0134 01       		.uleb128 0x1
ARM GAS  C:\Users\Keshuai\AppData\Local\Temp\cc9xpn9V.s 			page 46


 2053 0135 13       		.uleb128 0x13
 2054 0136 00       		.byte	0
 2055 0137 00       		.byte	0
 2056 0138 17       		.uleb128 0x17
 2057 0139 05       		.uleb128 0x5
 2058 013a 00       		.byte	0
 2059 013b 03       		.uleb128 0x3
 2060 013c 0E       		.uleb128 0xe
 2061 013d 3A       		.uleb128 0x3a
 2062 013e 0B       		.uleb128 0xb
 2063 013f 3B       		.uleb128 0x3b
 2064 0140 05       		.uleb128 0x5
 2065 0141 49       		.uleb128 0x49
 2066 0142 13       		.uleb128 0x13
 2067 0143 02       		.uleb128 0x2
 2068 0144 18       		.uleb128 0x18
 2069 0145 00       		.byte	0
 2070 0146 00       		.byte	0
 2071 0147 18       		.uleb128 0x18
 2072 0148 2E       		.uleb128 0x2e
 2073 0149 00       		.byte	0
 2074 014a 3F       		.uleb128 0x3f
 2075 014b 19       		.uleb128 0x19
 2076 014c 03       		.uleb128 0x3
 2077 014d 0E       		.uleb128 0xe
 2078 014e 3A       		.uleb128 0x3a
 2079 014f 0B       		.uleb128 0xb
 2080 0150 3B       		.uleb128 0x3b
 2081 0151 05       		.uleb128 0x5
 2082 0152 27       		.uleb128 0x27
 2083 0153 19       		.uleb128 0x19
 2084 0154 11       		.uleb128 0x11
 2085 0155 01       		.uleb128 0x1
 2086 0156 12       		.uleb128 0x12
 2087 0157 06       		.uleb128 0x6
 2088 0158 40       		.uleb128 0x40
 2089 0159 18       		.uleb128 0x18
 2090 015a 9742     		.uleb128 0x2117
 2091 015c 19       		.uleb128 0x19
 2092 015d 00       		.byte	0
 2093 015e 00       		.byte	0
 2094 015f 19       		.uleb128 0x19
 2095 0160 2E       		.uleb128 0x2e
 2096 0161 01       		.byte	0x1
 2097 0162 3F       		.uleb128 0x3f
 2098 0163 19       		.uleb128 0x19
 2099 0164 03       		.uleb128 0x3
 2100 0165 0E       		.uleb128 0xe
 2101 0166 3A       		.uleb128 0x3a
 2102 0167 0B       		.uleb128 0xb
 2103 0168 3B       		.uleb128 0x3b
 2104 0169 05       		.uleb128 0x5
 2105 016a 27       		.uleb128 0x27
 2106 016b 19       		.uleb128 0x19
 2107 016c 11       		.uleb128 0x11
 2108 016d 01       		.uleb128 0x1
 2109 016e 12       		.uleb128 0x12
ARM GAS  C:\Users\Keshuai\AppData\Local\Temp\cc9xpn9V.s 			page 47


 2110 016f 06       		.uleb128 0x6
 2111 0170 40       		.uleb128 0x40
 2112 0171 18       		.uleb128 0x18
 2113 0172 9642     		.uleb128 0x2116
 2114 0174 19       		.uleb128 0x19
 2115 0175 01       		.uleb128 0x1
 2116 0176 13       		.uleb128 0x13
 2117 0177 00       		.byte	0
 2118 0178 00       		.byte	0
 2119 0179 1A       		.uleb128 0x1a
 2120 017a 13       		.uleb128 0x13
 2121 017b 01       		.byte	0x1
 2122 017c 0B       		.uleb128 0xb
 2123 017d 0B       		.uleb128 0xb
 2124 017e 3A       		.uleb128 0x3a
 2125 017f 0B       		.uleb128 0xb
 2126 0180 3B       		.uleb128 0x3b
 2127 0181 05       		.uleb128 0x5
 2128 0182 01       		.uleb128 0x1
 2129 0183 13       		.uleb128 0x13
 2130 0184 00       		.byte	0
 2131 0185 00       		.byte	0
 2132 0186 1B       		.uleb128 0x1b
 2133 0187 0D       		.uleb128 0xd
 2134 0188 00       		.byte	0
 2135 0189 03       		.uleb128 0x3
 2136 018a 0E       		.uleb128 0xe
 2137 018b 3A       		.uleb128 0x3a
 2138 018c 0B       		.uleb128 0xb
 2139 018d 3B       		.uleb128 0x3b
 2140 018e 05       		.uleb128 0x5
 2141 018f 49       		.uleb128 0x49
 2142 0190 13       		.uleb128 0x13
 2143 0191 38       		.uleb128 0x38
 2144 0192 0B       		.uleb128 0xb
 2145 0193 00       		.byte	0
 2146 0194 00       		.byte	0
 2147 0195 1C       		.uleb128 0x1c
 2148 0196 01       		.uleb128 0x1
 2149 0197 01       		.byte	0x1
 2150 0198 49       		.uleb128 0x49
 2151 0199 13       		.uleb128 0x13
 2152 019a 01       		.uleb128 0x1
 2153 019b 13       		.uleb128 0x13
 2154 019c 00       		.byte	0
 2155 019d 00       		.byte	0
 2156 019e 1D       		.uleb128 0x1d
 2157 019f 21       		.uleb128 0x21
 2158 01a0 00       		.byte	0
 2159 01a1 49       		.uleb128 0x49
 2160 01a2 13       		.uleb128 0x13
 2161 01a3 2F       		.uleb128 0x2f
 2162 01a4 0B       		.uleb128 0xb
 2163 01a5 00       		.byte	0
 2164 01a6 00       		.byte	0
 2165 01a7 1E       		.uleb128 0x1e
 2166 01a8 34       		.uleb128 0x34
ARM GAS  C:\Users\Keshuai\AppData\Local\Temp\cc9xpn9V.s 			page 48


 2167 01a9 00       		.byte	0
 2168 01aa 03       		.uleb128 0x3
 2169 01ab 08       		.uleb128 0x8
 2170 01ac 3A       		.uleb128 0x3a
 2171 01ad 0B       		.uleb128 0xb
 2172 01ae 3B       		.uleb128 0x3b
 2173 01af 05       		.uleb128 0x5
 2174 01b0 49       		.uleb128 0x49
 2175 01b1 13       		.uleb128 0x13
 2176 01b2 02       		.uleb128 0x2
 2177 01b3 18       		.uleb128 0x18
 2178 01b4 00       		.byte	0
 2179 01b5 00       		.byte	0
 2180 01b6 1F       		.uleb128 0x1f
 2181 01b7 34       		.uleb128 0x34
 2182 01b8 00       		.byte	0
 2183 01b9 03       		.uleb128 0x3
 2184 01ba 0E       		.uleb128 0xe
 2185 01bb 3A       		.uleb128 0x3a
 2186 01bc 0B       		.uleb128 0xb
 2187 01bd 3B       		.uleb128 0x3b
 2188 01be 05       		.uleb128 0x5
 2189 01bf 49       		.uleb128 0x49
 2190 01c0 13       		.uleb128 0x13
 2191 01c1 3F       		.uleb128 0x3f
 2192 01c2 19       		.uleb128 0x19
 2193 01c3 02       		.uleb128 0x2
 2194 01c4 18       		.uleb128 0x18
 2195 01c5 00       		.byte	0
 2196 01c6 00       		.byte	0
 2197 01c7 00       		.byte	0
 2198              		.section	.debug_aranges,"",%progbits
 2199 0000 7C000000 		.4byte	0x7c
 2200 0004 0200     		.2byte	0x2
 2201 0006 00000000 		.4byte	.Ldebug_info0
 2202 000a 04       		.byte	0x4
 2203 000b 00       		.byte	0
 2204 000c 0000     		.2byte	0
 2205 000e 0000     		.2byte	0
 2206 0010 00000000 		.4byte	.LFB0
 2207 0014 1A000000 		.4byte	.LFE0-.LFB0
 2208 0018 00000000 		.4byte	.LFB1
 2209 001c 1C000000 		.4byte	.LFE1-.LFB1
 2210 0020 00000000 		.4byte	.LFB2
 2211 0024 1C000000 		.4byte	.LFE2-.LFB2
 2212 0028 00000000 		.4byte	.LFB3
 2213 002c 0C000000 		.4byte	.LFE3-.LFB3
 2214 0030 00000000 		.4byte	.LFB4
 2215 0034 74000000 		.4byte	.LFE4-.LFB4
 2216 0038 00000000 		.4byte	.LFB5
 2217 003c 48010000 		.4byte	.LFE5-.LFB5
 2218 0040 00000000 		.4byte	.LFB6
 2219 0044 60000000 		.4byte	.LFE6-.LFB6
 2220 0048 00000000 		.4byte	.LFB7
 2221 004c 3C000000 		.4byte	.LFE7-.LFB7
 2222 0050 00000000 		.4byte	.LFB8
 2223 0054 40000000 		.4byte	.LFE8-.LFB8
ARM GAS  C:\Users\Keshuai\AppData\Local\Temp\cc9xpn9V.s 			page 49


 2224 0058 00000000 		.4byte	.LFB9
 2225 005c 00010000 		.4byte	.LFE9-.LFB9
 2226 0060 00000000 		.4byte	.LFB10
 2227 0064 40000000 		.4byte	.LFE10-.LFB10
 2228 0068 00000000 		.4byte	.LFB11
 2229 006c 00010000 		.4byte	.LFE11-.LFB11
 2230 0070 00000000 		.4byte	.LFB12
 2231 0074 2C010000 		.4byte	.LFE12-.LFB12
 2232 0078 00000000 		.4byte	0
 2233 007c 00000000 		.4byte	0
 2234              		.section	.debug_ranges,"",%progbits
 2235              	.Ldebug_ranges0:
 2236 0000 00000000 		.4byte	.LFB0
 2237 0004 1A000000 		.4byte	.LFE0
 2238 0008 00000000 		.4byte	.LFB1
 2239 000c 1C000000 		.4byte	.LFE1
 2240 0010 00000000 		.4byte	.LFB2
 2241 0014 1C000000 		.4byte	.LFE2
 2242 0018 00000000 		.4byte	.LFB3
 2243 001c 0C000000 		.4byte	.LFE3
 2244 0020 00000000 		.4byte	.LFB4
 2245 0024 74000000 		.4byte	.LFE4
 2246 0028 00000000 		.4byte	.LFB5
 2247 002c 48010000 		.4byte	.LFE5
 2248 0030 00000000 		.4byte	.LFB6
 2249 0034 60000000 		.4byte	.LFE6
 2250 0038 00000000 		.4byte	.LFB7
 2251 003c 3C000000 		.4byte	.LFE7
 2252 0040 00000000 		.4byte	.LFB8
 2253 0044 40000000 		.4byte	.LFE8
 2254 0048 00000000 		.4byte	.LFB9
 2255 004c 00010000 		.4byte	.LFE9
 2256 0050 00000000 		.4byte	.LFB10
 2257 0054 40000000 		.4byte	.LFE10
 2258 0058 00000000 		.4byte	.LFB11
 2259 005c 00010000 		.4byte	.LFE11
 2260 0060 00000000 		.4byte	.LFB12
 2261 0064 2C010000 		.4byte	.LFE12
 2262 0068 00000000 		.4byte	0
 2263 006c 00000000 		.4byte	0
 2264              		.section	.debug_line,"",%progbits
 2265              	.Ldebug_line0:
 2266 0000 61020000 		.section	.debug_str,"MS",%progbits,1
 2266      0200CB00 
 2266      00000201 
 2266      FB0E0D00 
 2266      01010101 
 2267              	.LASF19:
 2268 0000 72656731 		.ascii	"reg16\000"
 2268      3600
 2269              	.LASF11:
 2270 0006 73697A65 		.ascii	"size_t\000"
 2270      5F7400
 2271              	.LASF37:
 2272 000d 416E616C 		.ascii	"AnalogSetDefault\000"
 2272      6F675365 
 2272      74446566 
ARM GAS  C:\Users\Keshuai\AppData\Local\Temp\cc9xpn9V.s 			page 50


 2272      61756C74 
 2272      00
 2273              	.LASF54:
 2274 001e 47656E65 		.ascii	"Generated_Source\\PSoC5\\cyfitter_cfg.c\000"
 2274      72617465 
 2274      645F536F 
 2274      75726365 
 2274      5C50536F 
 2275              	.LASF21:
 2276 0044 76616C75 		.ascii	"value\000"
 2276      6500
 2277              	.LASF33:
 2278 004a 636F756E 		.ascii	"count\000"
 2278      7400
 2279              	.LASF34:
 2280 0050 436C6F63 		.ascii	"ClockSetup\000"
 2280      6B536574 
 2280      757000
 2281              	.LASF4:
 2282 005b 73686F72 		.ascii	"short unsigned int\000"
 2282      7420756E 
 2282      7369676E 
 2282      65642069 
 2282      6E7400
 2283              	.LASF26:
 2284 006e 4359434F 		.ascii	"CYCONFIGCPYCODE\000"
 2284      4E464947 
 2284      43505943 
 2284      4F444500 
 2285              	.LASF36:
 2286 007e 706C6C4C 		.ascii	"pllLock\000"
 2286      6F636B00 
 2287              	.LASF55:
 2288 0086 433A5C55 		.ascii	"C:\\Users\\Keshuai\\Documents\\PSoC Creator\\ADC_Si"
 2288      73657273 
 2288      5C4B6573 
 2288      68756169 
 2288      5C446F63 
 2289 00b4 6E676C65 		.ascii	"ngleEndedMode01\\ADC_SingleEndedMode02.cydsn\000"
 2289      456E6465 
 2289      644D6F64 
 2289      6530315C 
 2289      4144435F 
 2290              	.LASF51:
 2291 00e0 414D7578 		.ascii	"AMuxSeq_1_CYAMUXSIDE_A_curChannel\000"
 2291      5365715F 
 2291      315F4359 
 2291      414D5558 
 2291      53494445 
 2292              	.LASF52:
 2293 0102 414D7578 		.ascii	"AMuxSeq_1_CYAMUXSIDE_B_curChannel\000"
 2293      5365715F 
 2293      315F4359 
 2293      414D5558 
 2293      53494445 
 2294              	.LASF41:
 2295 0124 414D7578 		.ascii	"AMuxSeq_1_CYAMUXSIDE_A_DisconnectAll\000"
ARM GAS  C:\Users\Keshuai\AppData\Local\Temp\cc9xpn9V.s 			page 51


 2295      5365715F 
 2295      315F4359 
 2295      414D5558 
 2295      53494445 
 2296              	.LASF16:
 2297 0149 666C6F61 		.ascii	"float\000"
 2297      7400
 2298              	.LASF27:
 2299 014f 4379436C 		.ascii	"CyClockStartupError\000"
 2299      6F636B53 
 2299      74617274 
 2299      75704572 
 2299      726F7200 
 2300              	.LASF25:
 2301 0163 64657374 		.ascii	"dest\000"
 2301      00
 2302              	.LASF50:
 2303 0168 6366675F 		.ascii	"cfg_memset_list\000"
 2303      6D656D73 
 2303      65745F6C 
 2303      69737400 
 2304              	.LASF48:
 2305 0178 73697A65 		.ascii	"size\000"
 2305      00
 2306              	.LASF18:
 2307 017d 72656738 		.ascii	"reg8\000"
 2307      00
 2308              	.LASF6:
 2309 0182 6C6F6E67 		.ascii	"long unsigned int\000"
 2309      20756E73 
 2309      69676E65 
 2309      6420696E 
 2309      7400
 2310              	.LASF12:
 2311 0194 75696E74 		.ascii	"uint8\000"
 2311      3800
 2312              	.LASF23:
 2313 019a 43594D45 		.ascii	"CYMEMZERO\000"
 2313      4D5A4552 
 2313      4F00
 2314              	.LASF42:
 2315 01a4 414D7578 		.ascii	"AMuxSeq_1_CYAMUXSIDE_A_Next\000"
 2315      5365715F 
 2315      315F4359 
 2315      414D5558 
 2315      53494445 
 2316              	.LASF2:
 2317 01c0 756E7369 		.ascii	"unsigned char\000"
 2317      676E6564 
 2317      20636861 
 2317      7200
 2318              	.LASF53:
 2319 01ce 474E5520 		.ascii	"GNU C 4.9.3 20150303 (release) [ARM/embedded-4_9-br"
 2319      4320342E 
 2319      392E3320 
 2319      32303135 
 2319      30333033 
ARM GAS  C:\Users\Keshuai\AppData\Local\Temp\cc9xpn9V.s 			page 52


 2320 0201 616E6368 		.ascii	"anch revision 221220] -mcpu=cortex-m3 -mthumb -g -O"
 2320      20726576 
 2320      6973696F 
 2320      6E203232 
 2320      31323230 
 2321 0234 30202D66 		.ascii	"0 -ffunction-sections -ffat-lto-objects\000"
 2321      66756E63 
 2321      74696F6E 
 2321      2D736563 
 2321      74696F6E 
 2322              	.LASF17:
 2323 025c 646F7562 		.ascii	"double\000"
 2323      6C6500
 2324              	.LASF15:
 2325 0263 696E7438 		.ascii	"int8\000"
 2325      00
 2326              	.LASF29:
 2327 0268 6366675F 		.ascii	"cfg_write_bytes32\000"
 2327      77726974 
 2327      655F6279 
 2327      74657333 
 2327      3200
 2328              	.LASF46:
 2329 027a 63796669 		.ascii	"cyfitter_cfg\000"
 2329      74746572 
 2329      5F636667 
 2329      00
 2330              	.LASF30:
 2331 0287 61646472 		.ascii	"addr_table\000"
 2331      5F746162 
 2331      6C6500
 2332              	.LASF13:
 2333 0292 75696E74 		.ascii	"uint16\000"
 2333      313600
 2334              	.LASF31:
 2335 0299 64617461 		.ascii	"data_table\000"
 2335      5F746162 
 2335      6C6500
 2336              	.LASF28:
 2337 02a4 6572726F 		.ascii	"errorCode\000"
 2337      72436F64 
 2337      6500
 2338              	.LASF14:
 2339 02ae 75696E74 		.ascii	"uint32\000"
 2339      333200
 2340              	.LASF0:
 2341 02b5 756E7369 		.ascii	"unsigned int\000"
 2341      676E6564 
 2341      20696E74 
 2341      00
 2342              	.LASF47:
 2343 02c2 61646472 		.ascii	"address\000"
 2343      65737300 
 2344              	.LASF8:
 2345 02ca 6C6F6E67 		.ascii	"long long unsigned int\000"
 2345      206C6F6E 
 2345      6720756E 
ARM GAS  C:\Users\Keshuai\AppData\Local\Temp\cc9xpn9V.s 			page 53


 2345      7369676E 
 2345      65642069 
 2346              	.LASF49:
 2347 02e1 6366675F 		.ascii	"cfg_memset_t\000"
 2347      6D656D73 
 2347      65745F74 
 2347      00
 2348              	.LASF32:
 2349 02ee 62617365 		.ascii	"baseAddr\000"
 2349      41646472 
 2349      00
 2350              	.LASF9:
 2351 02f7 73697A65 		.ascii	"sizetype\000"
 2351      74797065 
 2351      00
 2352              	.LASF7:
 2353 0300 6C6F6E67 		.ascii	"long long int\000"
 2353      206C6F6E 
 2353      6720696E 
 2353      7400
 2354              	.LASF35:
 2355 030e 74696D65 		.ascii	"timeout\000"
 2355      6F757400 
 2356              	.LASF22:
 2357 0316 63795F63 		.ascii	"cy_cfg_addrvalue_t\000"
 2357      66675F61 
 2357      64647276 
 2357      616C7565 
 2357      5F7400
 2358              	.LASF20:
 2359 0329 6F666673 		.ascii	"offset\000"
 2359      657400
 2360              	.LASF3:
 2361 0330 73686F72 		.ascii	"short int\000"
 2361      7420696E 
 2361      7400
 2362              	.LASF39:
 2363 033a 656E6162 		.ascii	"enabled\000"
 2363      6C656400 
 2364              	.LASF5:
 2365 0342 6C6F6E67 		.ascii	"long int\000"
 2365      20696E74 
 2365      00
 2366              	.LASF10:
 2367 034b 63686172 		.ascii	"char\000"
 2367      00
 2368              	.LASF45:
 2369 0350 53657441 		.ascii	"SetAnalogRoutingPumps\000"
 2369      6E616C6F 
 2369      67526F75 
 2369      74696E67 
 2369      50756D70 
 2370              	.LASF38:
 2371 0366 62675F78 		.ascii	"bg_xover_inl_trim\000"
 2371      6F766572 
 2371      5F696E6C 
 2371      5F747269 
ARM GAS  C:\Users\Keshuai\AppData\Local\Temp\cc9xpn9V.s 			page 54


 2371      6D00
 2372              	.LASF1:
 2373 0378 7369676E 		.ascii	"signed char\000"
 2373      65642063 
 2373      68617200 
 2374              	.LASF43:
 2375 0384 414D7578 		.ascii	"AMuxSeq_1_CYAMUXSIDE_B_DisconnectAll\000"
 2375      5365715F 
 2375      315F4359 
 2375      414D5558 
 2375      53494445 
 2376              	.LASF40:
 2377 03a9 72656756 		.ascii	"regValue\000"
 2377      616C7565 
 2377      00
 2378              	.LASF24:
 2379 03b2 4359434F 		.ascii	"CYCONFIGCPY\000"
 2379      4E464947 
 2379      43505900 
 2380              	.LASF44:
 2381 03be 414D7578 		.ascii	"AMuxSeq_1_CYAMUXSIDE_B_Next\000"
 2381      5365715F 
 2381      315F4359 
 2381      414D5558 
 2381      53494445 
 2382              		.ident	"GCC: (GNU Tools for ARM Embedded Processors) 4.9.3 20150303 (release) [ARM/embedded-4_9-br
