ARM GAS  C:\Users\Keshuai\AppData\Local\Temp\cckKd49v.s 			page 1


   1              		.syntax unified
   2              		.cpu cortex-m3
   3              		.fpu softvfp
   4              		.eabi_attribute 20, 1
   5              		.eabi_attribute 21, 1
   6              		.eabi_attribute 23, 3
   7              		.eabi_attribute 24, 1
   8              		.eabi_attribute 25, 1
   9              		.eabi_attribute 26, 1
  10              		.eabi_attribute 30, 6
  11              		.eabi_attribute 34, 1
  12              		.eabi_attribute 18, 4
  13              		.thumb
  14              		.file	"cyfitter_cfg.c"
  15              		.text
  16              	.Ltext0:
  17              		.cfi_sections	.debug_frame
  18              		.section	.text.CYMEMZERO,"ax",%progbits
  19              		.align	2
  20              		.thumb
  21              		.thumb_func
  22              		.type	CYMEMZERO, %function
  23              	CYMEMZERO:
  24              	.LFB0:
  25              		.file 1 "Generated_Source\\PSoC5\\cyfitter_cfg.c"
   1:Generated_Source\PSoC5/cyfitter_cfg.c **** /*******************************************************************************
   2:Generated_Source\PSoC5/cyfitter_cfg.c **** * File Name: cyfitter_cfg.c
   3:Generated_Source\PSoC5/cyfitter_cfg.c **** * 
   4:Generated_Source\PSoC5/cyfitter_cfg.c **** * PSoC Creator  4.0 Update 1
   5:Generated_Source\PSoC5/cyfitter_cfg.c **** *
   6:Generated_Source\PSoC5/cyfitter_cfg.c **** * Description:
   7:Generated_Source\PSoC5/cyfitter_cfg.c **** * This file contains device initialization code.
   8:Generated_Source\PSoC5/cyfitter_cfg.c **** * Except for the user defined sections in CyClockStartupError(), this file should not be modified.
   9:Generated_Source\PSoC5/cyfitter_cfg.c **** * This file is automatically generated by PSoC Creator.
  10:Generated_Source\PSoC5/cyfitter_cfg.c **** *
  11:Generated_Source\PSoC5/cyfitter_cfg.c **** ********************************************************************************
  12:Generated_Source\PSoC5/cyfitter_cfg.c **** * Copyright (c) 2007-2016 Cypress Semiconductor.  All rights reserved.
  13:Generated_Source\PSoC5/cyfitter_cfg.c **** * You may use this file only in accordance with the license, terms, conditions, 
  14:Generated_Source\PSoC5/cyfitter_cfg.c **** * disclaimers, and limitations in the end user license agreement accompanying 
  15:Generated_Source\PSoC5/cyfitter_cfg.c **** * the software package with which this file was provided.
  16:Generated_Source\PSoC5/cyfitter_cfg.c **** ********************************************************************************/
  17:Generated_Source\PSoC5/cyfitter_cfg.c **** 
  18:Generated_Source\PSoC5/cyfitter_cfg.c **** #include <string.h>
  19:Generated_Source\PSoC5/cyfitter_cfg.c **** #include "cytypes.h"
  20:Generated_Source\PSoC5/cyfitter_cfg.c **** #include "cydevice_trm.h"
  21:Generated_Source\PSoC5/cyfitter_cfg.c **** #include "cyfitter.h"
  22:Generated_Source\PSoC5/cyfitter_cfg.c **** #include "CyLib.h"
  23:Generated_Source\PSoC5/cyfitter_cfg.c **** #include "cyfitter_cfg.h"
  24:Generated_Source\PSoC5/cyfitter_cfg.c **** #include "cyapicallbacks.h"
  25:Generated_Source\PSoC5/cyfitter_cfg.c **** 
  26:Generated_Source\PSoC5/cyfitter_cfg.c **** #define CY_NEED_CYCLOCKSTARTUPERROR 1
  27:Generated_Source\PSoC5/cyfitter_cfg.c **** 
  28:Generated_Source\PSoC5/cyfitter_cfg.c **** 
  29:Generated_Source\PSoC5/cyfitter_cfg.c **** #if defined(__GNUC__) || defined(__ARMCC_VERSION)
  30:Generated_Source\PSoC5/cyfitter_cfg.c ****     #define CYPACKED 
  31:Generated_Source\PSoC5/cyfitter_cfg.c ****     #define CYPACKED_ATTR __attribute__ ((packed))
  32:Generated_Source\PSoC5/cyfitter_cfg.c ****     #define CYALIGNED __attribute__ ((aligned))
ARM GAS  C:\Users\Keshuai\AppData\Local\Temp\cckKd49v.s 			page 2


  33:Generated_Source\PSoC5/cyfitter_cfg.c ****     #define CY_CFG_UNUSED __attribute__ ((unused))
  34:Generated_Source\PSoC5/cyfitter_cfg.c ****     #ifndef CY_CFG_SECTION
  35:Generated_Source\PSoC5/cyfitter_cfg.c ****         #define CY_CFG_SECTION __attribute__ ((section(".psocinit")))
  36:Generated_Source\PSoC5/cyfitter_cfg.c ****     #endif
  37:Generated_Source\PSoC5/cyfitter_cfg.c ****     
  38:Generated_Source\PSoC5/cyfitter_cfg.c ****     #if defined(__ARMCC_VERSION)
  39:Generated_Source\PSoC5/cyfitter_cfg.c ****         #define CY_CFG_MEMORY_BARRIER() __memory_changed()
  40:Generated_Source\PSoC5/cyfitter_cfg.c ****     #else
  41:Generated_Source\PSoC5/cyfitter_cfg.c ****         #define CY_CFG_MEMORY_BARRIER() __sync_synchronize()
  42:Generated_Source\PSoC5/cyfitter_cfg.c ****     #endif
  43:Generated_Source\PSoC5/cyfitter_cfg.c ****     
  44:Generated_Source\PSoC5/cyfitter_cfg.c **** #elif defined(__ICCARM__)
  45:Generated_Source\PSoC5/cyfitter_cfg.c ****     #include <intrinsics.h>
  46:Generated_Source\PSoC5/cyfitter_cfg.c **** 
  47:Generated_Source\PSoC5/cyfitter_cfg.c ****     #define CYPACKED __packed
  48:Generated_Source\PSoC5/cyfitter_cfg.c ****     #define CYPACKED_ATTR 
  49:Generated_Source\PSoC5/cyfitter_cfg.c ****     #define CYALIGNED _Pragma("data_alignment=4")
  50:Generated_Source\PSoC5/cyfitter_cfg.c ****     #define CY_CFG_UNUSED _Pragma("diag_suppress=Pe177")
  51:Generated_Source\PSoC5/cyfitter_cfg.c ****     #define CY_CFG_SECTION _Pragma("location=\".psocinit\"")
  52:Generated_Source\PSoC5/cyfitter_cfg.c ****     
  53:Generated_Source\PSoC5/cyfitter_cfg.c ****     #define CY_CFG_MEMORY_BARRIER() __DMB()
  54:Generated_Source\PSoC5/cyfitter_cfg.c ****     
  55:Generated_Source\PSoC5/cyfitter_cfg.c **** #else
  56:Generated_Source\PSoC5/cyfitter_cfg.c ****     #error Unsupported toolchain
  57:Generated_Source\PSoC5/cyfitter_cfg.c **** #endif
  58:Generated_Source\PSoC5/cyfitter_cfg.c **** 
  59:Generated_Source\PSoC5/cyfitter_cfg.c **** 
  60:Generated_Source\PSoC5/cyfitter_cfg.c **** CY_CFG_UNUSED
  61:Generated_Source\PSoC5/cyfitter_cfg.c **** static void CYMEMZERO(void *s, size_t n);
  62:Generated_Source\PSoC5/cyfitter_cfg.c **** CY_CFG_UNUSED
  63:Generated_Source\PSoC5/cyfitter_cfg.c **** static void CYMEMZERO(void *s, size_t n)
  64:Generated_Source\PSoC5/cyfitter_cfg.c **** {
  26              		.loc 1 64 0
  27              		.cfi_startproc
  28              		@ args = 0, pretend = 0, frame = 8
  29              		@ frame_needed = 1, uses_anonymous_args = 0
  30 0000 80B5     		push	{r7, lr}
  31              		.cfi_def_cfa_offset 8
  32              		.cfi_offset 7, -8
  33              		.cfi_offset 14, -4
  34 0002 82B0     		sub	sp, sp, #8
  35              		.cfi_def_cfa_offset 16
  36 0004 00AF     		add	r7, sp, #0
  37              		.cfi_def_cfa_register 7
  38 0006 7860     		str	r0, [r7, #4]
  39 0008 3960     		str	r1, [r7]
  65:Generated_Source\PSoC5/cyfitter_cfg.c **** 	(void)memset(s, 0, n);
  40              		.loc 1 65 0
  41 000a 7868     		ldr	r0, [r7, #4]
  42 000c 0021     		movs	r1, #0
  43 000e 3A68     		ldr	r2, [r7]
  44 0010 FFF7FEFF 		bl	memset
  66:Generated_Source\PSoC5/cyfitter_cfg.c **** }
  45              		.loc 1 66 0
  46 0014 0837     		adds	r7, r7, #8
  47              		.cfi_def_cfa_offset 8
  48 0016 BD46     		mov	sp, r7
ARM GAS  C:\Users\Keshuai\AppData\Local\Temp\cckKd49v.s 			page 3


  49              		.cfi_def_cfa_register 13
  50              		@ sp needed
  51 0018 80BD     		pop	{r7, pc}
  52              		.cfi_endproc
  53              	.LFE0:
  54              		.size	CYMEMZERO, .-CYMEMZERO
  55 001a 00BF     		.section	.text.CYCONFIGCPY,"ax",%progbits
  56              		.align	2
  57              		.thumb
  58              		.thumb_func
  59              		.type	CYCONFIGCPY, %function
  60              	CYCONFIGCPY:
  61              	.LFB1:
  67:Generated_Source\PSoC5/cyfitter_cfg.c **** CY_CFG_UNUSED
  68:Generated_Source\PSoC5/cyfitter_cfg.c **** static void CYCONFIGCPY(void *dest, const void *src, size_t n);
  69:Generated_Source\PSoC5/cyfitter_cfg.c **** CY_CFG_UNUSED
  70:Generated_Source\PSoC5/cyfitter_cfg.c **** static void CYCONFIGCPY(void *dest, const void *src, size_t n)
  71:Generated_Source\PSoC5/cyfitter_cfg.c **** {
  62              		.loc 1 71 0
  63              		.cfi_startproc
  64              		@ args = 0, pretend = 0, frame = 16
  65              		@ frame_needed = 1, uses_anonymous_args = 0
  66 0000 80B5     		push	{r7, lr}
  67              		.cfi_def_cfa_offset 8
  68              		.cfi_offset 7, -8
  69              		.cfi_offset 14, -4
  70 0002 84B0     		sub	sp, sp, #16
  71              		.cfi_def_cfa_offset 24
  72 0004 00AF     		add	r7, sp, #0
  73              		.cfi_def_cfa_register 7
  74 0006 F860     		str	r0, [r7, #12]
  75 0008 B960     		str	r1, [r7, #8]
  76 000a 7A60     		str	r2, [r7, #4]
  72:Generated_Source\PSoC5/cyfitter_cfg.c **** 	(void)memcpy(dest, src, n);
  77              		.loc 1 72 0
  78 000c F868     		ldr	r0, [r7, #12]
  79 000e B968     		ldr	r1, [r7, #8]
  80 0010 7A68     		ldr	r2, [r7, #4]
  81 0012 FFF7FEFF 		bl	memcpy
  73:Generated_Source\PSoC5/cyfitter_cfg.c **** }
  82              		.loc 1 73 0
  83 0016 1037     		adds	r7, r7, #16
  84              		.cfi_def_cfa_offset 8
  85 0018 BD46     		mov	sp, r7
  86              		.cfi_def_cfa_register 13
  87              		@ sp needed
  88 001a 80BD     		pop	{r7, pc}
  89              		.cfi_endproc
  90              	.LFE1:
  91              		.size	CYCONFIGCPY, .-CYCONFIGCPY
  92              		.section	.text.CYCONFIGCPYCODE,"ax",%progbits
  93              		.align	2
  94              		.thumb
  95              		.thumb_func
  96              		.type	CYCONFIGCPYCODE, %function
  97              	CYCONFIGCPYCODE:
  98              	.LFB2:
ARM GAS  C:\Users\Keshuai\AppData\Local\Temp\cckKd49v.s 			page 4


  74:Generated_Source\PSoC5/cyfitter_cfg.c **** CY_CFG_UNUSED
  75:Generated_Source\PSoC5/cyfitter_cfg.c **** static void CYCONFIGCPYCODE(void *dest, const void *src, size_t n);
  76:Generated_Source\PSoC5/cyfitter_cfg.c **** CY_CFG_UNUSED
  77:Generated_Source\PSoC5/cyfitter_cfg.c **** static void CYCONFIGCPYCODE(void *dest, const void *src, size_t n)
  78:Generated_Source\PSoC5/cyfitter_cfg.c **** {
  99              		.loc 1 78 0
 100              		.cfi_startproc
 101              		@ args = 0, pretend = 0, frame = 16
 102              		@ frame_needed = 1, uses_anonymous_args = 0
 103 0000 80B5     		push	{r7, lr}
 104              		.cfi_def_cfa_offset 8
 105              		.cfi_offset 7, -8
 106              		.cfi_offset 14, -4
 107 0002 84B0     		sub	sp, sp, #16
 108              		.cfi_def_cfa_offset 24
 109 0004 00AF     		add	r7, sp, #0
 110              		.cfi_def_cfa_register 7
 111 0006 F860     		str	r0, [r7, #12]
 112 0008 B960     		str	r1, [r7, #8]
 113 000a 7A60     		str	r2, [r7, #4]
  79:Generated_Source\PSoC5/cyfitter_cfg.c **** 	(void)memcpy(dest, src, n);
 114              		.loc 1 79 0
 115 000c F868     		ldr	r0, [r7, #12]
 116 000e B968     		ldr	r1, [r7, #8]
 117 0010 7A68     		ldr	r2, [r7, #4]
 118 0012 FFF7FEFF 		bl	memcpy
  80:Generated_Source\PSoC5/cyfitter_cfg.c **** }
 119              		.loc 1 80 0
 120 0016 1037     		adds	r7, r7, #16
 121              		.cfi_def_cfa_offset 8
 122 0018 BD46     		mov	sp, r7
 123              		.cfi_def_cfa_register 13
 124              		@ sp needed
 125 001a 80BD     		pop	{r7, pc}
 126              		.cfi_endproc
 127              	.LFE2:
 128              		.size	CYCONFIGCPYCODE, .-CYCONFIGCPYCODE
 129              		.section	.text.CyClockStartupError,"ax",%progbits
 130              		.align	2
 131              		.thumb
 132              		.thumb_func
 133              		.type	CyClockStartupError, %function
 134              	CyClockStartupError:
 135              	.LFB3:
  81:Generated_Source\PSoC5/cyfitter_cfg.c **** 
  82:Generated_Source\PSoC5/cyfitter_cfg.c **** 
  83:Generated_Source\PSoC5/cyfitter_cfg.c **** 
  84:Generated_Source\PSoC5/cyfitter_cfg.c **** 
  85:Generated_Source\PSoC5/cyfitter_cfg.c **** /* Clock startup error codes                                                   */
  86:Generated_Source\PSoC5/cyfitter_cfg.c **** #define CYCLOCKSTART_NO_ERROR    0u
  87:Generated_Source\PSoC5/cyfitter_cfg.c **** #define CYCLOCKSTART_XTAL_ERROR  1u
  88:Generated_Source\PSoC5/cyfitter_cfg.c **** #define CYCLOCKSTART_32KHZ_ERROR 2u
  89:Generated_Source\PSoC5/cyfitter_cfg.c **** #define CYCLOCKSTART_PLL_ERROR   3u
  90:Generated_Source\PSoC5/cyfitter_cfg.c **** 
  91:Generated_Source\PSoC5/cyfitter_cfg.c **** 
  92:Generated_Source\PSoC5/cyfitter_cfg.c **** #ifdef CY_NEED_CYCLOCKSTARTUPERROR
  93:Generated_Source\PSoC5/cyfitter_cfg.c **** /*******************************************************************************
ARM GAS  C:\Users\Keshuai\AppData\Local\Temp\cckKd49v.s 			page 5


  94:Generated_Source\PSoC5/cyfitter_cfg.c **** * Function Name: CyClockStartupError
  95:Generated_Source\PSoC5/cyfitter_cfg.c **** ********************************************************************************
  96:Generated_Source\PSoC5/cyfitter_cfg.c **** * Summary:
  97:Generated_Source\PSoC5/cyfitter_cfg.c **** *  If an error is encountered during clock configuration (crystal startup error,
  98:Generated_Source\PSoC5/cyfitter_cfg.c **** *  PLL lock error, etc.), the system will end up here.  Unless reimplemented by
  99:Generated_Source\PSoC5/cyfitter_cfg.c **** *  the customer, this function will stop in an infinite loop.
 100:Generated_Source\PSoC5/cyfitter_cfg.c **** *
 101:Generated_Source\PSoC5/cyfitter_cfg.c **** * Parameters:
 102:Generated_Source\PSoC5/cyfitter_cfg.c **** *   void
 103:Generated_Source\PSoC5/cyfitter_cfg.c **** *
 104:Generated_Source\PSoC5/cyfitter_cfg.c **** * Return:
 105:Generated_Source\PSoC5/cyfitter_cfg.c **** *   void
 106:Generated_Source\PSoC5/cyfitter_cfg.c **** *
 107:Generated_Source\PSoC5/cyfitter_cfg.c **** *******************************************************************************/
 108:Generated_Source\PSoC5/cyfitter_cfg.c **** CY_CFG_UNUSED
 109:Generated_Source\PSoC5/cyfitter_cfg.c **** static void CyClockStartupError(uint8 errorCode);
 110:Generated_Source\PSoC5/cyfitter_cfg.c **** CY_CFG_UNUSED
 111:Generated_Source\PSoC5/cyfitter_cfg.c **** static void CyClockStartupError(uint8 errorCode)
 112:Generated_Source\PSoC5/cyfitter_cfg.c **** {
 136              		.loc 1 112 0
 137              		.cfi_startproc
 138              		@ args = 0, pretend = 0, frame = 8
 139              		@ frame_needed = 1, uses_anonymous_args = 0
 140              		@ link register save eliminated.
 141 0000 80B4     		push	{r7}
 142              		.cfi_def_cfa_offset 4
 143              		.cfi_offset 7, -4
 144 0002 83B0     		sub	sp, sp, #12
 145              		.cfi_def_cfa_offset 16
 146 0004 00AF     		add	r7, sp, #0
 147              		.cfi_def_cfa_register 7
 148 0006 0346     		mov	r3, r0
 149 0008 FB71     		strb	r3, [r7, #7]
 150              	.L5:
 113:Generated_Source\PSoC5/cyfitter_cfg.c ****     /* To remove the compiler warning if errorCode not used.                */
 114:Generated_Source\PSoC5/cyfitter_cfg.c ****     errorCode = errorCode;
 115:Generated_Source\PSoC5/cyfitter_cfg.c **** 
 116:Generated_Source\PSoC5/cyfitter_cfg.c ****     /* If we have a clock startup error (bad MHz crystal, PLL lock, etc.),  */
 117:Generated_Source\PSoC5/cyfitter_cfg.c ****     /* we will end up here to allow the customer to implement something to  */
 118:Generated_Source\PSoC5/cyfitter_cfg.c ****     /* deal with the clock condition.                                       */
 119:Generated_Source\PSoC5/cyfitter_cfg.c **** 
 120:Generated_Source\PSoC5/cyfitter_cfg.c **** #ifdef CY_CFG_CLOCK_STARTUP_ERROR_CALLBACK
 121:Generated_Source\PSoC5/cyfitter_cfg.c **** 	CY_CFG_Clock_Startup_ErrorCallback();
 122:Generated_Source\PSoC5/cyfitter_cfg.c **** #else
 123:Generated_Source\PSoC5/cyfitter_cfg.c **** 	/*  If not using CY_CFG_CLOCK_STARTUP_ERROR_CALLBACK, place your clock startup code here. */
 124:Generated_Source\PSoC5/cyfitter_cfg.c ****     /* `#START CyClockStartupError` */
 125:Generated_Source\PSoC5/cyfitter_cfg.c **** 
 126:Generated_Source\PSoC5/cyfitter_cfg.c **** 
 127:Generated_Source\PSoC5/cyfitter_cfg.c **** 
 128:Generated_Source\PSoC5/cyfitter_cfg.c ****     /* `#END` */
 129:Generated_Source\PSoC5/cyfitter_cfg.c **** 
 130:Generated_Source\PSoC5/cyfitter_cfg.c ****     /* If nothing else, stop here since the clocks have not started         */
 131:Generated_Source\PSoC5/cyfitter_cfg.c ****     /* correctly.                                                           */
 132:Generated_Source\PSoC5/cyfitter_cfg.c ****     while(1) {}
 151              		.loc 1 132 0 discriminator 1
 152 000a FEE7     		b	.L5
 153              		.cfi_endproc
ARM GAS  C:\Users\Keshuai\AppData\Local\Temp\cckKd49v.s 			page 6


 154              	.LFE3:
 155              		.size	CyClockStartupError, .-CyClockStartupError
 156              		.section	.text.cfg_write_bytes32,"ax",%progbits
 157              		.align	2
 158              		.thumb
 159              		.thumb_func
 160              		.type	cfg_write_bytes32, %function
 161              	cfg_write_bytes32:
 162              	.LFB4:
 133:Generated_Source\PSoC5/cyfitter_cfg.c **** #endif /* CY_CFG_CLOCK_STARTUP_ERROR_CALLBACK */ 
 134:Generated_Source\PSoC5/cyfitter_cfg.c **** }
 135:Generated_Source\PSoC5/cyfitter_cfg.c **** #endif
 136:Generated_Source\PSoC5/cyfitter_cfg.c **** 
 137:Generated_Source\PSoC5/cyfitter_cfg.c **** #define CY_CFG_BASE_ADDR_COUNT 22u
 138:Generated_Source\PSoC5/cyfitter_cfg.c **** CYPACKED typedef struct
 139:Generated_Source\PSoC5/cyfitter_cfg.c **** {
 140:Generated_Source\PSoC5/cyfitter_cfg.c **** 	uint8 offset;
 141:Generated_Source\PSoC5/cyfitter_cfg.c **** 	uint8 value;
 142:Generated_Source\PSoC5/cyfitter_cfg.c **** } CYPACKED_ATTR cy_cfg_addrvalue_t;
 143:Generated_Source\PSoC5/cyfitter_cfg.c **** 
 144:Generated_Source\PSoC5/cyfitter_cfg.c **** #define cy_cfg_addr_table ((const uint32 CYFAR *)0x48000000u)
 145:Generated_Source\PSoC5/cyfitter_cfg.c **** #define cy_cfg_data_table ((const cy_cfg_addrvalue_t CYFAR *)0x48000058u)
 146:Generated_Source\PSoC5/cyfitter_cfg.c **** 
 147:Generated_Source\PSoC5/cyfitter_cfg.c **** /* IOPINS0_0 Address: CYREG_PRT0_DM0 Size (bytes): 8 */
 148:Generated_Source\PSoC5/cyfitter_cfg.c **** #define BS_IOPINS0_0_VAL ((const uint8 CYFAR *)0x480000B8u)
 149:Generated_Source\PSoC5/cyfitter_cfg.c **** 
 150:Generated_Source\PSoC5/cyfitter_cfg.c **** /* IOPINS0_8 Address: CYREG_PRT15_DR Size (bytes): 10 */
 151:Generated_Source\PSoC5/cyfitter_cfg.c **** #define BS_IOPINS0_8_VAL ((const uint8 CYFAR *)0x480000C0u)
 152:Generated_Source\PSoC5/cyfitter_cfg.c **** 
 153:Generated_Source\PSoC5/cyfitter_cfg.c **** /* IOPINS0_1 Address: CYREG_PRT1_DM0 Size (bytes): 8 */
 154:Generated_Source\PSoC5/cyfitter_cfg.c **** #define BS_IOPINS0_1_VAL ((const uint8 CYFAR *)0x480000CCu)
 155:Generated_Source\PSoC5/cyfitter_cfg.c **** 
 156:Generated_Source\PSoC5/cyfitter_cfg.c **** /* IOPINS0_2 Address: CYREG_PRT2_DM0 Size (bytes): 8 */
 157:Generated_Source\PSoC5/cyfitter_cfg.c **** #define BS_IOPINS0_2_VAL ((const uint8 CYFAR *)0x480000D4u)
 158:Generated_Source\PSoC5/cyfitter_cfg.c **** 
 159:Generated_Source\PSoC5/cyfitter_cfg.c **** /* CYDEV_CLKDIST_ACFG0_CFG0 Address: CYREG_CLKDIST_ACFG0_CFG0 Size (bytes): 4 */
 160:Generated_Source\PSoC5/cyfitter_cfg.c **** #define BS_CYDEV_CLKDIST_ACFG0_CFG0_VAL ((const uint8 CYFAR *)0x480000DCu)
 161:Generated_Source\PSoC5/cyfitter_cfg.c **** 
 162:Generated_Source\PSoC5/cyfitter_cfg.c **** 
 163:Generated_Source\PSoC5/cyfitter_cfg.c **** /*******************************************************************************
 164:Generated_Source\PSoC5/cyfitter_cfg.c **** * Function Name: cfg_write_bytes32
 165:Generated_Source\PSoC5/cyfitter_cfg.c **** ********************************************************************************
 166:Generated_Source\PSoC5/cyfitter_cfg.c **** * Summary:
 167:Generated_Source\PSoC5/cyfitter_cfg.c **** *  This function is used for setting up the chip configuration areas that
 168:Generated_Source\PSoC5/cyfitter_cfg.c **** *  contain relatively sparse data.
 169:Generated_Source\PSoC5/cyfitter_cfg.c **** *
 170:Generated_Source\PSoC5/cyfitter_cfg.c **** * Parameters:
 171:Generated_Source\PSoC5/cyfitter_cfg.c **** *   void
 172:Generated_Source\PSoC5/cyfitter_cfg.c **** *
 173:Generated_Source\PSoC5/cyfitter_cfg.c **** * Return:
 174:Generated_Source\PSoC5/cyfitter_cfg.c **** *   void
 175:Generated_Source\PSoC5/cyfitter_cfg.c **** *
 176:Generated_Source\PSoC5/cyfitter_cfg.c **** *******************************************************************************/
 177:Generated_Source\PSoC5/cyfitter_cfg.c **** static void cfg_write_bytes32(const uint32 addr_table[], const cy_cfg_addrvalue_t data_table[]);
 178:Generated_Source\PSoC5/cyfitter_cfg.c **** static void cfg_write_bytes32(const uint32 addr_table[], const cy_cfg_addrvalue_t data_table[])
 179:Generated_Source\PSoC5/cyfitter_cfg.c **** {
 163              		.loc 1 179 0
ARM GAS  C:\Users\Keshuai\AppData\Local\Temp\cckKd49v.s 			page 7


 164              		.cfi_startproc
 165              		@ args = 0, pretend = 0, frame = 24
 166              		@ frame_needed = 1, uses_anonymous_args = 0
 167              		@ link register save eliminated.
 168 0000 80B4     		push	{r7}
 169              		.cfi_def_cfa_offset 4
 170              		.cfi_offset 7, -4
 171 0002 87B0     		sub	sp, sp, #28
 172              		.cfi_def_cfa_offset 32
 173 0004 00AF     		add	r7, sp, #0
 174              		.cfi_def_cfa_register 7
 175 0006 7860     		str	r0, [r7, #4]
 176 0008 3960     		str	r1, [r7]
 180:Generated_Source\PSoC5/cyfitter_cfg.c **** 	/* For 32-bit little-endian architectures */
 181:Generated_Source\PSoC5/cyfitter_cfg.c **** 	uint32 i, j = 0u;
 177              		.loc 1 181 0
 178 000a 0023     		movs	r3, #0
 179 000c 3B61     		str	r3, [r7, #16]
 182:Generated_Source\PSoC5/cyfitter_cfg.c **** 	for (i = 0u; i < CY_CFG_BASE_ADDR_COUNT; i++)
 180              		.loc 1 182 0
 181 000e 0023     		movs	r3, #0
 182 0010 7B61     		str	r3, [r7, #20]
 183 0012 27E0     		b	.L7
 184              	.L10:
 185              	.LBB2:
 183:Generated_Source\PSoC5/cyfitter_cfg.c **** 	{
 184:Generated_Source\PSoC5/cyfitter_cfg.c **** 		uint32 baseAddr = addr_table[i];
 186              		.loc 1 184 0
 187 0014 7B69     		ldr	r3, [r7, #20]
 188 0016 9B00     		lsls	r3, r3, #2
 189 0018 7A68     		ldr	r2, [r7, #4]
 190 001a 1344     		add	r3, r3, r2
 191 001c 1B68     		ldr	r3, [r3]
 192 001e BB60     		str	r3, [r7, #8]
 185:Generated_Source\PSoC5/cyfitter_cfg.c **** 		uint8 count = (uint8)baseAddr;
 193              		.loc 1 185 0
 194 0020 BB68     		ldr	r3, [r7, #8]
 195 0022 FB73     		strb	r3, [r7, #15]
 186:Generated_Source\PSoC5/cyfitter_cfg.c **** 		baseAddr &= 0xFFFFFF00u;
 196              		.loc 1 186 0
 197 0024 BB68     		ldr	r3, [r7, #8]
 198 0026 23F0FF03 		bic	r3, r3, #255
 199 002a BB60     		str	r3, [r7, #8]
 187:Generated_Source\PSoC5/cyfitter_cfg.c **** 		while (count != 0u)
 200              		.loc 1 187 0
 201 002c 14E0     		b	.L8
 202              	.L9:
 188:Generated_Source\PSoC5/cyfitter_cfg.c **** 		{
 189:Generated_Source\PSoC5/cyfitter_cfg.c **** 			CY_SET_XTND_REG8((void CYFAR *)(baseAddr + data_table[j].offset), data_table[j].value);
 203              		.loc 1 189 0
 204 002e 3B69     		ldr	r3, [r7, #16]
 205 0030 5B00     		lsls	r3, r3, #1
 206 0032 3A68     		ldr	r2, [r7]
 207 0034 1344     		add	r3, r3, r2
 208 0036 1B78     		ldrb	r3, [r3]	@ zero_extendqisi2
 209 0038 1A46     		mov	r2, r3
 210 003a BB68     		ldr	r3, [r7, #8]
ARM GAS  C:\Users\Keshuai\AppData\Local\Temp\cckKd49v.s 			page 8


 211 003c 1344     		add	r3, r3, r2
 212 003e 1946     		mov	r1, r3
 213 0040 3B69     		ldr	r3, [r7, #16]
 214 0042 5B00     		lsls	r3, r3, #1
 215 0044 3A68     		ldr	r2, [r7]
 216 0046 1344     		add	r3, r3, r2
 217 0048 5B78     		ldrb	r3, [r3, #1]	@ zero_extendqisi2
 218 004a 0B70     		strb	r3, [r1]
 190:Generated_Source\PSoC5/cyfitter_cfg.c **** 			j++;
 219              		.loc 1 190 0
 220 004c 3B69     		ldr	r3, [r7, #16]
 221 004e 0133     		adds	r3, r3, #1
 222 0050 3B61     		str	r3, [r7, #16]
 191:Generated_Source\PSoC5/cyfitter_cfg.c **** 			count--;
 223              		.loc 1 191 0
 224 0052 FB7B     		ldrb	r3, [r7, #15]	@ zero_extendqisi2
 225 0054 013B     		subs	r3, r3, #1
 226 0056 FB73     		strb	r3, [r7, #15]
 227              	.L8:
 187:Generated_Source\PSoC5/cyfitter_cfg.c **** 		{
 228              		.loc 1 187 0
 229 0058 FB7B     		ldrb	r3, [r7, #15]	@ zero_extendqisi2
 230 005a 002B     		cmp	r3, #0
 231 005c E7D1     		bne	.L9
 232              	.LBE2:
 182:Generated_Source\PSoC5/cyfitter_cfg.c **** 	{
 233              		.loc 1 182 0 discriminator 2
 234 005e 7B69     		ldr	r3, [r7, #20]
 235 0060 0133     		adds	r3, r3, #1
 236 0062 7B61     		str	r3, [r7, #20]
 237              	.L7:
 182:Generated_Source\PSoC5/cyfitter_cfg.c **** 	{
 238              		.loc 1 182 0 is_stmt 0 discriminator 1
 239 0064 7B69     		ldr	r3, [r7, #20]
 240 0066 152B     		cmp	r3, #21
 241 0068 D4D9     		bls	.L10
 192:Generated_Source\PSoC5/cyfitter_cfg.c **** 		}
 193:Generated_Source\PSoC5/cyfitter_cfg.c **** 	}
 194:Generated_Source\PSoC5/cyfitter_cfg.c **** }
 242              		.loc 1 194 0 is_stmt 1
 243 006a 1C37     		adds	r7, r7, #28
 244              		.cfi_def_cfa_offset 4
 245 006c BD46     		mov	sp, r7
 246              		.cfi_def_cfa_register 13
 247              		@ sp needed
 248 006e 5DF8047B 		ldr	r7, [sp], #4
 249              		.cfi_restore 7
 250              		.cfi_def_cfa_offset 0
 251 0072 7047     		bx	lr
 252              		.cfi_endproc
 253              	.LFE4:
 254              		.size	cfg_write_bytes32, .-cfg_write_bytes32
 255              		.section	.text.ClockSetup,"ax",%progbits
 256              		.align	2
 257              		.thumb
 258              		.thumb_func
 259              		.type	ClockSetup, %function
ARM GAS  C:\Users\Keshuai\AppData\Local\Temp\cckKd49v.s 			page 9


 260              	ClockSetup:
 261              	.LFB5:
 195:Generated_Source\PSoC5/cyfitter_cfg.c **** 
 196:Generated_Source\PSoC5/cyfitter_cfg.c **** /*******************************************************************************
 197:Generated_Source\PSoC5/cyfitter_cfg.c **** * Function Name: ClockSetup
 198:Generated_Source\PSoC5/cyfitter_cfg.c **** ********************************************************************************
 199:Generated_Source\PSoC5/cyfitter_cfg.c **** *
 200:Generated_Source\PSoC5/cyfitter_cfg.c **** * Summary:
 201:Generated_Source\PSoC5/cyfitter_cfg.c **** *  Performs the initialization of all of the clocks in the device based on the
 202:Generated_Source\PSoC5/cyfitter_cfg.c **** *  settings in the Clock tab of the DWR.  This includes enabling the requested
 203:Generated_Source\PSoC5/cyfitter_cfg.c **** *  clocks and setting the necessary dividers to produce the desired frequency. 
 204:Generated_Source\PSoC5/cyfitter_cfg.c **** *
 205:Generated_Source\PSoC5/cyfitter_cfg.c **** * Parameters:
 206:Generated_Source\PSoC5/cyfitter_cfg.c **** *  void
 207:Generated_Source\PSoC5/cyfitter_cfg.c **** *
 208:Generated_Source\PSoC5/cyfitter_cfg.c **** * Return:
 209:Generated_Source\PSoC5/cyfitter_cfg.c **** *  void
 210:Generated_Source\PSoC5/cyfitter_cfg.c **** *
 211:Generated_Source\PSoC5/cyfitter_cfg.c **** *******************************************************************************/
 212:Generated_Source\PSoC5/cyfitter_cfg.c **** static void ClockSetup(void);
 213:Generated_Source\PSoC5/cyfitter_cfg.c **** static void ClockSetup(void)
 214:Generated_Source\PSoC5/cyfitter_cfg.c **** {
 262              		.loc 1 214 0
 263              		.cfi_startproc
 264              		@ args = 0, pretend = 0, frame = 8
 265              		@ frame_needed = 1, uses_anonymous_args = 0
 266 0000 80B5     		push	{r7, lr}
 267              		.cfi_def_cfa_offset 8
 268              		.cfi_offset 7, -8
 269              		.cfi_offset 14, -4
 270 0002 82B0     		sub	sp, sp, #8
 271              		.cfi_def_cfa_offset 16
 272 0004 00AF     		add	r7, sp, #0
 273              		.cfi_def_cfa_register 7
 215:Generated_Source\PSoC5/cyfitter_cfg.c **** 	uint32 timeout;
 216:Generated_Source\PSoC5/cyfitter_cfg.c **** 	uint8 pllLock;
 217:Generated_Source\PSoC5/cyfitter_cfg.c **** 
 218:Generated_Source\PSoC5/cyfitter_cfg.c **** 
 219:Generated_Source\PSoC5/cyfitter_cfg.c **** 	/* Configure Digital Clocks based on settings from Clock DWR */
 220:Generated_Source\PSoC5/cyfitter_cfg.c **** 	CY_SET_XTND_REG16((void CYFAR *)(CYREG_CLKDIST_DCFG0_CFG0), 0x0000u);
 274              		.loc 1 220 0
 275 0006 3C4B     		ldr	r3, .L16
 276 0008 0022     		movs	r2, #0
 277 000a 1A80     		strh	r2, [r3]	@ movhi
 221:Generated_Source\PSoC5/cyfitter_cfg.c **** 	CY_SET_XTND_REG8((void CYFAR *)(CYREG_CLKDIST_DCFG0_CFG0 + 0x2u), 0x50u);
 278              		.loc 1 221 0
 279 000c 3B4B     		ldr	r3, .L16+4
 280 000e 5022     		movs	r2, #80
 281 0010 1A70     		strb	r2, [r3]
 222:Generated_Source\PSoC5/cyfitter_cfg.c **** 
 223:Generated_Source\PSoC5/cyfitter_cfg.c **** 	/* Configure Analog Clocks based on settings from Clock DWR */
 224:Generated_Source\PSoC5/cyfitter_cfg.c **** 	CYCONFIGCPY((void CYFAR *)(CYREG_CLKDIST_ACFG0_CFG0), (const void CYFAR *)(BS_CYDEV_CLKDIST_ACFG0_
 282              		.loc 1 224 0
 283 0012 3B48     		ldr	r0, .L16+8
 284 0014 3B49     		ldr	r1, .L16+12
 285 0016 0422     		movs	r2, #4
 286 0018 FFF7FEFF 		bl	CYCONFIGCPY
ARM GAS  C:\Users\Keshuai\AppData\Local\Temp\cckKd49v.s 			page 10


 225:Generated_Source\PSoC5/cyfitter_cfg.c **** 
 226:Generated_Source\PSoC5/cyfitter_cfg.c **** 	/* Configure ILO based on settings from Clock DWR */
 227:Generated_Source\PSoC5/cyfitter_cfg.c **** 	CY_SET_XTND_REG8((void CYFAR *)(CYREG_SLOWCLK_ILO_CR0), 0x06u);
 287              		.loc 1 227 0
 288 001c 3A4B     		ldr	r3, .L16+16
 289 001e 0622     		movs	r2, #6
 290 0020 1A70     		strb	r2, [r3]
 228:Generated_Source\PSoC5/cyfitter_cfg.c **** 
 229:Generated_Source\PSoC5/cyfitter_cfg.c **** 	/* Configure IMO based on settings from Clock DWR */
 230:Generated_Source\PSoC5/cyfitter_cfg.c **** 	CY_SET_XTND_REG8((void CYFAR *)(CYREG_FASTCLK_IMO_CR), 0x52u);
 291              		.loc 1 230 0
 292 0022 3A4B     		ldr	r3, .L16+20
 293 0024 5222     		movs	r2, #82
 294 0026 1A70     		strb	r2, [r3]
 231:Generated_Source\PSoC5/cyfitter_cfg.c **** 	CY_SET_XTND_REG8((void CYFAR *)(CYREG_IMO_TR1), (CY_GET_XTND_REG8((void CYFAR *)CYREG_FLSHID_CUST_
 295              		.loc 1 231 0
 296 0028 394B     		ldr	r3, .L16+24
 297 002a 3A4A     		ldr	r2, .L16+28
 298 002c 1278     		ldrb	r2, [r2]
 299 002e D2B2     		uxtb	r2, r2
 300 0030 1A70     		strb	r2, [r3]
 232:Generated_Source\PSoC5/cyfitter_cfg.c **** 
 233:Generated_Source\PSoC5/cyfitter_cfg.c **** 	/* Configure PLL based on settings from Clock DWR */
 234:Generated_Source\PSoC5/cyfitter_cfg.c **** 	CY_SET_XTND_REG16((void CYFAR *)(CYREG_FASTCLK_PLL_P), 0x0708u);
 301              		.loc 1 234 0
 302 0032 394B     		ldr	r3, .L16+32
 303 0034 4FF4E162 		mov	r2, #1800
 304 0038 1A80     		strh	r2, [r3]	@ movhi
 235:Generated_Source\PSoC5/cyfitter_cfg.c **** 	CY_SET_XTND_REG16((void CYFAR *)(CYREG_FASTCLK_PLL_CFG0), 0x1251u);
 305              		.loc 1 235 0
 306 003a 384B     		ldr	r3, .L16+36
 307 003c 41F25122 		movw	r2, #4689
 308 0040 1A80     		strh	r2, [r3]	@ movhi
 236:Generated_Source\PSoC5/cyfitter_cfg.c **** 	/* Wait up to 250us for the PLL to lock */
 237:Generated_Source\PSoC5/cyfitter_cfg.c **** 	pllLock = 0u;
 309              		.loc 1 237 0
 310 0042 0023     		movs	r3, #0
 311 0044 FB70     		strb	r3, [r7, #3]
 238:Generated_Source\PSoC5/cyfitter_cfg.c **** 	for (timeout = 250u / 10u; (timeout > 0u) && (pllLock != 0x03u); timeout--)
 312              		.loc 1 238 0
 313 0046 1923     		movs	r3, #25
 314 0048 7B60     		str	r3, [r7, #4]
 315 004a 14E0     		b	.L12
 316              	.L14:
 239:Generated_Source\PSoC5/cyfitter_cfg.c **** 	{ 
 240:Generated_Source\PSoC5/cyfitter_cfg.c **** 		pllLock = 0x03u & ((uint8)((uint8)pllLock << 1) | ((CY_GET_XTND_REG8((void CYFAR *)CYREG_FASTCLK_
 317              		.loc 1 240 0 discriminator 4
 318 004c FB78     		ldrb	r3, [r7, #3]
 319 004e 5B00     		lsls	r3, r3, #1
 320 0050 DAB2     		uxtb	r2, r3
 321 0052 334B     		ldr	r3, .L16+40
 322 0054 1B78     		ldrb	r3, [r3]
 323 0056 DBB2     		uxtb	r3, r3
 324 0058 03F00103 		and	r3, r3, #1
 325 005c DBB2     		uxtb	r3, r3
 326 005e 1343     		orrs	r3, r3, r2
 327 0060 DBB2     		uxtb	r3, r3
ARM GAS  C:\Users\Keshuai\AppData\Local\Temp\cckKd49v.s 			page 11


 328 0062 03F00303 		and	r3, r3, #3
 329 0066 FB70     		strb	r3, [r7, #3]
 241:Generated_Source\PSoC5/cyfitter_cfg.c **** 		CyDelayCycles(10u * 48u); /* Delay 10us based on 48MHz clock */
 330              		.loc 1 241 0 discriminator 4
 331 0068 4FF4F070 		mov	r0, #480
 332 006c FFF7FEFF 		bl	CyDelayCycles
 238:Generated_Source\PSoC5/cyfitter_cfg.c **** 	for (timeout = 250u / 10u; (timeout > 0u) && (pllLock != 0x03u); timeout--)
 333              		.loc 1 238 0 discriminator 4
 334 0070 7B68     		ldr	r3, [r7, #4]
 335 0072 013B     		subs	r3, r3, #1
 336 0074 7B60     		str	r3, [r7, #4]
 337              	.L12:
 238:Generated_Source\PSoC5/cyfitter_cfg.c **** 	for (timeout = 250u / 10u; (timeout > 0u) && (pllLock != 0x03u); timeout--)
 338              		.loc 1 238 0 is_stmt 0 discriminator 1
 339 0076 7B68     		ldr	r3, [r7, #4]
 340 0078 002B     		cmp	r3, #0
 341 007a 02D0     		beq	.L13
 238:Generated_Source\PSoC5/cyfitter_cfg.c **** 	for (timeout = 250u / 10u; (timeout > 0u) && (pllLock != 0x03u); timeout--)
 342              		.loc 1 238 0 discriminator 3
 343 007c FB78     		ldrb	r3, [r7, #3]	@ zero_extendqisi2
 344 007e 032B     		cmp	r3, #3
 345 0080 E4D1     		bne	.L14
 346              	.L13:
 242:Generated_Source\PSoC5/cyfitter_cfg.c **** 	}
 243:Generated_Source\PSoC5/cyfitter_cfg.c **** 	/* If we ran out of time the PLL didn't lock so go to the error function */
 244:Generated_Source\PSoC5/cyfitter_cfg.c **** 	if (timeout == 0u)
 347              		.loc 1 244 0 is_stmt 1
 348 0082 7B68     		ldr	r3, [r7, #4]
 349 0084 002B     		cmp	r3, #0
 350 0086 02D1     		bne	.L15
 245:Generated_Source\PSoC5/cyfitter_cfg.c **** 	{
 246:Generated_Source\PSoC5/cyfitter_cfg.c **** 		CyClockStartupError(CYCLOCKSTART_PLL_ERROR);
 351              		.loc 1 246 0
 352 0088 0320     		movs	r0, #3
 353 008a FFF7FEFF 		bl	CyClockStartupError
 354              	.L15:
 247:Generated_Source\PSoC5/cyfitter_cfg.c **** 	}
 248:Generated_Source\PSoC5/cyfitter_cfg.c **** 
 249:Generated_Source\PSoC5/cyfitter_cfg.c **** 	/* Configure Bus/Master Clock based on settings from Clock DWR */
 250:Generated_Source\PSoC5/cyfitter_cfg.c **** 	CY_SET_XTND_REG16((void CYFAR *)(CYREG_CLKDIST_MSTR0), 0x0100u);
 355              		.loc 1 250 0
 356 008e 254B     		ldr	r3, .L16+44
 357 0090 4FF48072 		mov	r2, #256
 358 0094 1A80     		strh	r2, [r3]	@ movhi
 251:Generated_Source\PSoC5/cyfitter_cfg.c **** 	CY_SET_XTND_REG8((void CYFAR *)(CYREG_CLKDIST_MSTR0), 0x07u);
 359              		.loc 1 251 0
 360 0096 234B     		ldr	r3, .L16+44
 361 0098 0722     		movs	r2, #7
 362 009a 1A70     		strb	r2, [r3]
 252:Generated_Source\PSoC5/cyfitter_cfg.c **** 	CY_SET_XTND_REG8((void CYFAR *)(CYREG_CLKDIST_BCFG0), 0x00u);
 363              		.loc 1 252 0
 364 009c 224B     		ldr	r3, .L16+48
 365 009e 0022     		movs	r2, #0
 366 00a0 1A70     		strb	r2, [r3]
 253:Generated_Source\PSoC5/cyfitter_cfg.c **** 	CY_SET_XTND_REG8((void CYFAR *)(CYREG_CLKDIST_BCFG2), 0x48u);
 367              		.loc 1 253 0
 368 00a2 224B     		ldr	r3, .L16+52
ARM GAS  C:\Users\Keshuai\AppData\Local\Temp\cckKd49v.s 			page 12


 369 00a4 4822     		movs	r2, #72
 370 00a6 1A70     		strb	r2, [r3]
 254:Generated_Source\PSoC5/cyfitter_cfg.c **** 	CY_SET_XTND_REG8((void CYFAR *)(CYREG_CLKDIST_MSTR0), 0x00u);
 371              		.loc 1 254 0
 372 00a8 1E4B     		ldr	r3, .L16+44
 373 00aa 0022     		movs	r2, #0
 374 00ac 1A70     		strb	r2, [r3]
 255:Generated_Source\PSoC5/cyfitter_cfg.c **** 
 256:Generated_Source\PSoC5/cyfitter_cfg.c **** 	/* Configure USB Clock based on settings from Clock DWR */
 257:Generated_Source\PSoC5/cyfitter_cfg.c **** 	CY_SET_XTND_REG8((void CYFAR *)(CYREG_CLKDIST_UCFG), 0x00u);
 375              		.loc 1 257 0
 376 00ae 204B     		ldr	r3, .L16+56
 377 00b0 0022     		movs	r2, #0
 378 00b2 1A70     		strb	r2, [r3]
 258:Generated_Source\PSoC5/cyfitter_cfg.c **** 	CY_SET_XTND_REG8((void CYFAR *)(CYREG_CLKDIST_LD), 0x02u);
 379              		.loc 1 258 0
 380 00b4 1F4B     		ldr	r3, .L16+60
 381 00b6 0222     		movs	r2, #2
 382 00b8 1A70     		strb	r2, [r3]
 259:Generated_Source\PSoC5/cyfitter_cfg.c **** 	CY_SET_XTND_REG8((void CYFAR *)(CYREG_CLKDIST_DLY1), 0x04u);
 383              		.loc 1 259 0
 384 00ba 1F4B     		ldr	r3, .L16+64
 385 00bc 0422     		movs	r2, #4
 386 00be 1A70     		strb	r2, [r3]
 260:Generated_Source\PSoC5/cyfitter_cfg.c **** 
 261:Generated_Source\PSoC5/cyfitter_cfg.c **** 	CY_SET_XTND_REG8((void CYFAR *)(CYREG_PM_ACT_CFG2), ((CY_GET_XTND_REG8((void CYFAR *)CYREG_PM_ACT_
 387              		.loc 1 261 0
 388 00c0 1E4A     		ldr	r2, .L16+68
 389 00c2 1E4B     		ldr	r3, .L16+68
 390 00c4 1B78     		ldrb	r3, [r3]
 391 00c6 DBB2     		uxtb	r3, r3
 392 00c8 43F00103 		orr	r3, r3, #1
 393 00cc DBB2     		uxtb	r3, r3
 394 00ce 1370     		strb	r3, [r2]
 262:Generated_Source\PSoC5/cyfitter_cfg.c **** 	CY_SET_XTND_REG8((void CYFAR *)(CYREG_PM_ACT_CFG1), ((CY_GET_XTND_REG8((void CYFAR *)CYREG_PM_ACT_
 395              		.loc 1 262 0
 396 00d0 1B4A     		ldr	r2, .L16+72
 397 00d2 1B4B     		ldr	r3, .L16+72
 398 00d4 1B78     		ldrb	r3, [r3]
 399 00d6 DBB2     		uxtb	r3, r3
 400 00d8 43F00103 		orr	r3, r3, #1
 401 00dc DBB2     		uxtb	r3, r3
 402 00de 1370     		strb	r3, [r2]
 263:Generated_Source\PSoC5/cyfitter_cfg.c **** 	CY_SET_XTND_REG8((void CYFAR *)(CYREG_PM_ACT_CFG0), ((CY_GET_XTND_REG8((void CYFAR *)CYREG_PM_ACT_
 403              		.loc 1 263 0
 404 00e0 184A     		ldr	r2, .L16+76
 405 00e2 184B     		ldr	r3, .L16+76
 406 00e4 1B78     		ldrb	r3, [r3]
 407 00e6 DBB2     		uxtb	r3, r3
 408 00e8 63F07F03 		orn	r3, r3, #127
 409 00ec DBB2     		uxtb	r3, r3
 410 00ee 1370     		strb	r3, [r2]
 264:Generated_Source\PSoC5/cyfitter_cfg.c **** }
 411              		.loc 1 264 0
 412 00f0 0837     		adds	r7, r7, #8
 413              		.cfi_def_cfa_offset 8
 414 00f2 BD46     		mov	sp, r7
ARM GAS  C:\Users\Keshuai\AppData\Local\Temp\cckKd49v.s 			page 13


 415              		.cfi_def_cfa_register 13
 416              		@ sp needed
 417 00f4 80BD     		pop	{r7, pc}
 418              	.L17:
 419 00f6 00BF     		.align	2
 420              	.L16:
 421 00f8 80400040 		.word	1073758336
 422 00fc 82400040 		.word	1073758338
 423 0100 00410040 		.word	1073758464
 424 0104 DC000048 		.word	1207959772
 425 0108 00430040 		.word	1073758976
 426 010c 00420040 		.word	1073758720
 427 0110 A1460040 		.word	1073759905
 428 0114 0F010049 		.word	1224737039
 429 0118 22420040 		.word	1073758754
 430 011c 20420040 		.word	1073758752
 431 0120 25420040 		.word	1073758757
 432 0124 04400040 		.word	1073758212
 433 0128 06400040 		.word	1073758214
 434 012c 08400040 		.word	1073758216
 435 0130 09400040 		.word	1073758217
 436 0134 01400040 		.word	1073758209
 437 0138 0B400040 		.word	1073758219
 438 013c A2430040 		.word	1073759138
 439 0140 A1430040 		.word	1073759137
 440 0144 A0430040 		.word	1073759136
 441              		.cfi_endproc
 442              	.LFE5:
 443              		.size	ClockSetup, .-ClockSetup
 444              		.section	.text.AnalogSetDefault,"ax",%progbits
 445              		.align	2
 446              		.thumb
 447              		.thumb_func
 448              		.type	AnalogSetDefault, %function
 449              	AnalogSetDefault:
 450              	.LFB6:
 265:Generated_Source\PSoC5/cyfitter_cfg.c **** 
 266:Generated_Source\PSoC5/cyfitter_cfg.c **** 
 267:Generated_Source\PSoC5/cyfitter_cfg.c **** /* Analog API Functions */
 268:Generated_Source\PSoC5/cyfitter_cfg.c **** 
 269:Generated_Source\PSoC5/cyfitter_cfg.c **** 
 270:Generated_Source\PSoC5/cyfitter_cfg.c **** /*******************************************************************************
 271:Generated_Source\PSoC5/cyfitter_cfg.c **** * Function Name: AnalogSetDefault
 272:Generated_Source\PSoC5/cyfitter_cfg.c **** ********************************************************************************
 273:Generated_Source\PSoC5/cyfitter_cfg.c **** *
 274:Generated_Source\PSoC5/cyfitter_cfg.c **** * Summary:
 275:Generated_Source\PSoC5/cyfitter_cfg.c **** *  Sets up the analog portions of the chip to default values based on chip
 276:Generated_Source\PSoC5/cyfitter_cfg.c **** *  configuration options from the project.
 277:Generated_Source\PSoC5/cyfitter_cfg.c **** *
 278:Generated_Source\PSoC5/cyfitter_cfg.c **** * Parameters:
 279:Generated_Source\PSoC5/cyfitter_cfg.c **** *  void
 280:Generated_Source\PSoC5/cyfitter_cfg.c **** *
 281:Generated_Source\PSoC5/cyfitter_cfg.c **** * Return:
 282:Generated_Source\PSoC5/cyfitter_cfg.c **** *  void
 283:Generated_Source\PSoC5/cyfitter_cfg.c **** *
 284:Generated_Source\PSoC5/cyfitter_cfg.c **** *******************************************************************************/
 285:Generated_Source\PSoC5/cyfitter_cfg.c **** static void AnalogSetDefault(void);
ARM GAS  C:\Users\Keshuai\AppData\Local\Temp\cckKd49v.s 			page 14


 286:Generated_Source\PSoC5/cyfitter_cfg.c **** static void AnalogSetDefault(void)
 287:Generated_Source\PSoC5/cyfitter_cfg.c **** {
 451              		.loc 1 287 0
 452              		.cfi_startproc
 453              		@ args = 0, pretend = 0, frame = 8
 454              		@ frame_needed = 1, uses_anonymous_args = 0
 455              		@ link register save eliminated.
 456 0000 80B4     		push	{r7}
 457              		.cfi_def_cfa_offset 4
 458              		.cfi_offset 7, -4
 459 0002 83B0     		sub	sp, sp, #12
 460              		.cfi_def_cfa_offset 16
 461 0004 00AF     		add	r7, sp, #0
 462              		.cfi_def_cfa_register 7
 288:Generated_Source\PSoC5/cyfitter_cfg.c **** 	uint8 bg_xover_inl_trim = CY_GET_XTND_REG8((void CYFAR *)(CYREG_FLSHID_MFG_CFG_BG_XOVER_INL_TRIM +
 463              		.loc 1 288 0
 464 0006 0E4B     		ldr	r3, .L19
 465 0008 1B78     		ldrb	r3, [r3]
 466 000a FB71     		strb	r3, [r7, #7]
 289:Generated_Source\PSoC5/cyfitter_cfg.c **** 	CY_SET_XTND_REG8((void CYFAR *)(CYREG_BG_DFT0), (bg_xover_inl_trim & 0x07u));
 467              		.loc 1 289 0
 468 000c 0D4A     		ldr	r2, .L19+4
 469 000e FB79     		ldrb	r3, [r7, #7]
 470 0010 03F00703 		and	r3, r3, #7
 471 0014 DBB2     		uxtb	r3, r3
 472 0016 1370     		strb	r3, [r2]
 290:Generated_Source\PSoC5/cyfitter_cfg.c **** 	CY_SET_XTND_REG8((void CYFAR *)(CYREG_BG_DFT1), ((bg_xover_inl_trim >> 4) & 0x0Fu));
 473              		.loc 1 290 0
 474 0018 0B4A     		ldr	r2, .L19+8
 475 001a FB79     		ldrb	r3, [r7, #7]	@ zero_extendqisi2
 476 001c 1B09     		lsrs	r3, r3, #4
 477 001e DBB2     		uxtb	r3, r3
 478 0020 1370     		strb	r3, [r2]
 291:Generated_Source\PSoC5/cyfitter_cfg.c **** 	CY_SET_XTND_REG8((void CYFAR *)CYREG_DSM0_SW0, 0x40u);
 479              		.loc 1 291 0
 480 0022 0A4B     		ldr	r3, .L19+12
 481 0024 4022     		movs	r2, #64
 482 0026 1A70     		strb	r2, [r3]
 292:Generated_Source\PSoC5/cyfitter_cfg.c **** 	CY_SET_XTND_REG8((void CYFAR *)CYREG_DSM0_SW4, 0x02u);
 483              		.loc 1 292 0
 484 0028 094B     		ldr	r3, .L19+16
 485 002a 0222     		movs	r2, #2
 486 002c 1A70     		strb	r2, [r3]
 293:Generated_Source\PSoC5/cyfitter_cfg.c **** 	CY_SET_XTND_REG8((void CYFAR *)CYREG_PUMP_CR0, 0x44u);
 487              		.loc 1 293 0
 488 002e 094B     		ldr	r3, .L19+20
 489 0030 4422     		movs	r2, #68
 490 0032 1A70     		strb	r2, [r3]
 294:Generated_Source\PSoC5/cyfitter_cfg.c **** }
 491              		.loc 1 294 0
 492 0034 0C37     		adds	r7, r7, #12
 493              		.cfi_def_cfa_offset 4
 494 0036 BD46     		mov	sp, r7
 495              		.cfi_def_cfa_register 13
 496              		@ sp needed
 497 0038 5DF8047B 		ldr	r7, [sp], #4
 498              		.cfi_restore 7
ARM GAS  C:\Users\Keshuai\AppData\Local\Temp\cckKd49v.s 			page 15


 499              		.cfi_def_cfa_offset 0
 500 003c 7047     		bx	lr
 501              	.L20:
 502 003e 00BF     		.align	2
 503              	.L19:
 504 0040 CF010049 		.word	1224737231
 505 0044 6E580040 		.word	1073764462
 506 0048 6F580040 		.word	1073764463
 507 004c 005B0040 		.word	1073765120
 508 0050 045B0040 		.word	1073765124
 509 0054 76580040 		.word	1073764470
 510              		.cfi_endproc
 511              	.LFE6:
 512              		.size	AnalogSetDefault, .-AnalogSetDefault
 513              		.section	.text.SetAnalogRoutingPumps,"ax",%progbits
 514              		.align	2
 515              		.global	SetAnalogRoutingPumps
 516              		.thumb
 517              		.thumb_func
 518              		.type	SetAnalogRoutingPumps, %function
 519              	SetAnalogRoutingPumps:
 520              	.LFB7:
 295:Generated_Source\PSoC5/cyfitter_cfg.c **** 
 296:Generated_Source\PSoC5/cyfitter_cfg.c **** 
 297:Generated_Source\PSoC5/cyfitter_cfg.c **** /*******************************************************************************
 298:Generated_Source\PSoC5/cyfitter_cfg.c **** * Function Name: SetAnalogRoutingPumps
 299:Generated_Source\PSoC5/cyfitter_cfg.c **** ********************************************************************************
 300:Generated_Source\PSoC5/cyfitter_cfg.c **** *
 301:Generated_Source\PSoC5/cyfitter_cfg.c **** * Summary:
 302:Generated_Source\PSoC5/cyfitter_cfg.c **** * Enables or disables the analog pumps feeding analog routing switches.
 303:Generated_Source\PSoC5/cyfitter_cfg.c **** * Intended to be called at startup, based on the Vdda system configuration;
 304:Generated_Source\PSoC5/cyfitter_cfg.c **** * may be called during operation when the user informs us that the Vdda voltage
 305:Generated_Source\PSoC5/cyfitter_cfg.c **** * crossed the pump threshold.
 306:Generated_Source\PSoC5/cyfitter_cfg.c **** *
 307:Generated_Source\PSoC5/cyfitter_cfg.c **** * Parameters:
 308:Generated_Source\PSoC5/cyfitter_cfg.c **** *  enabled - 1 to enable the pumps, 0 to disable the pumps
 309:Generated_Source\PSoC5/cyfitter_cfg.c **** *
 310:Generated_Source\PSoC5/cyfitter_cfg.c **** * Return:
 311:Generated_Source\PSoC5/cyfitter_cfg.c **** *  void
 312:Generated_Source\PSoC5/cyfitter_cfg.c **** *
 313:Generated_Source\PSoC5/cyfitter_cfg.c **** *******************************************************************************/
 314:Generated_Source\PSoC5/cyfitter_cfg.c **** void SetAnalogRoutingPumps(uint8 enabled)
 315:Generated_Source\PSoC5/cyfitter_cfg.c **** {
 521              		.loc 1 315 0
 522              		.cfi_startproc
 523              		@ args = 0, pretend = 0, frame = 16
 524              		@ frame_needed = 1, uses_anonymous_args = 0
 525              		@ link register save eliminated.
 526 0000 80B4     		push	{r7}
 527              		.cfi_def_cfa_offset 4
 528              		.cfi_offset 7, -4
 529 0002 85B0     		sub	sp, sp, #20
 530              		.cfi_def_cfa_offset 24
 531 0004 00AF     		add	r7, sp, #0
 532              		.cfi_def_cfa_register 7
 533 0006 0346     		mov	r3, r0
 534 0008 FB71     		strb	r3, [r7, #7]
ARM GAS  C:\Users\Keshuai\AppData\Local\Temp\cckKd49v.s 			page 16


 316:Generated_Source\PSoC5/cyfitter_cfg.c **** 	uint8 regValue = CY_GET_XTND_REG8((void CYFAR *)CYREG_PUMP_CR0);
 535              		.loc 1 316 0
 536 000a 0B4B     		ldr	r3, .L24
 537 000c 1B78     		ldrb	r3, [r3]
 538 000e FB73     		strb	r3, [r7, #15]
 317:Generated_Source\PSoC5/cyfitter_cfg.c **** 	if (enabled != 0u)
 539              		.loc 1 317 0
 540 0010 FB79     		ldrb	r3, [r7, #7]	@ zero_extendqisi2
 541 0012 002B     		cmp	r3, #0
 542 0014 04D0     		beq	.L22
 318:Generated_Source\PSoC5/cyfitter_cfg.c **** 	{
 319:Generated_Source\PSoC5/cyfitter_cfg.c **** 		regValue |= 0x22u;
 543              		.loc 1 319 0
 544 0016 FB7B     		ldrb	r3, [r7, #15]
 545 0018 43F02203 		orr	r3, r3, #34
 546 001c FB73     		strb	r3, [r7, #15]
 547 001e 03E0     		b	.L23
 548              	.L22:
 320:Generated_Source\PSoC5/cyfitter_cfg.c **** 	}
 321:Generated_Source\PSoC5/cyfitter_cfg.c **** 	else
 322:Generated_Source\PSoC5/cyfitter_cfg.c **** 	{
 323:Generated_Source\PSoC5/cyfitter_cfg.c **** 		regValue &= (uint8)~0x22u;
 549              		.loc 1 323 0
 550 0020 FB7B     		ldrb	r3, [r7, #15]
 551 0022 23F02203 		bic	r3, r3, #34
 552 0026 FB73     		strb	r3, [r7, #15]
 553              	.L23:
 324:Generated_Source\PSoC5/cyfitter_cfg.c **** 	}
 325:Generated_Source\PSoC5/cyfitter_cfg.c **** 	CY_SET_XTND_REG8((void CYFAR *)CYREG_PUMP_CR0, regValue);
 554              		.loc 1 325 0
 555 0028 034A     		ldr	r2, .L24
 556 002a FB7B     		ldrb	r3, [r7, #15]
 557 002c 1370     		strb	r3, [r2]
 326:Generated_Source\PSoC5/cyfitter_cfg.c **** }
 558              		.loc 1 326 0
 559 002e 1437     		adds	r7, r7, #20
 560              		.cfi_def_cfa_offset 4
 561 0030 BD46     		mov	sp, r7
 562              		.cfi_def_cfa_register 13
 563              		@ sp needed
 564 0032 5DF8047B 		ldr	r7, [sp], #4
 565              		.cfi_restore 7
 566              		.cfi_def_cfa_offset 0
 567 0036 7047     		bx	lr
 568              	.L25:
 569              		.align	2
 570              	.L24:
 571 0038 76580040 		.word	1073764470
 572              		.cfi_endproc
 573              	.LFE7:
 574              		.size	SetAnalogRoutingPumps, .-SetAnalogRoutingPumps
 575              		.global	AMuxSeq_1_CYAMUXSIDE_A_curChannel
 576              		.data
 577              		.type	AMuxSeq_1_CYAMUXSIDE_A_curChannel, %object
 578              		.size	AMuxSeq_1_CYAMUXSIDE_A_curChannel, 1
 579              	AMuxSeq_1_CYAMUXSIDE_A_curChannel:
 580 0000 FF       		.byte	-1
ARM GAS  C:\Users\Keshuai\AppData\Local\Temp\cckKd49v.s 			page 17


 581              		.section	.text.AMuxSeq_1_CYAMUXSIDE_A_DisconnectAll,"ax",%progbits
 582              		.align	2
 583              		.global	AMuxSeq_1_CYAMUXSIDE_A_DisconnectAll
 584              		.thumb
 585              		.thumb_func
 586              		.type	AMuxSeq_1_CYAMUXSIDE_A_DisconnectAll, %function
 587              	AMuxSeq_1_CYAMUXSIDE_A_DisconnectAll:
 588              	.LFB8:
 327:Generated_Source\PSoC5/cyfitter_cfg.c **** 
 328:Generated_Source\PSoC5/cyfitter_cfg.c **** #define CY_AMUX_UNUSED CYREG_BOOST_SR
 329:Generated_Source\PSoC5/cyfitter_cfg.c **** int8 AMuxSeq_1_CYAMUXSIDE_A_curChannel = -1;
 330:Generated_Source\PSoC5/cyfitter_cfg.c **** 
 331:Generated_Source\PSoC5/cyfitter_cfg.c **** void AMuxSeq_1_CYAMUXSIDE_A_DisconnectAll(void)
 332:Generated_Source\PSoC5/cyfitter_cfg.c **** {
 589              		.loc 1 332 0
 590              		.cfi_startproc
 591              		@ args = 0, pretend = 0, frame = 0
 592              		@ frame_needed = 1, uses_anonymous_args = 0
 593              		@ link register save eliminated.
 594 0000 80B4     		push	{r7}
 595              		.cfi_def_cfa_offset 4
 596              		.cfi_offset 7, -4
 597 0002 00AF     		add	r7, sp, #0
 598              		.cfi_def_cfa_register 7
 333:Generated_Source\PSoC5/cyfitter_cfg.c **** 	AMuxSeq_1_CYAMUXSIDE_A_curChannel = -1;
 599              		.loc 1 333 0
 600 0004 064B     		ldr	r3, .L27
 601 0006 FF22     		movs	r2, #255
 602 0008 1A70     		strb	r2, [r3]
 334:Generated_Source\PSoC5/cyfitter_cfg.c **** 	CY_SET_REG8((void CYXDATA *)CYREG_PRT0_AG, 0x00u);
 603              		.loc 1 334 0
 604 000a 064B     		ldr	r3, .L27+4
 605 000c 0022     		movs	r2, #0
 606 000e 1A70     		strb	r2, [r3]
 335:Generated_Source\PSoC5/cyfitter_cfg.c **** 	CY_SET_REG8((void CYXDATA *)CYREG_DSM0_SW0, 0x40u);
 607              		.loc 1 335 0
 608 0010 054B     		ldr	r3, .L27+8
 609 0012 4022     		movs	r2, #64
 610 0014 1A70     		strb	r2, [r3]
 336:Generated_Source\PSoC5/cyfitter_cfg.c **** }
 611              		.loc 1 336 0
 612 0016 BD46     		mov	sp, r7
 613              		.cfi_def_cfa_register 13
 614              		@ sp needed
 615 0018 5DF8047B 		ldr	r7, [sp], #4
 616              		.cfi_restore 7
 617              		.cfi_def_cfa_offset 0
 618 001c 7047     		bx	lr
 619              	.L28:
 620 001e 00BF     		.align	2
 621              	.L27:
 622 0020 00000000 		.word	AMuxSeq_1_CYAMUXSIDE_A_curChannel
 623 0024 0D510040 		.word	1073762573
 624 0028 005B0040 		.word	1073765120
 625              		.cfi_endproc
 626              	.LFE8:
 627              		.size	AMuxSeq_1_CYAMUXSIDE_A_DisconnectAll, .-AMuxSeq_1_CYAMUXSIDE_A_DisconnectAll
ARM GAS  C:\Users\Keshuai\AppData\Local\Temp\cckKd49v.s 			page 18


 628              		.section	.text.AMuxSeq_1_CYAMUXSIDE_A_Next,"ax",%progbits
 629              		.align	2
 630              		.global	AMuxSeq_1_CYAMUXSIDE_A_Next
 631              		.thumb
 632              		.thumb_func
 633              		.type	AMuxSeq_1_CYAMUXSIDE_A_Next, %function
 634              	AMuxSeq_1_CYAMUXSIDE_A_Next:
 635              	.LFB9:
 337:Generated_Source\PSoC5/cyfitter_cfg.c **** 
 338:Generated_Source\PSoC5/cyfitter_cfg.c **** #if defined(__C51__) || defined(__CX51__)
 339:Generated_Source\PSoC5/cyfitter_cfg.c ****     #pragma OT(5, SPEED)
 340:Generated_Source\PSoC5/cyfitter_cfg.c **** #endif
 341:Generated_Source\PSoC5/cyfitter_cfg.c **** void AMuxSeq_1_CYAMUXSIDE_A_Next(void)
 342:Generated_Source\PSoC5/cyfitter_cfg.c **** {
 636              		.loc 1 342 0
 637              		.cfi_startproc
 638              		@ args = 0, pretend = 0, frame = 0
 639              		@ frame_needed = 1, uses_anonymous_args = 0
 640              		@ link register save eliminated.
 641 0000 80B4     		push	{r7}
 642              		.cfi_def_cfa_offset 4
 643              		.cfi_offset 7, -4
 644 0002 00AF     		add	r7, sp, #0
 645              		.cfi_def_cfa_register 7
 343:Generated_Source\PSoC5/cyfitter_cfg.c **** 	AMuxSeq_1_CYAMUXSIDE_A_curChannel++;
 646              		.loc 1 343 0
 647 0004 234B     		ldr	r3, .L40
 648 0006 1B78     		ldrb	r3, [r3]	@ zero_extendqisi2
 649 0008 DBB2     		uxtb	r3, r3
 650 000a DBB2     		uxtb	r3, r3
 651 000c 0133     		adds	r3, r3, #1
 652 000e DBB2     		uxtb	r3, r3
 653 0010 DAB2     		uxtb	r2, r3
 654 0012 204B     		ldr	r3, .L40
 655 0014 1A70     		strb	r2, [r3]
 344:Generated_Source\PSoC5/cyfitter_cfg.c **** 	switch (AMuxSeq_1_CYAMUXSIDE_A_curChannel)
 656              		.loc 1 344 0
 657 0016 1F4B     		ldr	r3, .L40
 658 0018 1B78     		ldrb	r3, [r3]	@ zero_extendqisi2
 659 001a 5BB2     		sxtb	r3, r3
 660 001c 072B     		cmp	r3, #7
 661 001e 1FD8     		bhi	.L30
 662 0020 01A2     		adr	r2, .L32
 663 0022 52F823F0 		ldr	pc, [r2, r3, lsl #2]
 664 0026 00BF     		.p2align 2
 665              	.L32:
 666 0028 67000000 		.word	.L31+1
 667 002c 75000000 		.word	.L33+1
 668 0030 83000000 		.word	.L34+1
 669 0034 61000000 		.word	.L30+1
 670 0038 49000000 		.word	.L35+1
 671 003c 4F000000 		.word	.L36+1
 672 0040 55000000 		.word	.L37+1
 673 0044 5B000000 		.word	.L38+1
 674              		.p2align 1
 675              	.L35:
 345:Generated_Source\PSoC5/cyfitter_cfg.c **** 	{
ARM GAS  C:\Users\Keshuai\AppData\Local\Temp\cckKd49v.s 			page 19


 346:Generated_Source\PSoC5/cyfitter_cfg.c **** 	case 4: /* to force jump table (not executed) */
 347:Generated_Source\PSoC5/cyfitter_cfg.c **** 		AMuxSeq_1_CYAMUXSIDE_A_curChannel = 4;
 676              		.loc 1 347 0
 677 0048 124B     		ldr	r3, .L40
 678 004a 0422     		movs	r2, #4
 679 004c 1A70     		strb	r2, [r3]
 680              	.L36:
 348:Generated_Source\PSoC5/cyfitter_cfg.c **** 	case 5: /* to force jump table (not executed) */
 349:Generated_Source\PSoC5/cyfitter_cfg.c **** 		AMuxSeq_1_CYAMUXSIDE_A_curChannel = 5;
 681              		.loc 1 349 0
 682 004e 114B     		ldr	r3, .L40
 683 0050 0522     		movs	r2, #5
 684 0052 1A70     		strb	r2, [r3]
 685              	.L37:
 350:Generated_Source\PSoC5/cyfitter_cfg.c **** 	case 6: /* to force jump table (not executed) */
 351:Generated_Source\PSoC5/cyfitter_cfg.c **** 		AMuxSeq_1_CYAMUXSIDE_A_curChannel = 6;
 686              		.loc 1 351 0
 687 0054 0F4B     		ldr	r3, .L40
 688 0056 0622     		movs	r2, #6
 689 0058 1A70     		strb	r2, [r3]
 690              	.L38:
 352:Generated_Source\PSoC5/cyfitter_cfg.c **** 	case 7: /* to force jump table (not executed) */
 353:Generated_Source\PSoC5/cyfitter_cfg.c **** 		AMuxSeq_1_CYAMUXSIDE_A_curChannel = 7;
 691              		.loc 1 353 0
 692 005a 0E4B     		ldr	r3, .L40
 693 005c 0722     		movs	r2, #7
 694 005e 1A70     		strb	r2, [r3]
 695              	.L30:
 354:Generated_Source\PSoC5/cyfitter_cfg.c **** 	case 3:
 355:Generated_Source\PSoC5/cyfitter_cfg.c **** 	default:
 356:Generated_Source\PSoC5/cyfitter_cfg.c **** 		AMuxSeq_1_CYAMUXSIDE_A_curChannel = 0;
 696              		.loc 1 356 0
 697 0060 0C4B     		ldr	r3, .L40
 698 0062 0022     		movs	r2, #0
 699 0064 1A70     		strb	r2, [r3]
 700              	.L31:
 357:Generated_Source\PSoC5/cyfitter_cfg.c **** 	case 0:
 358:Generated_Source\PSoC5/cyfitter_cfg.c **** 		CY_SET_REG8((void CYXDATA *)CYREG_PRT0_AG, 0x80u);
 701              		.loc 1 358 0
 702 0066 0C4B     		ldr	r3, .L40+4
 703 0068 8022     		movs	r2, #128
 704 006a 1A70     		strb	r2, [r3]
 359:Generated_Source\PSoC5/cyfitter_cfg.c **** 		CY_SET_REG8((void CYXDATA *)CYREG_DSM0_SW0, 0x40u | 0x80u);
 705              		.loc 1 359 0
 706 006c 0B4B     		ldr	r3, .L40+8
 707 006e C022     		movs	r2, #192
 708 0070 1A70     		strb	r2, [r3]
 360:Generated_Source\PSoC5/cyfitter_cfg.c **** 		break;
 709              		.loc 1 360 0
 710 0072 0AE0     		b	.L29
 711              	.L33:
 361:Generated_Source\PSoC5/cyfitter_cfg.c **** 	case 1:
 362:Generated_Source\PSoC5/cyfitter_cfg.c **** 		CY_SET_REG8((void CYXDATA *)CYREG_DSM0_SW0, 0x40u);
 712              		.loc 1 362 0
 713 0074 094B     		ldr	r3, .L40+8
 714 0076 4022     		movs	r2, #64
 715 0078 1A70     		strb	r2, [r3]
ARM GAS  C:\Users\Keshuai\AppData\Local\Temp\cckKd49v.s 			page 20


 363:Generated_Source\PSoC5/cyfitter_cfg.c **** 		CY_SET_REG8((void CYXDATA *)CYREG_PRT0_AG, 0x40u);
 716              		.loc 1 363 0
 717 007a 074B     		ldr	r3, .L40+4
 718 007c 4022     		movs	r2, #64
 719 007e 1A70     		strb	r2, [r3]
 364:Generated_Source\PSoC5/cyfitter_cfg.c **** 		break;
 720              		.loc 1 364 0
 721 0080 03E0     		b	.L29
 722              	.L34:
 365:Generated_Source\PSoC5/cyfitter_cfg.c **** 	case 2:
 366:Generated_Source\PSoC5/cyfitter_cfg.c **** 		CY_SET_REG8((void CYXDATA *)CYREG_PRT0_AG, 0x04u);
 723              		.loc 1 366 0
 724 0082 054B     		ldr	r3, .L40+4
 725 0084 0422     		movs	r2, #4
 726 0086 1A70     		strb	r2, [r3]
 367:Generated_Source\PSoC5/cyfitter_cfg.c **** 		break;
 727              		.loc 1 367 0
 728 0088 00BF     		nop
 729              	.L29:
 368:Generated_Source\PSoC5/cyfitter_cfg.c **** 	}
 369:Generated_Source\PSoC5/cyfitter_cfg.c **** }
 730              		.loc 1 369 0
 731 008a BD46     		mov	sp, r7
 732              		.cfi_def_cfa_register 13
 733              		@ sp needed
 734 008c 5DF8047B 		ldr	r7, [sp], #4
 735              		.cfi_restore 7
 736              		.cfi_def_cfa_offset 0
 737 0090 7047     		bx	lr
 738              	.L41:
 739 0092 00BF     		.align	2
 740              	.L40:
 741 0094 00000000 		.word	AMuxSeq_1_CYAMUXSIDE_A_curChannel
 742 0098 0D510040 		.word	1073762573
 743 009c 005B0040 		.word	1073765120
 744              		.cfi_endproc
 745              	.LFE9:
 746              		.size	AMuxSeq_1_CYAMUXSIDE_A_Next, .-AMuxSeq_1_CYAMUXSIDE_A_Next
 747              		.global	AMuxSeq_1_CYAMUXSIDE_B_curChannel
 748              		.data
 749              		.type	AMuxSeq_1_CYAMUXSIDE_B_curChannel, %object
 750              		.size	AMuxSeq_1_CYAMUXSIDE_B_curChannel, 1
 751              	AMuxSeq_1_CYAMUXSIDE_B_curChannel:
 752 0001 FF       		.byte	-1
 753              		.section	.text.AMuxSeq_1_CYAMUXSIDE_B_DisconnectAll,"ax",%progbits
 754              		.align	2
 755              		.global	AMuxSeq_1_CYAMUXSIDE_B_DisconnectAll
 756              		.thumb
 757              		.thumb_func
 758              		.type	AMuxSeq_1_CYAMUXSIDE_B_DisconnectAll, %function
 759              	AMuxSeq_1_CYAMUXSIDE_B_DisconnectAll:
 760              	.LFB10:
 370:Generated_Source\PSoC5/cyfitter_cfg.c **** 
 371:Generated_Source\PSoC5/cyfitter_cfg.c **** int8 AMuxSeq_1_CYAMUXSIDE_B_curChannel = -1;
 372:Generated_Source\PSoC5/cyfitter_cfg.c **** 
 373:Generated_Source\PSoC5/cyfitter_cfg.c **** void AMuxSeq_1_CYAMUXSIDE_B_DisconnectAll(void)
 374:Generated_Source\PSoC5/cyfitter_cfg.c **** {
ARM GAS  C:\Users\Keshuai\AppData\Local\Temp\cckKd49v.s 			page 21


 761              		.loc 1 374 0
 762              		.cfi_startproc
 763              		@ args = 0, pretend = 0, frame = 0
 764              		@ frame_needed = 1, uses_anonymous_args = 0
 765              		@ link register save eliminated.
 766 0000 80B4     		push	{r7}
 767              		.cfi_def_cfa_offset 4
 768              		.cfi_offset 7, -4
 769 0002 00AF     		add	r7, sp, #0
 770              		.cfi_def_cfa_register 7
 375:Generated_Source\PSoC5/cyfitter_cfg.c **** 	AMuxSeq_1_CYAMUXSIDE_B_curChannel = -1;
 771              		.loc 1 375 0
 772 0004 064B     		ldr	r3, .L43
 773 0006 FF22     		movs	r2, #255
 774 0008 1A70     		strb	r2, [r3]
 376:Generated_Source\PSoC5/cyfitter_cfg.c **** 	CY_SET_REG8((void CYXDATA *)CYREG_PRT15_AG, 0x00u);
 775              		.loc 1 376 0
 776 000a 064B     		ldr	r3, .L43+4
 777 000c 0022     		movs	r2, #0
 778 000e 1A70     		strb	r2, [r3]
 377:Generated_Source\PSoC5/cyfitter_cfg.c **** 	CY_SET_REG8((void CYXDATA *)CYREG_PRT2_AG, 0x00u);
 779              		.loc 1 377 0
 780 0010 054B     		ldr	r3, .L43+8
 781 0012 0022     		movs	r2, #0
 782 0014 1A70     		strb	r2, [r3]
 378:Generated_Source\PSoC5/cyfitter_cfg.c **** }
 783              		.loc 1 378 0
 784 0016 BD46     		mov	sp, r7
 785              		.cfi_def_cfa_register 13
 786              		@ sp needed
 787 0018 5DF8047B 		ldr	r7, [sp], #4
 788              		.cfi_restore 7
 789              		.cfi_def_cfa_offset 0
 790 001c 7047     		bx	lr
 791              	.L44:
 792 001e 00BF     		.align	2
 793              	.L43:
 794 0020 00000000 		.word	AMuxSeq_1_CYAMUXSIDE_B_curChannel
 795 0024 FD510040 		.word	1073762813
 796 0028 2D510040 		.word	1073762605
 797              		.cfi_endproc
 798              	.LFE10:
 799              		.size	AMuxSeq_1_CYAMUXSIDE_B_DisconnectAll, .-AMuxSeq_1_CYAMUXSIDE_B_DisconnectAll
 800              		.section	.text.AMuxSeq_1_CYAMUXSIDE_B_Next,"ax",%progbits
 801              		.align	2
 802              		.global	AMuxSeq_1_CYAMUXSIDE_B_Next
 803              		.thumb
 804              		.thumb_func
 805              		.type	AMuxSeq_1_CYAMUXSIDE_B_Next, %function
 806              	AMuxSeq_1_CYAMUXSIDE_B_Next:
 807              	.LFB11:
 379:Generated_Source\PSoC5/cyfitter_cfg.c **** 
 380:Generated_Source\PSoC5/cyfitter_cfg.c **** #if defined(__C51__) || defined(__CX51__)
 381:Generated_Source\PSoC5/cyfitter_cfg.c ****     #pragma OT(5, SPEED)
 382:Generated_Source\PSoC5/cyfitter_cfg.c **** #endif
 383:Generated_Source\PSoC5/cyfitter_cfg.c **** void AMuxSeq_1_CYAMUXSIDE_B_Next(void)
 384:Generated_Source\PSoC5/cyfitter_cfg.c **** {
ARM GAS  C:\Users\Keshuai\AppData\Local\Temp\cckKd49v.s 			page 22


 808              		.loc 1 384 0
 809              		.cfi_startproc
 810              		@ args = 0, pretend = 0, frame = 0
 811              		@ frame_needed = 1, uses_anonymous_args = 0
 812              		@ link register save eliminated.
 813 0000 80B4     		push	{r7}
 814              		.cfi_def_cfa_offset 4
 815              		.cfi_offset 7, -4
 816 0002 00AF     		add	r7, sp, #0
 817              		.cfi_def_cfa_register 7
 385:Generated_Source\PSoC5/cyfitter_cfg.c **** 	AMuxSeq_1_CYAMUXSIDE_B_curChannel++;
 818              		.loc 1 385 0
 819 0004 234B     		ldr	r3, .L56
 820 0006 1B78     		ldrb	r3, [r3]	@ zero_extendqisi2
 821 0008 DBB2     		uxtb	r3, r3
 822 000a DBB2     		uxtb	r3, r3
 823 000c 0133     		adds	r3, r3, #1
 824 000e DBB2     		uxtb	r3, r3
 825 0010 DAB2     		uxtb	r2, r3
 826 0012 204B     		ldr	r3, .L56
 827 0014 1A70     		strb	r2, [r3]
 386:Generated_Source\PSoC5/cyfitter_cfg.c **** 	switch (AMuxSeq_1_CYAMUXSIDE_B_curChannel)
 828              		.loc 1 386 0
 829 0016 1F4B     		ldr	r3, .L56
 830 0018 1B78     		ldrb	r3, [r3]	@ zero_extendqisi2
 831 001a 5BB2     		sxtb	r3, r3
 832 001c 072B     		cmp	r3, #7
 833 001e 1FD8     		bhi	.L46
 834 0020 01A2     		adr	r2, .L48
 835 0022 52F823F0 		ldr	pc, [r2, r3, lsl #2]
 836 0026 00BF     		.p2align 2
 837              	.L48:
 838 0028 67000000 		.word	.L47+1
 839 002c 75000000 		.word	.L49+1
 840 0030 83000000 		.word	.L50+1
 841 0034 61000000 		.word	.L46+1
 842 0038 49000000 		.word	.L51+1
 843 003c 4F000000 		.word	.L52+1
 844 0040 55000000 		.word	.L53+1
 845 0044 5B000000 		.word	.L54+1
 846              		.p2align 1
 847              	.L51:
 387:Generated_Source\PSoC5/cyfitter_cfg.c **** 	{
 388:Generated_Source\PSoC5/cyfitter_cfg.c **** 	case 4: /* to force jump table (not executed) */
 389:Generated_Source\PSoC5/cyfitter_cfg.c **** 		AMuxSeq_1_CYAMUXSIDE_B_curChannel = 4;
 848              		.loc 1 389 0
 849 0048 124B     		ldr	r3, .L56
 850 004a 0422     		movs	r2, #4
 851 004c 1A70     		strb	r2, [r3]
 852              	.L52:
 390:Generated_Source\PSoC5/cyfitter_cfg.c **** 	case 5: /* to force jump table (not executed) */
 391:Generated_Source\PSoC5/cyfitter_cfg.c **** 		AMuxSeq_1_CYAMUXSIDE_B_curChannel = 5;
 853              		.loc 1 391 0
 854 004e 114B     		ldr	r3, .L56
 855 0050 0522     		movs	r2, #5
 856 0052 1A70     		strb	r2, [r3]
 857              	.L53:
ARM GAS  C:\Users\Keshuai\AppData\Local\Temp\cckKd49v.s 			page 23


 392:Generated_Source\PSoC5/cyfitter_cfg.c **** 	case 6: /* to force jump table (not executed) */
 393:Generated_Source\PSoC5/cyfitter_cfg.c **** 		AMuxSeq_1_CYAMUXSIDE_B_curChannel = 6;
 858              		.loc 1 393 0
 859 0054 0F4B     		ldr	r3, .L56
 860 0056 0622     		movs	r2, #6
 861 0058 1A70     		strb	r2, [r3]
 862              	.L54:
 394:Generated_Source\PSoC5/cyfitter_cfg.c **** 	case 7: /* to force jump table (not executed) */
 395:Generated_Source\PSoC5/cyfitter_cfg.c **** 		AMuxSeq_1_CYAMUXSIDE_B_curChannel = 7;
 863              		.loc 1 395 0
 864 005a 0E4B     		ldr	r3, .L56
 865 005c 0722     		movs	r2, #7
 866 005e 1A70     		strb	r2, [r3]
 867              	.L46:
 396:Generated_Source\PSoC5/cyfitter_cfg.c **** 	case 3:
 397:Generated_Source\PSoC5/cyfitter_cfg.c **** 	default:
 398:Generated_Source\PSoC5/cyfitter_cfg.c **** 		AMuxSeq_1_CYAMUXSIDE_B_curChannel = 0;
 868              		.loc 1 398 0
 869 0060 0C4B     		ldr	r3, .L56
 870 0062 0022     		movs	r2, #0
 871 0064 1A70     		strb	r2, [r3]
 872              	.L47:
 399:Generated_Source\PSoC5/cyfitter_cfg.c **** 	case 0:
 400:Generated_Source\PSoC5/cyfitter_cfg.c **** 		CY_SET_REG8((void CYXDATA *)CYREG_PRT2_AG, 0x00u);
 873              		.loc 1 400 0
 874 0066 0C4B     		ldr	r3, .L56+4
 875 0068 0022     		movs	r2, #0
 876 006a 1A70     		strb	r2, [r3]
 401:Generated_Source\PSoC5/cyfitter_cfg.c **** 		CY_SET_REG8((void CYXDATA *)CYREG_PRT15_AG, 0x20u);
 877              		.loc 1 401 0
 878 006c 0B4B     		ldr	r3, .L56+8
 879 006e 2022     		movs	r2, #32
 880 0070 1A70     		strb	r2, [r3]
 402:Generated_Source\PSoC5/cyfitter_cfg.c **** 		break;
 881              		.loc 1 402 0
 882 0072 0AE0     		b	.L45
 883              	.L49:
 403:Generated_Source\PSoC5/cyfitter_cfg.c **** 	case 1:
 404:Generated_Source\PSoC5/cyfitter_cfg.c **** 		CY_SET_REG8((void CYXDATA *)CYREG_PRT15_AG, 0x00u);
 884              		.loc 1 404 0
 885 0074 094B     		ldr	r3, .L56+8
 886 0076 0022     		movs	r2, #0
 887 0078 1A70     		strb	r2, [r3]
 405:Generated_Source\PSoC5/cyfitter_cfg.c **** 		CY_SET_REG8((void CYXDATA *)CYREG_PRT2_AG, 0x20u);
 888              		.loc 1 405 0
 889 007a 074B     		ldr	r3, .L56+4
 890 007c 2022     		movs	r2, #32
 891 007e 1A70     		strb	r2, [r3]
 406:Generated_Source\PSoC5/cyfitter_cfg.c **** 		break;
 892              		.loc 1 406 0
 893 0080 03E0     		b	.L45
 894              	.L50:
 407:Generated_Source\PSoC5/cyfitter_cfg.c **** 	case 2:
 408:Generated_Source\PSoC5/cyfitter_cfg.c **** 		CY_SET_REG8((void CYXDATA *)CYREG_PRT2_AG, 0x02u);
 895              		.loc 1 408 0
 896 0082 054B     		ldr	r3, .L56+4
 897 0084 0222     		movs	r2, #2
ARM GAS  C:\Users\Keshuai\AppData\Local\Temp\cckKd49v.s 			page 24


 898 0086 1A70     		strb	r2, [r3]
 409:Generated_Source\PSoC5/cyfitter_cfg.c **** 		break;
 899              		.loc 1 409 0
 900 0088 00BF     		nop
 901              	.L45:
 410:Generated_Source\PSoC5/cyfitter_cfg.c **** 	}
 411:Generated_Source\PSoC5/cyfitter_cfg.c **** }
 902              		.loc 1 411 0
 903 008a BD46     		mov	sp, r7
 904              		.cfi_def_cfa_register 13
 905              		@ sp needed
 906 008c 5DF8047B 		ldr	r7, [sp], #4
 907              		.cfi_restore 7
 908              		.cfi_def_cfa_offset 0
 909 0090 7047     		bx	lr
 910              	.L57:
 911 0092 00BF     		.align	2
 912              	.L56:
 913 0094 00000000 		.word	AMuxSeq_1_CYAMUXSIDE_B_curChannel
 914 0098 2D510040 		.word	1073762605
 915 009c FD510040 		.word	1073762813
 916              		.cfi_endproc
 917              	.LFE11:
 918              		.size	AMuxSeq_1_CYAMUXSIDE_B_Next, .-AMuxSeq_1_CYAMUXSIDE_B_Next
 919              		.section	.text.cyfitter_cfg,"ax",%progbits
 920              		.align	2
 921              		.global	cyfitter_cfg
 922              		.thumb
 923              		.thumb_func
 924              		.type	cyfitter_cfg, %function
 925              	cyfitter_cfg:
 926              	.LFB12:
 412:Generated_Source\PSoC5/cyfitter_cfg.c **** 
 413:Generated_Source\PSoC5/cyfitter_cfg.c **** 
 414:Generated_Source\PSoC5/cyfitter_cfg.c **** 
 415:Generated_Source\PSoC5/cyfitter_cfg.c **** /*******************************************************************************
 416:Generated_Source\PSoC5/cyfitter_cfg.c **** * Function Name: cyfitter_cfg
 417:Generated_Source\PSoC5/cyfitter_cfg.c **** ********************************************************************************
 418:Generated_Source\PSoC5/cyfitter_cfg.c **** * Summary:
 419:Generated_Source\PSoC5/cyfitter_cfg.c **** *  This function is called by the start-up code for the selected device. It
 420:Generated_Source\PSoC5/cyfitter_cfg.c **** *  performs all of the necessary device configuration based on the design
 421:Generated_Source\PSoC5/cyfitter_cfg.c **** *  settings.  This includes settings from the Design Wide Resources (DWR) such
 422:Generated_Source\PSoC5/cyfitter_cfg.c **** *  as Clocks and Pins as well as any component configuration that is necessary.
 423:Generated_Source\PSoC5/cyfitter_cfg.c **** *
 424:Generated_Source\PSoC5/cyfitter_cfg.c **** * Parameters:  
 425:Generated_Source\PSoC5/cyfitter_cfg.c **** *   void
 426:Generated_Source\PSoC5/cyfitter_cfg.c **** *
 427:Generated_Source\PSoC5/cyfitter_cfg.c **** * Return:
 428:Generated_Source\PSoC5/cyfitter_cfg.c **** *   void
 429:Generated_Source\PSoC5/cyfitter_cfg.c **** *
 430:Generated_Source\PSoC5/cyfitter_cfg.c **** *******************************************************************************/
 431:Generated_Source\PSoC5/cyfitter_cfg.c **** 
 432:Generated_Source\PSoC5/cyfitter_cfg.c **** void cyfitter_cfg(void)
 433:Generated_Source\PSoC5/cyfitter_cfg.c **** {
 927              		.loc 1 433 0
 928              		.cfi_startproc
 929              		@ args = 0, pretend = 0, frame = 8
ARM GAS  C:\Users\Keshuai\AppData\Local\Temp\cckKd49v.s 			page 25


 930              		@ frame_needed = 1, uses_anonymous_args = 0
 931 0000 80B5     		push	{r7, lr}
 932              		.cfi_def_cfa_offset 8
 933              		.cfi_offset 7, -8
 934              		.cfi_offset 14, -4
 935 0002 82B0     		sub	sp, sp, #8
 936              		.cfi_def_cfa_offset 16
 937 0004 00AF     		add	r7, sp, #0
 938              		.cfi_def_cfa_register 7
 434:Generated_Source\PSoC5/cyfitter_cfg.c **** #ifdef CYGlobalIntDisable
 435:Generated_Source\PSoC5/cyfitter_cfg.c **** 	/* Disable interrupts by default. Let user enable if/when they want. */
 436:Generated_Source\PSoC5/cyfitter_cfg.c **** 	CYGlobalIntDisable
 939              		.loc 1 436 0
 940              	@ 436 "Generated_Source\PSoC5\cyfitter_cfg.c" 1
 941 0006 72B6     		CPSID   i
 942              	@ 0 "" 2
 437:Generated_Source\PSoC5/cyfitter_cfg.c **** #endif
 438:Generated_Source\PSoC5/cyfitter_cfg.c **** 
 439:Generated_Source\PSoC5/cyfitter_cfg.c **** 	/* Enable/Disable Debug functionality based on settings from System DWR */
 440:Generated_Source\PSoC5/cyfitter_cfg.c **** 	CY_SET_XTND_REG8((void CYFAR *)CYREG_MLOGIC_DEBUG, (CY_GET_XTND_REG8((void CYFAR *)CYREG_MLOGIC_DE
 943              		.loc 1 440 0
 944              		.thumb
 945 0008 3B4A     		ldr	r2, .L61
 946 000a 3B4B     		ldr	r3, .L61
 947 000c 1B78     		ldrb	r3, [r3]
 948 000e DBB2     		uxtb	r3, r3
 949 0010 43F00403 		orr	r3, r3, #4
 950 0014 DBB2     		uxtb	r3, r3
 951 0016 1370     		strb	r3, [r2]
 952              	.LBB3:
 441:Generated_Source\PSoC5/cyfitter_cfg.c **** 
 442:Generated_Source\PSoC5/cyfitter_cfg.c **** 	{
 443:Generated_Source\PSoC5/cyfitter_cfg.c **** 
 444:Generated_Source\PSoC5/cyfitter_cfg.c **** 		CYPACKED typedef struct {
 445:Generated_Source\PSoC5/cyfitter_cfg.c **** 			void CYFAR *address;
 446:Generated_Source\PSoC5/cyfitter_cfg.c **** 			uint16 size;
 447:Generated_Source\PSoC5/cyfitter_cfg.c **** 		} CYPACKED_ATTR cfg_memset_t;
 448:Generated_Source\PSoC5/cyfitter_cfg.c **** 
 449:Generated_Source\PSoC5/cyfitter_cfg.c **** 		static const cfg_memset_t CYCODE cfg_memset_list [] = {
 450:Generated_Source\PSoC5/cyfitter_cfg.c **** 			/* address, size */
 451:Generated_Source\PSoC5/cyfitter_cfg.c **** 			{(void CYFAR *)(CYREG_PRT3_DR), 64u},
 452:Generated_Source\PSoC5/cyfitter_cfg.c **** 			{(void CYFAR *)(CYREG_PRT12_DR), 16u},
 453:Generated_Source\PSoC5/cyfitter_cfg.c **** 			{(void CYFAR *)(CYDEV_UCFG_B0_P0_U0_BASE), 4096u},
 454:Generated_Source\PSoC5/cyfitter_cfg.c **** 			{(void CYFAR *)(CYDEV_UCFG_B1_P2_U0_BASE), 2048u},
 455:Generated_Source\PSoC5/cyfitter_cfg.c **** 			{(void CYFAR *)(CYDEV_UCFG_DSI0_BASE), 2560u},
 456:Generated_Source\PSoC5/cyfitter_cfg.c **** 			{(void CYFAR *)(CYDEV_UCFG_DSI12_BASE), 512u},
 457:Generated_Source\PSoC5/cyfitter_cfg.c **** 			{(void CYFAR *)(CYREG_BCTL0_MDCLK_EN), 32u},
 458:Generated_Source\PSoC5/cyfitter_cfg.c **** 		};
 459:Generated_Source\PSoC5/cyfitter_cfg.c **** 
 460:Generated_Source\PSoC5/cyfitter_cfg.c **** 		uint8 CYDATA i;
 461:Generated_Source\PSoC5/cyfitter_cfg.c **** 
 462:Generated_Source\PSoC5/cyfitter_cfg.c **** 		/* Zero out critical memory blocks before beginning configuration */
 463:Generated_Source\PSoC5/cyfitter_cfg.c **** 		for (i = 0u; i < (sizeof(cfg_memset_list)/sizeof(cfg_memset_list[0])); i++)
 953              		.loc 1 463 0
 954 0018 0023     		movs	r3, #0
 955 001a FB71     		strb	r3, [r7, #7]
 956 001c 13E0     		b	.L59
ARM GAS  C:\Users\Keshuai\AppData\Local\Temp\cckKd49v.s 			page 26


 957              	.L60:
 958              	.LBB4:
 464:Generated_Source\PSoC5/cyfitter_cfg.c **** 		{
 465:Generated_Source\PSoC5/cyfitter_cfg.c **** 			const cfg_memset_t CYCODE * CYDATA ms = &cfg_memset_list[i];
 959              		.loc 1 465 0 discriminator 3
 960 001e FA79     		ldrb	r2, [r7, #7]	@ zero_extendqisi2
 961 0020 1346     		mov	r3, r2
 962 0022 5B00     		lsls	r3, r3, #1
 963 0024 1344     		add	r3, r3, r2
 964 0026 5B00     		lsls	r3, r3, #1
 965 0028 344A     		ldr	r2, .L61+4
 966 002a 1344     		add	r3, r3, r2
 967 002c 3B60     		str	r3, [r7]
 466:Generated_Source\PSoC5/cyfitter_cfg.c **** 			CYMEMZERO(ms->address, (size_t)(uint32)(ms->size));
 968              		.loc 1 466 0 discriminator 3
 969 002e 3B68     		ldr	r3, [r7]
 970 0030 1A68     		ldr	r2, [r3]	@ unaligned
 971 0032 3B68     		ldr	r3, [r7]
 972 0034 9B88     		ldrh	r3, [r3, #4]	@ unaligned
 973 0036 9BB2     		uxth	r3, r3
 974 0038 1046     		mov	r0, r2
 975 003a 1946     		mov	r1, r3
 976 003c FFF7FEFF 		bl	CYMEMZERO
 977              	.LBE4:
 463:Generated_Source\PSoC5/cyfitter_cfg.c **** 		{
 978              		.loc 1 463 0 discriminator 3
 979 0040 FB79     		ldrb	r3, [r7, #7]	@ zero_extendqisi2
 980 0042 0133     		adds	r3, r3, #1
 981 0044 FB71     		strb	r3, [r7, #7]
 982              	.L59:
 463:Generated_Source\PSoC5/cyfitter_cfg.c **** 		{
 983              		.loc 1 463 0 is_stmt 0 discriminator 1
 984 0046 FB79     		ldrb	r3, [r7, #7]	@ zero_extendqisi2
 985 0048 062B     		cmp	r3, #6
 986 004a E8D9     		bls	.L60
 467:Generated_Source\PSoC5/cyfitter_cfg.c **** 		}
 468:Generated_Source\PSoC5/cyfitter_cfg.c **** 
 469:Generated_Source\PSoC5/cyfitter_cfg.c **** 		cfg_write_bytes32(cy_cfg_addr_table, cy_cfg_data_table);
 987              		.loc 1 469 0 is_stmt 1
 988 004c 4FF09040 		mov	r0, #1207959552
 989 0050 2B49     		ldr	r1, .L61+8
 990 0052 FFF7FEFF 		bl	cfg_write_bytes32
 470:Generated_Source\PSoC5/cyfitter_cfg.c **** 
 471:Generated_Source\PSoC5/cyfitter_cfg.c **** 		/* Perform normal device configuration. Order is not critical for these items. */
 472:Generated_Source\PSoC5/cyfitter_cfg.c **** 		CY_SET_XTND_REG8((void CYFAR *)(CYREG_DSM0_CR3), 0x0Au);
 991              		.loc 1 472 0
 992 0056 2B4B     		ldr	r3, .L61+12
 993 0058 0A22     		movs	r2, #10
 994 005a 1A70     		strb	r2, [r3]
 473:Generated_Source\PSoC5/cyfitter_cfg.c **** 
 474:Generated_Source\PSoC5/cyfitter_cfg.c **** 		/* Enable digital routing */
 475:Generated_Source\PSoC5/cyfitter_cfg.c **** 		CY_SET_XTND_REG8((void CYFAR *)CYREG_BCTL0_BANK_CTL, CY_GET_XTND_REG8((void CYFAR *)CYREG_BCTL0_B
 995              		.loc 1 475 0
 996 005c 2A4A     		ldr	r2, .L61+16
 997 005e 2A4B     		ldr	r3, .L61+16
 998 0060 1B78     		ldrb	r3, [r3]
 999 0062 DBB2     		uxtb	r3, r3
ARM GAS  C:\Users\Keshuai\AppData\Local\Temp\cckKd49v.s 			page 27


 1000 0064 43F00203 		orr	r3, r3, #2
 1001 0068 DBB2     		uxtb	r3, r3
 1002 006a 1370     		strb	r3, [r2]
 476:Generated_Source\PSoC5/cyfitter_cfg.c **** 		CY_SET_XTND_REG8((void CYFAR *)CYREG_BCTL1_BANK_CTL, CY_GET_XTND_REG8((void CYFAR *)CYREG_BCTL1_B
 1003              		.loc 1 476 0
 1004 006c 274A     		ldr	r2, .L61+20
 1005 006e 274B     		ldr	r3, .L61+20
 1006 0070 1B78     		ldrb	r3, [r3]
 1007 0072 DBB2     		uxtb	r3, r3
 1008 0074 43F00203 		orr	r3, r3, #2
 1009 0078 DBB2     		uxtb	r3, r3
 1010 007a 1370     		strb	r3, [r2]
 477:Generated_Source\PSoC5/cyfitter_cfg.c **** 
 478:Generated_Source\PSoC5/cyfitter_cfg.c **** 		/* Enable UDB array */
 479:Generated_Source\PSoC5/cyfitter_cfg.c **** 		CY_SET_XTND_REG8((void CYFAR *)CYREG_PM_ACT_CFG0, CY_GET_XTND_REG8((void CYFAR *)CYREG_PM_ACT_CFG
 1011              		.loc 1 479 0
 1012 007c 244A     		ldr	r2, .L61+24
 1013 007e 244B     		ldr	r3, .L61+24
 1014 0080 1B78     		ldrb	r3, [r3]
 1015 0082 DBB2     		uxtb	r3, r3
 1016 0084 43F04003 		orr	r3, r3, #64
 1017 0088 DBB2     		uxtb	r3, r3
 1018 008a 1370     		strb	r3, [r2]
 480:Generated_Source\PSoC5/cyfitter_cfg.c **** 		CY_SET_XTND_REG8((void CYFAR *)CYREG_PM_AVAIL_CR2, CY_GET_XTND_REG8((void CYFAR *)CYREG_PM_AVAIL_
 1019              		.loc 1 480 0
 1020 008c 214A     		ldr	r2, .L61+28
 1021 008e 214B     		ldr	r3, .L61+28
 1022 0090 1B78     		ldrb	r3, [r3]
 1023 0092 DBB2     		uxtb	r3, r3
 1024 0094 43F01003 		orr	r3, r3, #16
 1025 0098 DBB2     		uxtb	r3, r3
 1026 009a 1370     		strb	r3, [r2]
 1027              	.LBE3:
 481:Generated_Source\PSoC5/cyfitter_cfg.c **** 	}
 482:Generated_Source\PSoC5/cyfitter_cfg.c **** 
 483:Generated_Source\PSoC5/cyfitter_cfg.c **** 
 484:Generated_Source\PSoC5/cyfitter_cfg.c **** 	/* Perform second pass device configuration. These items must be configured in specific order afte
 485:Generated_Source\PSoC5/cyfitter_cfg.c **** 	CYCONFIGCPY((void CYFAR *)(CYREG_PRT0_DM0), (const void CYFAR *)(BS_IOPINS0_0_VAL), 8u);
 1028              		.loc 1 485 0
 1029 009c 1E48     		ldr	r0, .L61+32
 1030 009e 1F49     		ldr	r1, .L61+36
 1031 00a0 0822     		movs	r2, #8
 1032 00a2 FFF7FEFF 		bl	CYCONFIGCPY
 486:Generated_Source\PSoC5/cyfitter_cfg.c **** 	CYCONFIGCPY((void CYFAR *)(CYREG_PRT15_DR), (const void CYFAR *)(BS_IOPINS0_8_VAL), 10u);
 1033              		.loc 1 486 0
 1034 00a6 1E48     		ldr	r0, .L61+40
 1035 00a8 1E49     		ldr	r1, .L61+44
 1036 00aa 0A22     		movs	r2, #10
 1037 00ac FFF7FEFF 		bl	CYCONFIGCPY
 487:Generated_Source\PSoC5/cyfitter_cfg.c **** 	CYCONFIGCPY((void CYFAR *)(CYREG_PRT1_DM0), (const void CYFAR *)(BS_IOPINS0_1_VAL), 8u);
 1038              		.loc 1 487 0
 1039 00b0 1D48     		ldr	r0, .L61+48
 1040 00b2 1E49     		ldr	r1, .L61+52
 1041 00b4 0822     		movs	r2, #8
 1042 00b6 FFF7FEFF 		bl	CYCONFIGCPY
 488:Generated_Source\PSoC5/cyfitter_cfg.c **** 	CYCONFIGCPY((void CYFAR *)(CYREG_PRT2_DM0), (const void CYFAR *)(BS_IOPINS0_2_VAL), 8u);
 1043              		.loc 1 488 0
ARM GAS  C:\Users\Keshuai\AppData\Local\Temp\cckKd49v.s 			page 28


 1044 00ba 1D48     		ldr	r0, .L61+56
 1045 00bc 1D49     		ldr	r1, .L61+60
 1046 00be 0822     		movs	r2, #8
 1047 00c0 FFF7FEFF 		bl	CYCONFIGCPY
 489:Generated_Source\PSoC5/cyfitter_cfg.c **** 	/* Switch Boost to the precision bandgap reference from its internal reference */
 490:Generated_Source\PSoC5/cyfitter_cfg.c **** 	CY_SET_REG8((void CYXDATA *)CYREG_BOOST_CR2, (CY_GET_REG8((void CYXDATA *)CYREG_BOOST_CR2) | 0x08u
 1048              		.loc 1 490 0
 1049 00c4 1C4A     		ldr	r2, .L61+64
 1050 00c6 1C4B     		ldr	r3, .L61+64
 1051 00c8 1B78     		ldrb	r3, [r3]
 1052 00ca DBB2     		uxtb	r3, r3
 1053 00cc 43F00803 		orr	r3, r3, #8
 1054 00d0 DBB2     		uxtb	r3, r3
 1055 00d2 1370     		strb	r3, [r2]
 491:Generated_Source\PSoC5/cyfitter_cfg.c **** 
 492:Generated_Source\PSoC5/cyfitter_cfg.c **** 	/* Set Flash Cycles based on max possible frequency in case a glitch occurs during ClockSetup(). *
 493:Generated_Source\PSoC5/cyfitter_cfg.c **** 	CY_SET_XTND_REG8((void CYFAR *)(CYREG_CACHE_CC_CTL), (((CYDEV_INSTRUCT_CACHE_ENABLED) != 0) ? 0x61
 1056              		.loc 1 493 0
 1057 00d4 194B     		ldr	r3, .L61+68
 1058 00d6 6022     		movs	r2, #96
 1059 00d8 1A70     		strb	r2, [r3]
 494:Generated_Source\PSoC5/cyfitter_cfg.c **** 	/* Setup clocks based on selections from Clock DWR */
 495:Generated_Source\PSoC5/cyfitter_cfg.c **** 	ClockSetup();
 1060              		.loc 1 495 0
 1061 00da FFF7FEFF 		bl	ClockSetup
 496:Generated_Source\PSoC5/cyfitter_cfg.c **** 	/* Set Flash Cycles based on newly configured 24.00MHz Bus Clock. */
 497:Generated_Source\PSoC5/cyfitter_cfg.c **** 	CY_SET_XTND_REG8((void CYFAR *)(CYREG_CACHE_CC_CTL), (((CYDEV_INSTRUCT_CACHE_ENABLED) != 0) ? 0x81
 1062              		.loc 1 497 0
 1063 00de 174B     		ldr	r3, .L61+68
 1064 00e0 8022     		movs	r2, #128
 1065 00e2 1A70     		strb	r2, [r3]
 498:Generated_Source\PSoC5/cyfitter_cfg.c **** 
 499:Generated_Source\PSoC5/cyfitter_cfg.c **** 	/* Perform basic analog initialization to defaults */
 500:Generated_Source\PSoC5/cyfitter_cfg.c **** 	AnalogSetDefault();
 1066              		.loc 1 500 0
 1067 00e4 FFF7FEFF 		bl	AnalogSetDefault
 501:Generated_Source\PSoC5/cyfitter_cfg.c **** 
 502:Generated_Source\PSoC5/cyfitter_cfg.c **** 	/* Configure alternate active mode */
 503:Generated_Source\PSoC5/cyfitter_cfg.c **** 	CYCONFIGCPY((void CYFAR *)CYDEV_PM_STBY_BASE, (const void CYFAR *)CYDEV_PM_ACT_BASE, 14u);
 1068              		.loc 1 503 0
 1069 00e8 1548     		ldr	r0, .L61+72
 1070 00ea 0949     		ldr	r1, .L61+24
 1071 00ec 0E22     		movs	r2, #14
 1072 00ee FFF7FEFF 		bl	CYCONFIGCPY
 504:Generated_Source\PSoC5/cyfitter_cfg.c **** }
 1073              		.loc 1 504 0
 1074 00f2 0837     		adds	r7, r7, #8
 1075              		.cfi_def_cfa_offset 8
 1076 00f4 BD46     		mov	sp, r7
 1077              		.cfi_def_cfa_register 13
 1078              		@ sp needed
 1079 00f6 80BD     		pop	{r7, pc}
 1080              	.L62:
 1081              		.align	2
 1082              	.L61:
 1083 00f8 E8460040 		.word	1073759976
 1084 00fc 00000000 		.word	cfg_memset_list.4924
ARM GAS  C:\Users\Keshuai\AppData\Local\Temp\cckKd49v.s 			page 29


 1085 0100 58000048 		.word	1207959640
 1086 0104 83580040 		.word	1073764483
 1087 0108 03500140 		.word	1073827843
 1088 010c 13500140 		.word	1073827859
 1089 0110 A0430040 		.word	1073759136
 1090 0114 C2430040 		.word	1073759170
 1091 0118 02510040 		.word	1073762562
 1092 011c B8000048 		.word	1207959736
 1093 0120 F0510040 		.word	1073762800
 1094 0124 C0000048 		.word	1207959744
 1095 0128 12510040 		.word	1073762578
 1096 012c CC000048 		.word	1207959756
 1097 0130 22510040 		.word	1073762594
 1098 0134 D4000048 		.word	1207959764
 1099 0138 22430040 		.word	1073759010
 1100 013c 00480040 		.word	1073760256
 1101 0140 B0430040 		.word	1073759152
 1102              		.cfi_endproc
 1103              	.LFE12:
 1104              		.size	cyfitter_cfg, .-cyfitter_cfg
 1105              		.section	.rodata
 1106              		.align	2
 1107              		.type	cfg_memset_list.4924, %object
 1108              		.size	cfg_memset_list.4924, 42
 1109              	cfg_memset_list.4924:
 1110 0000 30510040 		.word	1073762608
 1111 0004 4000     		.short	64
 1112 0006 C0510040 		.4byte	1073762752
 1113 000a 1000     		.short	16
 1114 000c 00000140 		.word	1073807360
 1115 0010 0010     		.short	4096
 1116 0012 00140140 		.4byte	1073812480
 1117 0016 0008     		.short	2048
 1118 0018 00400140 		.word	1073823744
 1119 001c 000A     		.short	2560
 1120 001e 004C0140 		.4byte	1073826816
 1121 0022 0002     		.short	512
 1122 0024 00500140 		.word	1073827840
 1123 0028 2000     		.short	32
 1124 002a 0000     		.text
 1125              	.Letext0:
 1126              		.file 2 "c:\\program files (x86)\\cypress\\psoc creator\\4.0\\psoc creator\\import\\gnu\\arm\\4.9.
 1127              		.file 3 "Generated_Source\\PSoC5\\cytypes.h"