ARM GAS  C:\Users\Keshuai\AppData\Local\Temp\ccwrw6e3.s 			page 1


   1              		.syntax unified
   2              		.cpu cortex-m3
   3              		.fpu softvfp
   4              		.eabi_attribute 20, 1
   5              		.eabi_attribute 21, 1
   6              		.eabi_attribute 23, 3
   7              		.eabi_attribute 24, 1
   8              		.eabi_attribute 25, 1
   9              		.eabi_attribute 26, 1
  10              		.eabi_attribute 30, 6
  11              		.eabi_attribute 34, 1
  12              		.eabi_attribute 18, 4
  13              		.thumb
  14              		.file	"main.c"
  15              		.text
  16              	.Ltext0:
  17              		.cfi_sections	.debug_frame
  18              		.bss
  19              		.align	1
  20              	X_Axis:
  21 0000 0000     		.space	2
  22              		.align	1
  23              	Y_Axis:
  24 0002 0000     		.space	2
  25              		.align	1
  26              	X_Data:
  27 0004 0000     		.space	2
  28              		.align	1
  29              	Y_Data:
  30 0006 0000     		.space	2
  31              		.align	2
  32              	Joystick_Data:
  33 0008 000000   		.space	3
  34              	Buttons:
  35 000b 00       		.space	1
  36              		.section	.rodata
  37              		.align	2
  38              	.LC0:
  39 0000 4144435F 		.ascii	"ADC_Output\000"
  39      4F757470 
  39      757400
  40 000b 00       		.align	2
  41              	.LC1:
  42 000c 523A2025 		.ascii	"R: %ld\012\000"
  42      6C640A00 
  43              		.section	.text.main,"ax",%progbits
  44              		.align	2
  45              		.global	main
  46              		.thumb
  47              		.thumb_func
  48              		.type	main, %function
  49              	main:
  50              	.LFB63:
  51              		.file 1 "main.c"
   1:main.c        **** /*******************************************************************************
   2:main.c        **** * File Name: main.c
   3:main.c        **** *
ARM GAS  C:\Users\Keshuai\AppData\Local\Temp\ccwrw6e3.s 			page 2


   4:main.c        **** * Version: 2.20
   5:main.c        **** *
   6:main.c        **** * Description:
   7:main.c        **** *   This is a source code for example project of ADC single ended mode.
   8:main.c        **** *
   9:main.c        **** *   Variable resistor(pot) is connected to +ve input of ADC using the I/O pin.
  10:main.c        **** *   P0.0. When voltage to positive terminal of ADC is 0, the output displayed
  11:main.c        **** *   on the LCD pannel is 0x0000. As voltage on positive terminal goes on
  12:main.c        **** *   increasing, the  converted value goes on increasing from 0x0000 and reaches
  13:main.c        **** *   0xFFFF when voltage becomes 1.024V. Futher increase in voltage value,
  14:main.c        **** *   doesn't cause any changes to values displayed in the LCD.
  15:main.c        **** *
  16:main.c        **** * Hardware Connections:
  17:main.c        **** *  Connect analog input from Variable resistor to port P0[0] of DVK1 board.
  18:main.c        **** *
  19:main.c        **** ********************************************************************************
  20:main.c        **** * Copyright 2012-2015, Cypress Semiconductor Corporation. All rights reserved.
  21:main.c        **** * This software is owned by Cypress Semiconductor Corporation and is protected
  22:main.c        **** * by and subject to worldwide patent and copyright laws and treaties.
  23:main.c        **** * Therefore, you may use this software only as provided in the license agreement
  24:main.c        **** * accompanying the software package from which you obtained this software.
  25:main.c        **** * CYPRESS AND ITS SUPPLIERS MAKE NO WARRANTY OF ANY KIND, EXPRESS OR IMPLIED,
  26:main.c        **** * WITH REGARD TO THIS SOFTWARE, INCLUDING, BUT NOT LIMITED TO, NONINFRINGEMENT,
  27:main.c        **** * IMPLIED WARRANTIES OF MERCHANTABILITY AND FITNESS FOR A PARTICULAR PURPOSE.
  28:main.c        **** *******************************************************************************/
  29:main.c        **** 
  30:main.c        **** #include <project.h>
  31:main.c        **** #include "stdio.h"
  32:main.c        **** 
  33:main.c        **** /*******************************************************************************
  34:main.c        **** * Function Name: main
  35:main.c        **** ********************************************************************************
  36:main.c        **** *
  37:main.c        **** * Summary:
  38:main.c        **** *  main() performs following functions:
  39:main.c        **** *  1: Initializes the LCD
  40:main.c        **** *  2: Starts ADC
  41:main.c        **** *  3: Starts ADC converstion.
  42:main.c        **** *  4: Gets the converted result and displays it in LCD.
  43:main.c        **** *
  44:main.c        **** * Parameters:
  45:main.c        **** *  None.
  46:main.c        **** *
  47:main.c        **** * Return:
  48:main.c        **** *  None.
  49:main.c        **** *
  50:main.c        **** *******************************************************************************/
  51:main.c        **** 
  52:main.c        **** #define USBFS_DEVICE    (0u)
  53:main.c        **** 
  54:main.c        **** /* The buffer size is equal to the maximum packet size of the IN and OUT bulk
  55:main.c        **** * endpoints.
  56:main.c        **** */
  57:main.c        **** #define USBUART_BUFFER_SIZE (64u)
  58:main.c        **** #define LINE_STR_LENGTH     (20u)
  59:main.c        **** 
  60:main.c        **** static uint16 X_Axis=0, Y_Axis=0;
ARM GAS  C:\Users\Keshuai\AppData\Local\Temp\ccwrw6e3.s 			page 3


  61:main.c        **** static int16 X_Data, Y_Data;
  62:main.c        **** static int8 Joystick_Data[3] = {0, 0, 0}; /*[0] = X-Axis, [1] = Y-Axis, [2] = Buttons */
  63:main.c        **** static unsigned char Buttons;
  64:main.c        **** 
  65:main.c        **** 
  66:main.c        **** int main()
  67:main.c        **** {
  52              		.loc 1 67 0
  53              		.cfi_startproc
  54              		@ args = 0, pretend = 0, frame = 72
  55              		@ frame_needed = 1, uses_anonymous_args = 0
  56 0000 80B5     		push	{r7, lr}
  57              		.cfi_def_cfa_offset 8
  58              		.cfi_offset 7, -8
  59              		.cfi_offset 14, -4
  60 0002 92B0     		sub	sp, sp, #72
  61              		.cfi_def_cfa_offset 80
  62 0004 00AF     		add	r7, sp, #0
  63              		.cfi_def_cfa_register 7
  68:main.c        ****     int32 output;
  69:main.c        ****         uint16 count;
  70:main.c        ****     char buffer[USBUART_BUFFER_SIZE];
  71:main.c        ****     
  72:main.c        ****         CyGlobalIntEnable;
  64              		.loc 1 72 0
  65              	@ 72 "main.c" 1
  66 0006 62B6     		CPSIE   i
  67              	@ 0 "" 2
  73:main.c        **** 
  74:main.c        ****     /* Start USBFS operation with 5-V operation. */
  75:main.c        ****     USBUART_Start(USBFS_DEVICE, USBUART_5V_OPERATION);
  68              		.loc 1 75 0
  69              		.thumb
  70 0008 0020     		movs	r0, #0
  71 000a 0121     		movs	r1, #1
  72 000c FFF7FEFF 		bl	USBUART_Start
  76:main.c        ****  while(!USBUART_bGetConfiguration());
  73              		.loc 1 76 0
  74 0010 00BF     		nop
  75              	.L2:
  76              		.loc 1 76 0 is_stmt 0 discriminator 1
  77 0012 FFF7FEFF 		bl	USBUART_GetConfiguration
  78 0016 0346     		mov	r3, r0
  79 0018 002B     		cmp	r3, #0
  80 001a FAD0     		beq	.L2
  77:main.c        ****  USBUART_CDC_Init();
  81              		.loc 1 77 0 is_stmt 1
  82 001c FFF7FEFF 		bl	USBUART_CDC_Init
  78:main.c        **** 
  79:main.c        ****     /* Start the components */
  80:main.c        **** 
  81:main.c        ****     LCD_Start();
  83              		.loc 1 81 0
  84 0020 FFF7FEFF 		bl	LCD_Start
  82:main.c        ****     ADC_DelSig_1_Start();
  85              		.loc 1 82 0
  86 0024 FFF7FEFF 		bl	ADC_DelSig_1_Start
ARM GAS  C:\Users\Keshuai\AppData\Local\Temp\ccwrw6e3.s 			page 4


  83:main.c        **** 
  84:main.c        ****     /* Start the ADC conversion */
  85:main.c        ****     ADC_DelSig_1_StartConvert();
  87              		.loc 1 85 0
  88 0028 FFF7FEFF 		bl	ADC_DelSig_1_StartConvert
  86:main.c        **** 
  87:main.c        ****     /* Display the value of ADC output on LCD */
  88:main.c        ****     LCD_Position(0u, 0u);
  89              		.loc 1 88 0
  90 002c 0020     		movs	r0, #0
  91 002e 0021     		movs	r1, #0
  92 0030 FFF7FEFF 		bl	LCD_Position
  89:main.c        ****     LCD_PrintString("ADC_Output");
  93              		.loc 1 89 0
  94 0034 2448     		ldr	r0, .L7
  95 0036 FFF7FEFF 		bl	LCD_PrintString
  90:main.c        ****     USBUART_LoadInEP(3, (uint8 *)Joystick_Data, 3);
  96              		.loc 1 90 0
  97 003a 0320     		movs	r0, #3
  98 003c 2349     		ldr	r1, .L7+4
  99 003e 0322     		movs	r2, #3
 100 0040 FFF7FEFF 		bl	USBUART_LoadInEP
 101              	.L6:
  91:main.c        ****     
  92:main.c        **** 
  93:main.c        ****     for(;;)
  94:main.c        ****     {
  95:main.c        ****         if(ADC_DelSig_1_IsEndConversion(ADC_DelSig_1_RETURN_STATUS))
 102              		.loc 1 95 0
 103 0044 0120     		movs	r0, #1
 104 0046 FFF7FEFF 		bl	ADC_DelSig_1_IsEndConversion
 105 004a 0346     		mov	r3, r0
 106 004c 002B     		cmp	r3, #0
 107 004e 3AD0     		beq	.L3
 108              	.LBB2:
  96:main.c        ****         {
  97:main.c        ****             output = ADC_DelSig_1_GetResult32();
 109              		.loc 1 97 0
 110 0050 FFF7FEFF 		bl	ADC_DelSig_1_GetResult32
 111 0054 7864     		str	r0, [r7, #68]
  98:main.c        ****             
  99:main.c        ****             
 100:main.c        ****             output = (ADC_DelSig_1_CountsTo_uVolts(output)) / 8;
 112              		.loc 1 100 0
 113 0056 786C     		ldr	r0, [r7, #68]
 114 0058 FFF7FEFF 		bl	ADC_DelSig_1_CountsTo_uVolts
 115 005c 0346     		mov	r3, r0
 116 005e 002B     		cmp	r3, #0
 117 0060 00DA     		bge	.L4
 118 0062 0733     		adds	r3, r3, #7
 119              	.L4:
 120 0064 DB10     		asrs	r3, r3, #3
 121 0066 7B64     		str	r3, [r7, #68]
 101:main.c        ****             
 102:main.c        ****             int c = sprintf(buffer,"R: %ld\n", output);
 122              		.loc 1 102 0
 123 0068 3B46     		mov	r3, r7
ARM GAS  C:\Users\Keshuai\AppData\Local\Temp\ccwrw6e3.s 			page 5


 124 006a 1846     		mov	r0, r3
 125 006c 1849     		ldr	r1, .L7+8
 126 006e 7A6C     		ldr	r2, [r7, #68]
 127 0070 FFF7FEFF 		bl	sprintf
 128 0074 3864     		str	r0, [r7, #64]
 103:main.c        ****                                 while (0u == USBUART_CDCIsReady())
 129              		.loc 1 103 0
 130 0076 00BF     		nop
 131              	.L5:
 132              		.loc 1 103 0 is_stmt 0 discriminator 1
 133 0078 FFF7FEFF 		bl	USBUART_CDCIsReady
 134 007c 0346     		mov	r3, r0
 135 007e 002B     		cmp	r3, #0
 136 0080 FAD0     		beq	.L5
 104:main.c        ****                     {
 105:main.c        ****                     }
 106:main.c        ****             
 107:main.c        ****             USBUART_PutData((uint8_t*)buffer, c);
 137              		.loc 1 107 0 is_stmt 1
 138 0082 3B6C     		ldr	r3, [r7, #64]
 139 0084 9BB2     		uxth	r3, r3
 140 0086 3A46     		mov	r2, r7
 141 0088 1046     		mov	r0, r2
 142 008a 1946     		mov	r1, r3
 143 008c FFF7FEFF 		bl	USBUART_PutData
 108:main.c        ****             X_Data = output;
 144              		.loc 1 108 0
 145 0090 7B6C     		ldr	r3, [r7, #68]
 146 0092 9AB2     		uxth	r2, r3
 147 0094 0F4B     		ldr	r3, .L7+12
 148 0096 1A80     		strh	r2, [r3]	@ movhi
 109:main.c        ****             Y_Data = 101;
 149              		.loc 1 109 0
 150 0098 0F4B     		ldr	r3, .L7+16
 151 009a 6522     		movs	r2, #101
 152 009c 1A80     		strh	r2, [r3]	@ movhi
 110:main.c        ****             Joystick_Data[0] = X_Data;		
 153              		.loc 1 110 0
 154 009e 0D4B     		ldr	r3, .L7+12
 155 00a0 1B88     		ldrh	r3, [r3]
 156 00a2 DAB2     		uxtb	r2, r3
 157 00a4 094B     		ldr	r3, .L7+4
 158 00a6 1A70     		strb	r2, [r3]
 111:main.c        **** 		    Joystick_Data[1] = Y_Data;
 159              		.loc 1 111 0
 160 00a8 0B4B     		ldr	r3, .L7+16
 161 00aa 1B88     		ldrh	r3, [r3]
 162 00ac DAB2     		uxtb	r2, r3
 163 00ae 074B     		ldr	r3, .L7+4
 164 00b0 5A70     		strb	r2, [r3, #1]
 112:main.c        **** 		    Joystick_Data[2] = Buttons;
 165              		.loc 1 112 0
 166 00b2 0A4B     		ldr	r3, .L7+20
 167 00b4 1B78     		ldrb	r3, [r3]	@ zero_extendqisi2
 168 00b6 DAB2     		uxtb	r2, r3
 169 00b8 044B     		ldr	r3, .L7+4
 170 00ba 9A70     		strb	r2, [r3, #2]
ARM GAS  C:\Users\Keshuai\AppData\Local\Temp\ccwrw6e3.s 			page 6


 113:main.c        ****             USBUART_LoadInEP(3, (uint8 *)Joystick_Data, 3);
 171              		.loc 1 113 0
 172 00bc 0320     		movs	r0, #3
 173 00be 0349     		ldr	r1, .L7+4
 174 00c0 0322     		movs	r2, #3
 175 00c2 FFF7FEFF 		bl	USBUART_LoadInEP
 176              	.L3:
 177              	.LBE2:
 114:main.c        ****         }
 115:main.c        ****     }
 178              		.loc 1 115 0
 179 00c6 BDE7     		b	.L6
 180              	.L8:
 181              		.align	2
 182              	.L7:
 183 00c8 00000000 		.word	.LC0
 184 00cc 08000000 		.word	Joystick_Data
 185 00d0 0C000000 		.word	.LC1
 186 00d4 04000000 		.word	X_Data
 187 00d8 06000000 		.word	Y_Data
 188 00dc 0B000000 		.word	Buttons
 189              		.cfi_endproc
 190              	.LFE63:
 191              		.size	main, .-main
 192              		.text
 193              	.Letext0:
 194              		.file 2 "c:\\program files (x86)\\cypress\\psoc creator\\4.0\\psoc creator\\import\\gnu\\arm\\4.9.
 195              		.file 3 "c:\\program files (x86)\\cypress\\psoc creator\\4.0\\psoc creator\\import\\gnu\\arm\\4.9.
 196              		.file 4 "Generated_Source\\PSoC5/cytypes.h"
 197              		.file 5 "Generated_Source\\PSoC5/core_cm3.h"