ARM GAS  C:\Users\Keshuai\AppData\Local\Temp\ccTp3FAZ.s 			page 1


   1              		.syntax unified
   2              		.cpu cortex-m3
   3              		.fpu softvfp
   4              		.eabi_attribute 20, 1
   5              		.eabi_attribute 21, 1
   6              		.eabi_attribute 23, 3
   7              		.eabi_attribute 24, 1
   8              		.eabi_attribute 25, 1
   9              		.eabi_attribute 26, 1
  10              		.eabi_attribute 30, 6
  11              		.eabi_attribute 34, 1
  12              		.eabi_attribute 18, 4
  13              		.thumb
  14              		.file	"USBUART.c"
  15              		.text
  16              	.Ltext0:
  17              		.cfi_sections	.debug_frame
  18              		.global	USBUART_initVar
  19              		.bss
  20              		.type	USBUART_initVar, %object
  21              		.size	USBUART_initVar, 1
  22              	USBUART_initVar:
  23 0000 00       		.space	1
  24              		.section	.text.USBUART_Start,"ax",%progbits
  25              		.align	2
  26              		.global	USBUART_Start
  27              		.thumb
  28              		.thumb_func
  29              		.type	USBUART_Start, %function
  30              	USBUART_Start:
  31              	.LFB0:
  32              		.file 1 "Generated_Source\\PSoC5\\USBUART.c"
   1:Generated_Source\PSoC5/USBUART.c **** /***************************************************************************//**
   2:Generated_Source\PSoC5/USBUART.c **** * \file USBUART.c
   3:Generated_Source\PSoC5/USBUART.c **** * \version 3.10
   4:Generated_Source\PSoC5/USBUART.c **** *
   5:Generated_Source\PSoC5/USBUART.c **** * \brief
   6:Generated_Source\PSoC5/USBUART.c **** *  This file contains the global USBFS API functions.
   7:Generated_Source\PSoC5/USBUART.c **** *
   8:Generated_Source\PSoC5/USBUART.c **** * Note:
   9:Generated_Source\PSoC5/USBUART.c **** *  Many of the functions use an endpoint number. SRAM arrays are sized with 9
  10:Generated_Source\PSoC5/USBUART.c **** *  elements, so they are indexed directly by epNumber.  The SIE and ARB
  11:Generated_Source\PSoC5/USBUART.c **** *  registers are indexed by variations of epNumber - 1.
  12:Generated_Source\PSoC5/USBUART.c **** *
  13:Generated_Source\PSoC5/USBUART.c **** ********************************************************************************
  14:Generated_Source\PSoC5/USBUART.c **** * \copyright
  15:Generated_Source\PSoC5/USBUART.c **** * Copyright 2008-2016, Cypress Semiconductor Corporation.  All rights reserved.
  16:Generated_Source\PSoC5/USBUART.c **** * You may use this file only in accordance with the license, terms, conditions,
  17:Generated_Source\PSoC5/USBUART.c **** * disclaimers, and limitations in the end user license agreement accompanying
  18:Generated_Source\PSoC5/USBUART.c **** * the software package with which this file was provided.
  19:Generated_Source\PSoC5/USBUART.c **** *******************************************************************************/
  20:Generated_Source\PSoC5/USBUART.c **** 
  21:Generated_Source\PSoC5/USBUART.c **** #include "USBUART_pvt.h"
  22:Generated_Source\PSoC5/USBUART.c **** #include "USBUART_cydmac.h"
  23:Generated_Source\PSoC5/USBUART.c **** #include "USBUART_hid.h"
  24:Generated_Source\PSoC5/USBUART.c **** #include "USBUART_Dp.h"
  25:Generated_Source\PSoC5/USBUART.c **** 
ARM GAS  C:\Users\Keshuai\AppData\Local\Temp\ccTp3FAZ.s 			page 2


  26:Generated_Source\PSoC5/USBUART.c **** 
  27:Generated_Source\PSoC5/USBUART.c **** /***************************************
  28:Generated_Source\PSoC5/USBUART.c **** * Global data allocation
  29:Generated_Source\PSoC5/USBUART.c **** ***************************************/
  30:Generated_Source\PSoC5/USBUART.c **** 
  31:Generated_Source\PSoC5/USBUART.c **** /** Indicates whether the USBFS has been initialized. The variable is
  32:Generated_Source\PSoC5/USBUART.c **** * initialized to 0 after device reset and set to 1 the first time USBFS_Start()
  33:Generated_Source\PSoC5/USBUART.c **** * is called. This allows the Component to restart without reinitialization after
  34:Generated_Source\PSoC5/USBUART.c **** * the first call to the USBFS_Start() routine.
  35:Generated_Source\PSoC5/USBUART.c **** * If re-initialization of the Component is required, the variable should be set
  36:Generated_Source\PSoC5/USBUART.c **** * to 0 before the USBFS_Start() routine is called. Alternatively, the USBFS can
  37:Generated_Source\PSoC5/USBUART.c **** * be reinitialized by calling both USBFS_Init() and USBFS_InitComponent()
  38:Generated_Source\PSoC5/USBUART.c **** * functions.
  39:Generated_Source\PSoC5/USBUART.c **** */
  40:Generated_Source\PSoC5/USBUART.c **** uint8 USBUART_initVar = 0u;
  41:Generated_Source\PSoC5/USBUART.c **** 
  42:Generated_Source\PSoC5/USBUART.c **** #if (USBUART_EP_MANAGEMENT_DMA)
  43:Generated_Source\PSoC5/USBUART.c ****     #if (CY_PSOC4)
  44:Generated_Source\PSoC5/USBUART.c ****         static void USBUART_InitEpDma(void);
  45:Generated_Source\PSoC5/USBUART.c **** 
  46:Generated_Source\PSoC5/USBUART.c ****         /* DMA chanels assigend for endpoints. */
  47:Generated_Source\PSoC5/USBUART.c ****         const uint8 USBUART_DmaChan[USBUART_MAX_EP] =
  48:Generated_Source\PSoC5/USBUART.c ****         {
  49:Generated_Source\PSoC5/USBUART.c ****             0u,
  50:Generated_Source\PSoC5/USBUART.c ****             0u,
  51:Generated_Source\PSoC5/USBUART.c ****             0u,
  52:Generated_Source\PSoC5/USBUART.c ****             0u,
  53:Generated_Source\PSoC5/USBUART.c ****             0u,
  54:Generated_Source\PSoC5/USBUART.c ****             0u,
  55:Generated_Source\PSoC5/USBUART.c ****             0u,
  56:Generated_Source\PSoC5/USBUART.c ****             0u,
  57:Generated_Source\PSoC5/USBUART.c ****             0u,
  58:Generated_Source\PSoC5/USBUART.c ****         };        
  59:Generated_Source\PSoC5/USBUART.c ****     #else
  60:Generated_Source\PSoC5/USBUART.c ****         /* DMA chanels assigend for endpoints. */
  61:Generated_Source\PSoC5/USBUART.c ****         uint8 USBUART_DmaChan[USBUART_MAX_EP];
  62:Generated_Source\PSoC5/USBUART.c ****         
  63:Generated_Source\PSoC5/USBUART.c ****         /* DMA TDs require for PSoC 3/5LP operation. */
  64:Generated_Source\PSoC5/USBUART.c ****         uint8 USBUART_DmaTd[USBUART_MAX_EP];
  65:Generated_Source\PSoC5/USBUART.c ****     #endif /* (CY_PSOC4) */
  66:Generated_Source\PSoC5/USBUART.c **** #endif /* (USBUART_EP_MANAGEMENT_DMA) */
  67:Generated_Source\PSoC5/USBUART.c **** 
  68:Generated_Source\PSoC5/USBUART.c **** #if (USBUART_EP_MANAGEMENT_DMA_AUTO)
  69:Generated_Source\PSoC5/USBUART.c **** #if (CY_PSOC4)
  70:Generated_Source\PSoC5/USBUART.c ****     /* Number of DMA bursts. */
  71:Generated_Source\PSoC5/USBUART.c ****     uint8  USBUART_DmaEpBurstCnt   [USBUART_MAX_EP];
  72:Generated_Source\PSoC5/USBUART.c ****     
  73:Generated_Source\PSoC5/USBUART.c ****     /* Number of bytes to transfer in last DMA burst. */
  74:Generated_Source\PSoC5/USBUART.c ****     uint8  USBUART_DmaEpLastBurstEl[USBUART_MAX_EP];
  75:Generated_Source\PSoC5/USBUART.c **** 
  76:Generated_Source\PSoC5/USBUART.c ****     /* Storage for arrays above. */
  77:Generated_Source\PSoC5/USBUART.c ****     uint8  USBUART_DmaEpBurstCntBackup  [USBUART_MAX_EP];
  78:Generated_Source\PSoC5/USBUART.c ****     uint32 USBUART_DmaEpBufferAddrBackup[USBUART_MAX_EP];
  79:Generated_Source\PSoC5/USBUART.c ****      
  80:Generated_Source\PSoC5/USBUART.c ****     /* DMA trigger mux output for usb.dma_req[0-7]. */
  81:Generated_Source\PSoC5/USBUART.c ****     const uint8 USBUART_DmaReqOut[USBUART_MAX_EP] =
  82:Generated_Source\PSoC5/USBUART.c ****     {
ARM GAS  C:\Users\Keshuai\AppData\Local\Temp\ccTp3FAZ.s 			page 3


  83:Generated_Source\PSoC5/USBUART.c ****         0u,
  84:Generated_Source\PSoC5/USBUART.c ****         0u,
  85:Generated_Source\PSoC5/USBUART.c ****         0u,
  86:Generated_Source\PSoC5/USBUART.c ****         USBUART_ep3_dma__TR_OUTPUT,
  87:Generated_Source\PSoC5/USBUART.c ****         USBUART_ep4_dma__TR_OUTPUT,
  88:Generated_Source\PSoC5/USBUART.c ****         0u,
  89:Generated_Source\PSoC5/USBUART.c ****         0u,
  90:Generated_Source\PSoC5/USBUART.c ****         0u,
  91:Generated_Source\PSoC5/USBUART.c ****         0u,
  92:Generated_Source\PSoC5/USBUART.c ****     };
  93:Generated_Source\PSoC5/USBUART.c **** 
  94:Generated_Source\PSoC5/USBUART.c ****     /* DMA trigger mux output for usb.dma_burstend[0-7]. */
  95:Generated_Source\PSoC5/USBUART.c ****     const uint8 USBUART_DmaBurstEndOut[USBUART_MAX_EP] =
  96:Generated_Source\PSoC5/USBUART.c ****     {
  97:Generated_Source\PSoC5/USBUART.c ****         0u,
  98:Generated_Source\PSoC5/USBUART.c ****         USBUART_BURSTEND_0_TR_OUTPUT,
  99:Generated_Source\PSoC5/USBUART.c ****         USBUART_BURSTEND_1_TR_OUTPUT,
 100:Generated_Source\PSoC5/USBUART.c ****         USBUART_BURSTEND_2_TR_OUTPUT,
 101:Generated_Source\PSoC5/USBUART.c ****         USBUART_BURSTEND_3_TR_OUTPUT,
 102:Generated_Source\PSoC5/USBUART.c ****         USBUART_BURSTEND_4_TR_OUTPUT,
 103:Generated_Source\PSoC5/USBUART.c ****         USBUART_BURSTEND_5_TR_OUTPUT,
 104:Generated_Source\PSoC5/USBUART.c ****         USBUART_BURSTEND_6_TR_OUTPUT,
 105:Generated_Source\PSoC5/USBUART.c ****         USBUART_BURSTEND_7_TR_OUTPUT
 106:Generated_Source\PSoC5/USBUART.c ****     };
 107:Generated_Source\PSoC5/USBUART.c ****     
 108:Generated_Source\PSoC5/USBUART.c **** #else
 109:Generated_Source\PSoC5/USBUART.c ****     #if (USBUART_EP_DMA_AUTO_OPT == 0u)
 110:Generated_Source\PSoC5/USBUART.c ****         static uint8 clearInDataRdyStatus = USBUART_ARB_EPX_CFG_DEFAULT;
 111:Generated_Source\PSoC5/USBUART.c ****         uint8 USBUART_DmaNextTd[USBUART_MAX_EP];
 112:Generated_Source\PSoC5/USBUART.c ****         const uint8 USBUART_epX_TD_TERMOUT_EN[USBUART_MAX_EP] =
 113:Generated_Source\PSoC5/USBUART.c ****         {
 114:Generated_Source\PSoC5/USBUART.c ****             0u,
 115:Generated_Source\PSoC5/USBUART.c ****             0u,
 116:Generated_Source\PSoC5/USBUART.c ****             0u,
 117:Generated_Source\PSoC5/USBUART.c ****             0u,
 118:Generated_Source\PSoC5/USBUART.c ****             0u,
 119:Generated_Source\PSoC5/USBUART.c ****             0u,
 120:Generated_Source\PSoC5/USBUART.c ****             0u,
 121:Generated_Source\PSoC5/USBUART.c ****             0u,
 122:Generated_Source\PSoC5/USBUART.c ****             0u,
 123:Generated_Source\PSoC5/USBUART.c ****         };
 124:Generated_Source\PSoC5/USBUART.c **** 
 125:Generated_Source\PSoC5/USBUART.c ****         volatile uint16 USBUART_inLength[USBUART_MAX_EP];
 126:Generated_Source\PSoC5/USBUART.c ****         const uint8 *USBUART_inDataPointer[USBUART_MAX_EP];
 127:Generated_Source\PSoC5/USBUART.c ****         volatile uint8 USBUART_inBufFull[USBUART_MAX_EP];
 128:Generated_Source\PSoC5/USBUART.c ****     #endif /* (USBUART_EP_DMA_AUTO_OPT == 0u) */
 129:Generated_Source\PSoC5/USBUART.c **** #endif /* (CY_PSOC4) */
 130:Generated_Source\PSoC5/USBUART.c **** #endif /* (USBUART_EP_MANAGEMENT_DMA_AUTO) */
 131:Generated_Source\PSoC5/USBUART.c **** 
 132:Generated_Source\PSoC5/USBUART.c **** 
 133:Generated_Source\PSoC5/USBUART.c **** /*******************************************************************************
 134:Generated_Source\PSoC5/USBUART.c **** * Function Name: USBUART_Start
 135:Generated_Source\PSoC5/USBUART.c **** ****************************************************************************//**
 136:Generated_Source\PSoC5/USBUART.c **** *
 137:Generated_Source\PSoC5/USBUART.c **** *   This function performs all required initialization for the USBFS component.
 138:Generated_Source\PSoC5/USBUART.c **** *   After this function call, the USB device initiates communication with the
 139:Generated_Source\PSoC5/USBUART.c **** *   host by pull-up D+ line. This is the preferred method to begin component
ARM GAS  C:\Users\Keshuai\AppData\Local\Temp\ccTp3FAZ.s 			page 4


 140:Generated_Source\PSoC5/USBUART.c **** *   operation.
 141:Generated_Source\PSoC5/USBUART.c **** *
 142:Generated_Source\PSoC5/USBUART.c **** *   Note that global interrupts have to be enabled because interrupts are
 143:Generated_Source\PSoC5/USBUART.c **** *   required for USBFS component operation.
 144:Generated_Source\PSoC5/USBUART.c **** *
 145:Generated_Source\PSoC5/USBUART.c **** *   PSoC 4200L devices: when USBFS component configured to DMA with Automatic
 146:Generated_Source\PSoC5/USBUART.c **** *   Buffer Management, the DMA interrupt priority is changed to the highest
 147:Generated_Source\PSoC5/USBUART.c **** *   (priority 0) inside this function.
 148:Generated_Source\PSoC5/USBUART.c **** *
 149:Generated_Source\PSoC5/USBUART.c **** *   PSoC 3/PSoC 5LP devices: when USBFS component configured to DMA with
 150:Generated_Source\PSoC5/USBUART.c **** *   Automatic Buffer Management, the Arbiter interrupt priority is changed to
 151:Generated_Source\PSoC5/USBUART.c **** *   the highest (priority 0) inside this function.
 152:Generated_Source\PSoC5/USBUART.c **** *
 153:Generated_Source\PSoC5/USBUART.c **** *  \param device
 154:Generated_Source\PSoC5/USBUART.c **** *          Contains the device number of the desired device descriptor.
 155:Generated_Source\PSoC5/USBUART.c **** *          The device number can be found in the Device Descriptor Tab of
 156:Generated_Source\PSoC5/USBUART.c **** *          "Configure" dialog, under the settings of desired Device Descriptor,
 157:Generated_Source\PSoC5/USBUART.c **** *          in the "Device Number" field.
 158:Generated_Source\PSoC5/USBUART.c **** *  \param mode:
 159:Generated_Source\PSoC5/USBUART.c **** *   The operating voltage. This determines whether the voltage regulator
 160:Generated_Source\PSoC5/USBUART.c **** *   is enabled for 5V operation or if pass through mode is used for 3.3V
 161:Generated_Source\PSoC5/USBUART.c **** *   operation. Symbolic names and their associated values are given in the
 162:Generated_Source\PSoC5/USBUART.c **** *   following list.
 163:Generated_Source\PSoC5/USBUART.c **** *
 164:Generated_Source\PSoC5/USBUART.c **** *       *USBUART_3V_OPERATION* - Disable voltage regulator and pass-
 165:Generated_Source\PSoC5/USBUART.c **** *                                      through Vcc for pull-up
 166:Generated_Source\PSoC5/USBUART.c **** *
 167:Generated_Source\PSoC5/USBUART.c **** *       *USBUART_5V_OPERATION* - Enable voltage regulator and use
 168:Generated_Source\PSoC5/USBUART.c **** *                                      regulator for pull-up
 169:Generated_Source\PSoC5/USBUART.c **** *
 170:Generated_Source\PSoC5/USBUART.c **** *       *USBUART_DWR_POWER_OPERATION* - Enable or disable the voltage
 171:Generated_Source\PSoC5/USBUART.c **** *                                      regulator depending on the power supply
 172:Generated_Source\PSoC5/USBUART.c **** *                                      voltage configuration in the DWR tab.
 173:Generated_Source\PSoC5/USBUART.c **** *                                      For PSoC 3/5LP devices, the VDDD supply
 174:Generated_Source\PSoC5/USBUART.c **** *                                      voltage is considered and for PSoC 4A-L,
 175:Generated_Source\PSoC5/USBUART.c **** *                                      the VBUS supply voltage is considered.*
 176:Generated_Source\PSoC5/USBUART.c **** * \globalvars
 177:Generated_Source\PSoC5/USBUART.c **** *  \ref USBUART_initVar
 178:Generated_Source\PSoC5/USBUART.c **** *
 179:Generated_Source\PSoC5/USBUART.c **** * \sideeffect
 180:Generated_Source\PSoC5/USBUART.c **** *   This function will reset all communication states to default.
 181:Generated_Source\PSoC5/USBUART.c **** *
 182:Generated_Source\PSoC5/USBUART.c **** * \reentrant
 183:Generated_Source\PSoC5/USBUART.c **** *  No.
 184:Generated_Source\PSoC5/USBUART.c **** *
 185:Generated_Source\PSoC5/USBUART.c **** *******************************************************************************/
 186:Generated_Source\PSoC5/USBUART.c **** void USBUART_Start(uint8 device, uint8 mode) 
 187:Generated_Source\PSoC5/USBUART.c **** {
  33              		.loc 1 187 0
  34              		.cfi_startproc
  35              		@ args = 0, pretend = 0, frame = 8
  36              		@ frame_needed = 1, uses_anonymous_args = 0
  37 0000 80B5     		push	{r7, lr}
  38              		.cfi_def_cfa_offset 8
  39              		.cfi_offset 7, -8
  40              		.cfi_offset 14, -4
  41 0002 82B0     		sub	sp, sp, #8
ARM GAS  C:\Users\Keshuai\AppData\Local\Temp\ccTp3FAZ.s 			page 5


  42              		.cfi_def_cfa_offset 16
  43 0004 00AF     		add	r7, sp, #0
  44              		.cfi_def_cfa_register 7
  45 0006 0346     		mov	r3, r0
  46 0008 0A46     		mov	r2, r1
  47 000a FB71     		strb	r3, [r7, #7]
  48 000c 1346     		mov	r3, r2
  49 000e BB71     		strb	r3, [r7, #6]
 188:Generated_Source\PSoC5/USBUART.c ****     if (0u == USBUART_initVar)
  50              		.loc 1 188 0
  51 0010 084B     		ldr	r3, .L3
  52 0012 1B78     		ldrb	r3, [r3]	@ zero_extendqisi2
  53 0014 002B     		cmp	r3, #0
  54 0016 04D1     		bne	.L2
 189:Generated_Source\PSoC5/USBUART.c ****     {
 190:Generated_Source\PSoC5/USBUART.c ****         USBUART_Init();
  55              		.loc 1 190 0
  56 0018 FFF7FEFF 		bl	USBUART_Init
 191:Generated_Source\PSoC5/USBUART.c ****         USBUART_initVar = 1u;
  57              		.loc 1 191 0
  58 001c 054B     		ldr	r3, .L3
  59 001e 0122     		movs	r2, #1
  60 0020 1A70     		strb	r2, [r3]
  61              	.L2:
 192:Generated_Source\PSoC5/USBUART.c ****     }
 193:Generated_Source\PSoC5/USBUART.c **** 
 194:Generated_Source\PSoC5/USBUART.c ****     USBUART_InitComponent(device, mode);
  62              		.loc 1 194 0
  63 0022 FA79     		ldrb	r2, [r7, #7]	@ zero_extendqisi2
  64 0024 BB79     		ldrb	r3, [r7, #6]	@ zero_extendqisi2
  65 0026 1046     		mov	r0, r2
  66 0028 1946     		mov	r1, r3
  67 002a FFF7FEFF 		bl	USBUART_InitComponent
 195:Generated_Source\PSoC5/USBUART.c **** }
  68              		.loc 1 195 0
  69 002e 0837     		adds	r7, r7, #8
  70              		.cfi_def_cfa_offset 8
  71 0030 BD46     		mov	sp, r7
  72              		.cfi_def_cfa_register 13
  73              		@ sp needed
  74 0032 80BD     		pop	{r7, pc}
  75              	.L4:
  76              		.align	2
  77              	.L3:
  78 0034 00000000 		.word	USBUART_initVar
  79              		.cfi_endproc
  80              	.LFE0:
  81              		.size	USBUART_Start, .-USBUART_Start
  82              		.section	.text.USBUART_Init,"ax",%progbits
  83              		.align	2
  84              		.global	USBUART_Init
  85              		.thumb
  86              		.thumb_func
  87              		.type	USBUART_Init, %function
  88              	USBUART_Init:
  89              	.LFB1:
 196:Generated_Source\PSoC5/USBUART.c **** 
ARM GAS  C:\Users\Keshuai\AppData\Local\Temp\ccTp3FAZ.s 			page 6


 197:Generated_Source\PSoC5/USBUART.c **** 
 198:Generated_Source\PSoC5/USBUART.c **** /*******************************************************************************
 199:Generated_Source\PSoC5/USBUART.c **** * Function Name: USBUART_Init
 200:Generated_Source\PSoC5/USBUART.c **** ****************************************************************************//**
 201:Generated_Source\PSoC5/USBUART.c **** *
 202:Generated_Source\PSoC5/USBUART.c **** * This function initializes or restores the component according to the
 203:Generated_Source\PSoC5/USBUART.c **** * customizer Configure dialog settings. It is not necessary to call
 204:Generated_Source\PSoC5/USBUART.c **** * USBUART_Init() because the USBUART_Start() routine calls
 205:Generated_Source\PSoC5/USBUART.c **** * this function and is the preferred method to begin component operation.
 206:Generated_Source\PSoC5/USBUART.c **** *
 207:Generated_Source\PSoC5/USBUART.c **** * \reentrant
 208:Generated_Source\PSoC5/USBUART.c **** *  No.
 209:Generated_Source\PSoC5/USBUART.c **** *
 210:Generated_Source\PSoC5/USBUART.c **** *******************************************************************************/
 211:Generated_Source\PSoC5/USBUART.c **** void USBUART_Init(void) 
 212:Generated_Source\PSoC5/USBUART.c **** {
  90              		.loc 1 212 0
  91              		.cfi_startproc
  92              		@ args = 0, pretend = 0, frame = 8
  93              		@ frame_needed = 1, uses_anonymous_args = 0
  94 0000 80B5     		push	{r7, lr}
  95              		.cfi_def_cfa_offset 8
  96              		.cfi_offset 7, -8
  97              		.cfi_offset 14, -4
  98 0002 82B0     		sub	sp, sp, #8
  99              		.cfi_def_cfa_offset 16
 100 0004 00AF     		add	r7, sp, #0
 101              		.cfi_def_cfa_register 7
 213:Generated_Source\PSoC5/USBUART.c **** #if (CY_PSOC4)
 214:Generated_Source\PSoC5/USBUART.c ****     /* Enable clock to USB IP. */
 215:Generated_Source\PSoC5/USBUART.c ****     USBUART_USB_CLK_EN_REG = USBUART_USB_CLK_CSR_CLK_EN;
 216:Generated_Source\PSoC5/USBUART.c **** 
 217:Generated_Source\PSoC5/USBUART.c ****     /* The internal regulator (CR1.REG_ENABLE) is enabled in
 218:Generated_Source\PSoC5/USBUART.c ****     * USBUART_InitComponent() if it is required.
 219:Generated_Source\PSoC5/USBUART.c ****     */
 220:Generated_Source\PSoC5/USBUART.c **** 
 221:Generated_Source\PSoC5/USBUART.c ****     /* Enable USBIO control on drive mode of D+ and D- pins. */
 222:Generated_Source\PSoC5/USBUART.c ****     USBUART_USBIO_CR1_REG &= ~ (uint32) USBUART_USBIO_CR1_IOMODE;
 223:Generated_Source\PSoC5/USBUART.c **** 
 224:Generated_Source\PSoC5/USBUART.c ****     /* Set number of LF CLK to detect UBS bus reset. */
 225:Generated_Source\PSoC5/USBUART.c ****     USBUART_BUS_RST_CNT_REG = USBUART_DEFUALT_BUS_RST_CNT;
 226:Generated_Source\PSoC5/USBUART.c **** 
 227:Generated_Source\PSoC5/USBUART.c ****     /* Select VBUS detection source and clear PHY isolate. The application level
 228:Generated_Source\PSoC5/USBUART.c ****     * must ensure that VBUS is valid. There is no need to wait 2us before VBUS is valid.
 229:Generated_Source\PSoC5/USBUART.c ****     */
 230:Generated_Source\PSoC5/USBUART.c ****     USBUART_POWER_CTRL_REG = USBUART_DEFAULT_POWER_CTRL_VBUS;
 231:Generated_Source\PSoC5/USBUART.c **** 
 232:Generated_Source\PSoC5/USBUART.c ****     /* Enable PHY detector and single-ended and differential receivers. */
 233:Generated_Source\PSoC5/USBUART.c ****     USBUART_POWER_CTRL_REG |= USBUART_DEFAULT_POWER_CTRL_PHY;
 234:Generated_Source\PSoC5/USBUART.c **** 
 235:Generated_Source\PSoC5/USBUART.c ****     /* Suspend clear sequence. */
 236:Generated_Source\PSoC5/USBUART.c ****     USBUART_POWER_CTRL_REG &= (uint32) ~USBUART_POWER_CTRL_SUSPEND;
 237:Generated_Source\PSoC5/USBUART.c ****     CyDelayUs(USBUART_WAIT_SUSPEND_DEL_DISABLE);
 238:Generated_Source\PSoC5/USBUART.c ****     USBUART_POWER_CTRL_REG &= (uint32) ~USBUART_POWER_CTRL_SUSPEND_DEL;
 239:Generated_Source\PSoC5/USBUART.c **** 
 240:Generated_Source\PSoC5/USBUART.c ****     /* Sets IMO lock options and clear all other bits. */
 241:Generated_Source\PSoC5/USBUART.c ****     USBUART_CR1_REG = USBUART_DEFUALT_CR1;
ARM GAS  C:\Users\Keshuai\AppData\Local\Temp\ccTp3FAZ.s 			page 7


 242:Generated_Source\PSoC5/USBUART.c **** 
 243:Generated_Source\PSoC5/USBUART.c ****     /* Configure level (hi, lo, med) for each interrupt source. */
 244:Generated_Source\PSoC5/USBUART.c ****     USBUART_INTR_LVL_SEL_REG = USBUART_DEFAULT_INTR_LVL_SEL;
 245:Generated_Source\PSoC5/USBUART.c **** 
 246:Generated_Source\PSoC5/USBUART.c ****     /* Configure interrupt sources from: SOF, Bus Reset and EP0. */
 247:Generated_Source\PSoC5/USBUART.c ****     USBUART_INTR_SIE_MASK_REG = USBUART_DEFAULT_INTR_SIE_MASK;
 248:Generated_Source\PSoC5/USBUART.c **** 
 249:Generated_Source\PSoC5/USBUART.c **** #else
 250:Generated_Source\PSoC5/USBUART.c ****     uint8 enableInterrupts = CyEnterCriticalSection();
 102              		.loc 1 250 0
 103 0006 FFF7FEFF 		bl	CyEnterCriticalSection
 104 000a 0346     		mov	r3, r0
 105 000c FB71     		strb	r3, [r7, #7]
 251:Generated_Source\PSoC5/USBUART.c **** 
 252:Generated_Source\PSoC5/USBUART.c **** #if (USBUART_EP_MANAGEMENT_DMA)
 253:Generated_Source\PSoC5/USBUART.c ****     uint16 i;
 254:Generated_Source\PSoC5/USBUART.c **** #endif /* (USBUART_EP_MANAGEMENT_DMA) */
 255:Generated_Source\PSoC5/USBUART.c **** 
 256:Generated_Source\PSoC5/USBUART.c ****     /* Enable USB block. */
 257:Generated_Source\PSoC5/USBUART.c ****     USBUART_PM_ACT_CFG_REG |= USBUART_PM_ACT_EN_FSUSB;
 106              		.loc 1 257 0
 107 000e 4F4A     		ldr	r2, .L6
 108 0010 4E4B     		ldr	r3, .L6
 109 0012 1B78     		ldrb	r3, [r3]
 110 0014 DBB2     		uxtb	r3, r3
 111 0016 43F00103 		orr	r3, r3, #1
 112 001a DBB2     		uxtb	r3, r3
 113 001c 1370     		strb	r3, [r2]
 258:Generated_Source\PSoC5/USBUART.c ****     /* Enable USB block for Standby Power Mode. */
 259:Generated_Source\PSoC5/USBUART.c ****     USBUART_PM_STBY_CFG_REG |= USBUART_PM_STBY_EN_FSUSB;
 114              		.loc 1 259 0
 115 001e 4C4A     		ldr	r2, .L6+4
 116 0020 4B4B     		ldr	r3, .L6+4
 117 0022 1B78     		ldrb	r3, [r3]
 118 0024 DBB2     		uxtb	r3, r3
 119 0026 43F00103 		orr	r3, r3, #1
 120 002a DBB2     		uxtb	r3, r3
 121 002c 1370     		strb	r3, [r2]
 260:Generated_Source\PSoC5/USBUART.c **** 
 261:Generated_Source\PSoC5/USBUART.c ****     /* Enable core clock. */
 262:Generated_Source\PSoC5/USBUART.c ****     USBUART_USB_CLK_EN_REG = USBUART_USB_CLK_ENABLE;
 122              		.loc 1 262 0
 123 002e 494B     		ldr	r3, .L6+8
 124 0030 0122     		movs	r2, #1
 125 0032 1A70     		strb	r2, [r3]
 263:Generated_Source\PSoC5/USBUART.c **** 
 264:Generated_Source\PSoC5/USBUART.c ****     USBUART_CR1_REG = USBUART_CR1_ENABLE_LOCK;
 126              		.loc 1 264 0
 127 0034 484B     		ldr	r3, .L6+12
 128 0036 0222     		movs	r2, #2
 129 0038 1A70     		strb	r2, [r3]
 265:Generated_Source\PSoC5/USBUART.c **** 
 266:Generated_Source\PSoC5/USBUART.c ****     /* ENABLING USBIO PADS IN USB MODE FROM I/O MODE. */
 267:Generated_Source\PSoC5/USBUART.c ****     /* Ensure USB transmit enable is low (USB_USBIO_CR0.ten). - Manual Transmission - Disabled. */
 268:Generated_Source\PSoC5/USBUART.c ****     USBUART_USBIO_CR0_REG &= (uint8) ~USBUART_USBIO_CR0_TEN;
 130              		.loc 1 268 0
 131 003a 484A     		ldr	r2, .L6+16
ARM GAS  C:\Users\Keshuai\AppData\Local\Temp\ccTp3FAZ.s 			page 8


 132 003c 474B     		ldr	r3, .L6+16
 133 003e 1B78     		ldrb	r3, [r3]
 134 0040 DBB2     		uxtb	r3, r3
 135 0042 03F07F03 		and	r3, r3, #127
 136 0046 DBB2     		uxtb	r3, r3
 137 0048 1370     		strb	r3, [r2]
 269:Generated_Source\PSoC5/USBUART.c ****     CyDelayUs(USBUART_WAIT_REG_STABILITY_50NS);  /* ~50ns delay. */
 138              		.loc 1 269 0
 139 004a 0020     		movs	r0, #0
 140 004c FFF7FEFF 		bl	CyDelayUs
 270:Generated_Source\PSoC5/USBUART.c ****     /* Disable USBIO by asserting PM.USB_CR0.fsusbio_pd_n(Inverted.
 271:Generated_Source\PSoC5/USBUART.c ****     *  high. These bits will be set low by the power manager out-of-reset.
 272:Generated_Source\PSoC5/USBUART.c ****     *  Also confirm USBIO pull-up is disabled.
 273:Generated_Source\PSoC5/USBUART.c ****     */
 274:Generated_Source\PSoC5/USBUART.c ****     USBUART_PM_USB_CR0_REG &= (uint8) ~(USBUART_PM_USB_CR0_PD_N |
 141              		.loc 1 274 0
 142 0050 434A     		ldr	r2, .L6+20
 143 0052 434B     		ldr	r3, .L6+20
 144 0054 1B78     		ldrb	r3, [r3]
 145 0056 DBB2     		uxtb	r3, r3
 146 0058 23F00603 		bic	r3, r3, #6
 147 005c DBB2     		uxtb	r3, r3
 148 005e 1370     		strb	r3, [r2]
 275:Generated_Source\PSoC5/USBUART.c ****                                                  USBUART_PM_USB_CR0_PD_PULLUP_N);
 276:Generated_Source\PSoC5/USBUART.c **** 
 277:Generated_Source\PSoC5/USBUART.c ****     /* Select IOMODE to USB mode. */
 278:Generated_Source\PSoC5/USBUART.c ****     USBUART_USBIO_CR1_REG &= (uint8) ~USBUART_USBIO_CR1_IOMODE;
 149              		.loc 1 278 0
 150 0060 404A     		ldr	r2, .L6+24
 151 0062 404B     		ldr	r3, .L6+24
 152 0064 1B78     		ldrb	r3, [r3]
 153 0066 DBB2     		uxtb	r3, r3
 154 0068 23F02003 		bic	r3, r3, #32
 155 006c DBB2     		uxtb	r3, r3
 156 006e 1370     		strb	r3, [r2]
 279:Generated_Source\PSoC5/USBUART.c **** 
 280:Generated_Source\PSoC5/USBUART.c ****     /* Enable USBIO reference by setting PM.USB_CR0.fsusbio_ref_en. */
 281:Generated_Source\PSoC5/USBUART.c ****     USBUART_PM_USB_CR0_REG |= USBUART_PM_USB_CR0_REF_EN;
 157              		.loc 1 281 0
 158 0070 3B4A     		ldr	r2, .L6+20
 159 0072 3B4B     		ldr	r3, .L6+20
 160 0074 1B78     		ldrb	r3, [r3]
 161 0076 DBB2     		uxtb	r3, r3
 162 0078 43F00103 		orr	r3, r3, #1
 163 007c DBB2     		uxtb	r3, r3
 164 007e 1370     		strb	r3, [r2]
 282:Generated_Source\PSoC5/USBUART.c ****     /* Reference is available for 1us after regulator is enabled. */
 283:Generated_Source\PSoC5/USBUART.c ****     CyDelayUs(USBUART_WAIT_REG_STABILITY_1US);
 165              		.loc 1 283 0
 166 0080 0120     		movs	r0, #1
 167 0082 FFF7FEFF 		bl	CyDelayUs
 284:Generated_Source\PSoC5/USBUART.c ****     /* OR 40us after power is restored. */
 285:Generated_Source\PSoC5/USBUART.c ****     CyDelayUs(USBUART_WAIT_VREF_RESTORE);
 168              		.loc 1 285 0
 169 0086 2820     		movs	r0, #40
 170 0088 FFF7FEFF 		bl	CyDelayUs
 286:Generated_Source\PSoC5/USBUART.c ****     /* Ensure single-ended disable bits are low (PRT15.INP_DIS[7:6])(input receiver enabled). */
ARM GAS  C:\Users\Keshuai\AppData\Local\Temp\ccTp3FAZ.s 			page 9


 287:Generated_Source\PSoC5/USBUART.c ****     USBUART_DM_INP_DIS_REG &= (uint8) ~USBUART_DM_MASK;
 171              		.loc 1 287 0
 172 008c 364A     		ldr	r2, .L6+28
 173 008e 364B     		ldr	r3, .L6+28
 174 0090 1B78     		ldrb	r3, [r3]
 175 0092 DBB2     		uxtb	r3, r3
 176 0094 03F07F03 		and	r3, r3, #127
 177 0098 DBB2     		uxtb	r3, r3
 178 009a 1370     		strb	r3, [r2]
 288:Generated_Source\PSoC5/USBUART.c ****     USBUART_DP_INP_DIS_REG &= (uint8) ~USBUART_DP_MASK;
 179              		.loc 1 288 0
 180 009c 324A     		ldr	r2, .L6+28
 181 009e 324B     		ldr	r3, .L6+28
 182 00a0 1B78     		ldrb	r3, [r3]
 183 00a2 DBB2     		uxtb	r3, r3
 184 00a4 23F04003 		bic	r3, r3, #64
 185 00a8 DBB2     		uxtb	r3, r3
 186 00aa 1370     		strb	r3, [r2]
 289:Generated_Source\PSoC5/USBUART.c **** 
 290:Generated_Source\PSoC5/USBUART.c ****     /* Enable USBIO. */
 291:Generated_Source\PSoC5/USBUART.c ****     USBUART_PM_USB_CR0_REG |= USBUART_PM_USB_CR0_PD_N;
 187              		.loc 1 291 0
 188 00ac 2C4A     		ldr	r2, .L6+20
 189 00ae 2C4B     		ldr	r3, .L6+20
 190 00b0 1B78     		ldrb	r3, [r3]
 191 00b2 DBB2     		uxtb	r3, r3
 192 00b4 43F00203 		orr	r3, r3, #2
 193 00b8 DBB2     		uxtb	r3, r3
 194 00ba 1370     		strb	r3, [r2]
 292:Generated_Source\PSoC5/USBUART.c ****     CyDelayUs(USBUART_WAIT_PD_PULLUP_N_ENABLE);
 195              		.loc 1 292 0
 196 00bc 0220     		movs	r0, #2
 197 00be FFF7FEFF 		bl	CyDelayUs
 293:Generated_Source\PSoC5/USBUART.c ****     /* Set USBIO pull-up enable. */
 294:Generated_Source\PSoC5/USBUART.c ****     USBUART_PM_USB_CR0_REG |= USBUART_PM_USB_CR0_PD_PULLUP_N;
 198              		.loc 1 294 0
 199 00c2 274A     		ldr	r2, .L6+20
 200 00c4 264B     		ldr	r3, .L6+20
 201 00c6 1B78     		ldrb	r3, [r3]
 202 00c8 DBB2     		uxtb	r3, r3
 203 00ca 43F00403 		orr	r3, r3, #4
 204 00ce DBB2     		uxtb	r3, r3
 205 00d0 1370     		strb	r3, [r2]
 295:Generated_Source\PSoC5/USBUART.c **** 
 296:Generated_Source\PSoC5/USBUART.c ****     /* Reset Arbiter Write Address register for endpoint 1. */
 297:Generated_Source\PSoC5/USBUART.c ****     CY_SET_REG8(USBUART_ARB_RW1_WA_PTR,     0u);
 206              		.loc 1 297 0
 207 00d2 264B     		ldr	r3, .L6+32
 208 00d4 0022     		movs	r2, #0
 209 00d6 1A70     		strb	r2, [r3]
 298:Generated_Source\PSoC5/USBUART.c ****     CY_SET_REG8(USBUART_ARB_RW1_WA_MSB_PTR, 0u);
 210              		.loc 1 298 0
 211 00d8 254B     		ldr	r3, .L6+36
 212 00da 0022     		movs	r2, #0
 213 00dc 1A70     		strb	r2, [r3]
 299:Generated_Source\PSoC5/USBUART.c **** 
 300:Generated_Source\PSoC5/USBUART.c **** #if (USBUART_EP_MANAGEMENT_DMA)
ARM GAS  C:\Users\Keshuai\AppData\Local\Temp\ccTp3FAZ.s 			page 10


 301:Generated_Source\PSoC5/USBUART.c ****     /* Initialize transfer descriptor. This will be used to detect DMA state - initialized or not. 
 302:Generated_Source\PSoC5/USBUART.c ****     for (i = 0u; i < USBUART_MAX_EP; ++i)
 303:Generated_Source\PSoC5/USBUART.c ****     {
 304:Generated_Source\PSoC5/USBUART.c ****         USBUART_DmaTd[i] = DMA_INVALID_TD;
 305:Generated_Source\PSoC5/USBUART.c **** 
 306:Generated_Source\PSoC5/USBUART.c ****     #if (USBUART_EP_MANAGEMENT_DMA_AUTO && (USBUART_EP_DMA_AUTO_OPT == 0u))
 307:Generated_Source\PSoC5/USBUART.c ****         USBUART_DmaNextTd[i] = DMA_INVALID_TD;
 308:Generated_Source\PSoC5/USBUART.c ****     #endif /* (USBUART_EP_MANAGEMENT_DMA_AUTO && (USBUART_EP_DMA_AUTO_OPT == 0u)) */
 309:Generated_Source\PSoC5/USBUART.c ****     }
 310:Generated_Source\PSoC5/USBUART.c **** #endif /* (USBUART_EP_MANAGEMENT_DMA) */
 311:Generated_Source\PSoC5/USBUART.c **** 
 312:Generated_Source\PSoC5/USBUART.c ****     CyExitCriticalSection(enableInterrupts);
 214              		.loc 1 312 0
 215 00de FB79     		ldrb	r3, [r7, #7]	@ zero_extendqisi2
 216 00e0 1846     		mov	r0, r3
 217 00e2 FFF7FEFF 		bl	CyExitCriticalSection
 313:Generated_Source\PSoC5/USBUART.c **** #endif /* (CY_PSOC4) */
 314:Generated_Source\PSoC5/USBUART.c **** 
 315:Generated_Source\PSoC5/USBUART.c ****     /* Configure interrupts from USB block. */
 316:Generated_Source\PSoC5/USBUART.c **** #if (CY_PSOC4)
 317:Generated_Source\PSoC5/USBUART.c ****     /* Configure hi_int: set handler and priority. */
 318:Generated_Source\PSoC5/USBUART.c ****     CyIntSetPriority     (USBUART_INTR_HI_VECT_NUM,  USBUART_INTR_HI_PRIORITY);
 319:Generated_Source\PSoC5/USBUART.c ****     (void) CyIntSetVector(USBUART_INTR_HI_VECT_NUM, &USBUART_INTR_HI_ISR);
 320:Generated_Source\PSoC5/USBUART.c **** 
 321:Generated_Source\PSoC5/USBUART.c ****     /* Configure lo_int: set handler and priority. */
 322:Generated_Source\PSoC5/USBUART.c ****     CyIntSetPriority     (USBUART_INTR_LO_VECT_NUM,  USBUART_INTR_LO_PRIORITY);
 323:Generated_Source\PSoC5/USBUART.c ****     (void) CyIntSetVector(USBUART_INTR_LO_VECT_NUM, &USBUART_INTR_LO_ISR);
 324:Generated_Source\PSoC5/USBUART.c **** 
 325:Generated_Source\PSoC5/USBUART.c ****     /* Configure med_int: set handler and priority (routed through DSI). */
 326:Generated_Source\PSoC5/USBUART.c ****     CyIntSetPriority     (USBUART_INTR_MED_VECT_NUM,  USBUART_INTR_MED_PRIORITY);
 327:Generated_Source\PSoC5/USBUART.c ****     (void) CyIntSetVector(USBUART_INTR_MED_VECT_NUM, &USBUART_INTR_MED_ISR);
 328:Generated_Source\PSoC5/USBUART.c **** 
 329:Generated_Source\PSoC5/USBUART.c **** #else
 330:Generated_Source\PSoC5/USBUART.c ****     /* Set bus reset interrupt. */
 331:Generated_Source\PSoC5/USBUART.c ****     CyIntSetPriority(USBUART_BUS_RESET_VECT_NUM, USBUART_BUS_RESET_PRIOR);
 218              		.loc 1 331 0
 219 00e6 1720     		movs	r0, #23
 220 00e8 0721     		movs	r1, #7
 221 00ea FFF7FEFF 		bl	CyIntSetPriority
 332:Generated_Source\PSoC5/USBUART.c ****     (void) CyIntSetVector(USBUART_BUS_RESET_VECT_NUM,   &USBUART_BUS_RESET_ISR);
 222              		.loc 1 332 0
 223 00ee 1720     		movs	r0, #23
 224 00f0 2049     		ldr	r1, .L6+40
 225 00f2 FFF7FEFF 		bl	CyIntSetVector
 333:Generated_Source\PSoC5/USBUART.c **** 
 334:Generated_Source\PSoC5/USBUART.c ****     /* Set Control Endpoint Interrupt. */
 335:Generated_Source\PSoC5/USBUART.c ****     CyIntSetPriority(USBUART_EP_0_VECT_NUM, USBUART_EP_0_PRIOR);
 226              		.loc 1 335 0
 227 00f6 1820     		movs	r0, #24
 228 00f8 0721     		movs	r1, #7
 229 00fa FFF7FEFF 		bl	CyIntSetPriority
 336:Generated_Source\PSoC5/USBUART.c ****     (void) CyIntSetVector(USBUART_EP_0_VECT_NUM,   &USBUART_EP_0_ISR);
 230              		.loc 1 336 0
 231 00fe 1820     		movs	r0, #24
 232 0100 1D49     		ldr	r1, .L6+44
 233 0102 FFF7FEFF 		bl	CyIntSetVector
 337:Generated_Source\PSoC5/USBUART.c **** 
ARM GAS  C:\Users\Keshuai\AppData\Local\Temp\ccTp3FAZ.s 			page 11


 338:Generated_Source\PSoC5/USBUART.c ****     /* Set SOF interrupt. */
 339:Generated_Source\PSoC5/USBUART.c ****     #if (USBUART_SOF_ISR_ACTIVE)
 340:Generated_Source\PSoC5/USBUART.c ****         CyIntSetPriority     (USBUART_SOF_VECT_NUM,  USBUART_SOF_PRIOR);
 234              		.loc 1 340 0
 235 0106 1520     		movs	r0, #21
 236 0108 0721     		movs	r1, #7
 237 010a FFF7FEFF 		bl	CyIntSetPriority
 341:Generated_Source\PSoC5/USBUART.c ****         (void) CyIntSetVector(USBUART_SOF_VECT_NUM, &USBUART_SOF_ISR);
 238              		.loc 1 341 0
 239 010e 1520     		movs	r0, #21
 240 0110 1A49     		ldr	r1, .L6+48
 241 0112 FFF7FEFF 		bl	CyIntSetVector
 342:Generated_Source\PSoC5/USBUART.c ****     #endif /* (USBUART_SOF_ISR_ACTIVE) */
 343:Generated_Source\PSoC5/USBUART.c **** 
 344:Generated_Source\PSoC5/USBUART.c ****     /* Set Data Endpoint 1 Interrupt. */
 345:Generated_Source\PSoC5/USBUART.c ****     #if (USBUART_EP1_ISR_ACTIVE)
 346:Generated_Source\PSoC5/USBUART.c ****         CyIntSetPriority     (USBUART_EP_1_VECT_NUM,  USBUART_EP_1_PRIOR);
 347:Generated_Source\PSoC5/USBUART.c ****         (void) CyIntSetVector(USBUART_EP_1_VECT_NUM,  &USBUART_EP_1_ISR);
 348:Generated_Source\PSoC5/USBUART.c ****     #endif /* (USBUART_EP1_ISR_ACTIVE) */
 349:Generated_Source\PSoC5/USBUART.c **** 
 350:Generated_Source\PSoC5/USBUART.c ****     /* Set Data Endpoint 2 Interrupt. */
 351:Generated_Source\PSoC5/USBUART.c ****     #if (USBUART_EP2_ISR_ACTIVE)
 352:Generated_Source\PSoC5/USBUART.c ****         CyIntSetPriority     (USBUART_EP_2_VECT_NUM,  USBUART_EP_2_PRIOR);
 353:Generated_Source\PSoC5/USBUART.c ****         (void) CyIntSetVector(USBUART_EP_2_VECT_NUM, &USBUART_EP_2_ISR);
 354:Generated_Source\PSoC5/USBUART.c ****     #endif /* (USBUART_EP2_ISR_ACTIVE) */
 355:Generated_Source\PSoC5/USBUART.c **** 
 356:Generated_Source\PSoC5/USBUART.c ****     /* Set Data Endpoint 3 Interrupt. */
 357:Generated_Source\PSoC5/USBUART.c ****     #if (USBUART_EP3_ISR_ACTIVE)
 358:Generated_Source\PSoC5/USBUART.c ****         CyIntSetPriority     (USBUART_EP_3_VECT_NUM,  USBUART_EP_3_PRIOR);
 242              		.loc 1 358 0
 243 0116 0020     		movs	r0, #0
 244 0118 0721     		movs	r1, #7
 245 011a FFF7FEFF 		bl	CyIntSetPriority
 359:Generated_Source\PSoC5/USBUART.c ****         (void) CyIntSetVector(USBUART_EP_3_VECT_NUM, &USBUART_EP_3_ISR);
 246              		.loc 1 359 0
 247 011e 0020     		movs	r0, #0
 248 0120 1749     		ldr	r1, .L6+52
 249 0122 FFF7FEFF 		bl	CyIntSetVector
 360:Generated_Source\PSoC5/USBUART.c ****     #endif /* (USBUART_EP3_ISR_ACTIVE) */
 361:Generated_Source\PSoC5/USBUART.c **** 
 362:Generated_Source\PSoC5/USBUART.c ****     /* Set Data Endpoint 4 Interrupt. */
 363:Generated_Source\PSoC5/USBUART.c ****     #if (USBUART_EP4_ISR_ACTIVE)
 364:Generated_Source\PSoC5/USBUART.c ****         CyIntSetPriority     (USBUART_EP_4_VECT_NUM,  USBUART_EP_4_PRIOR);
 250              		.loc 1 364 0
 251 0126 0120     		movs	r0, #1
 252 0128 0721     		movs	r1, #7
 253 012a FFF7FEFF 		bl	CyIntSetPriority
 365:Generated_Source\PSoC5/USBUART.c ****         (void) CyIntSetVector(USBUART_EP_4_VECT_NUM, &USBUART_EP_4_ISR);
 254              		.loc 1 365 0
 255 012e 0120     		movs	r0, #1
 256 0130 1449     		ldr	r1, .L6+56
 257 0132 FFF7FEFF 		bl	CyIntSetVector
 366:Generated_Source\PSoC5/USBUART.c ****     #endif /* (USBUART_EP4_ISR_ACTIVE) */
 367:Generated_Source\PSoC5/USBUART.c **** 
 368:Generated_Source\PSoC5/USBUART.c ****     /* Set Data Endpoint 5 Interrupt. */
 369:Generated_Source\PSoC5/USBUART.c ****     #if (USBUART_EP5_ISR_ACTIVE)
 370:Generated_Source\PSoC5/USBUART.c ****         CyIntSetPriority     (USBUART_EP_5_VECT_NUM,  USBUART_EP_5_PRIOR);
ARM GAS  C:\Users\Keshuai\AppData\Local\Temp\ccTp3FAZ.s 			page 12


 371:Generated_Source\PSoC5/USBUART.c ****         (void) CyIntSetVector(USBUART_EP_5_VECT_NUM, &USBUART_EP_5_ISR);
 372:Generated_Source\PSoC5/USBUART.c ****     #endif /* (USBUART_EP5_ISR_ACTIVE) */
 373:Generated_Source\PSoC5/USBUART.c **** 
 374:Generated_Source\PSoC5/USBUART.c ****     /* Set Data Endpoint 6 Interrupt. */
 375:Generated_Source\PSoC5/USBUART.c ****     #if (USBUART_EP6_ISR_ACTIVE)
 376:Generated_Source\PSoC5/USBUART.c ****         CyIntSetPriority     (USBUART_EP_6_VECT_NUM,  USBUART_EP_6_PRIOR);
 377:Generated_Source\PSoC5/USBUART.c ****         (void) CyIntSetVector(USBUART_EP_6_VECT_NUM, &USBUART_EP_6_ISR);
 378:Generated_Source\PSoC5/USBUART.c ****     #endif /* (USBUART_EP6_ISR_ACTIVE) */
 379:Generated_Source\PSoC5/USBUART.c **** 
 380:Generated_Source\PSoC5/USBUART.c ****      /* Set Data Endpoint 7 Interrupt. */
 381:Generated_Source\PSoC5/USBUART.c ****     #if (USBUART_EP7_ISR_ACTIVE)
 382:Generated_Source\PSoC5/USBUART.c ****         CyIntSetPriority     (USBUART_EP_7_VECT_NUM,  USBUART_EP_7_PRIOR);
 383:Generated_Source\PSoC5/USBUART.c ****         (void) CyIntSetVector(USBUART_EP_7_VECT_NUM, &USBUART_EP_7_ISR);
 384:Generated_Source\PSoC5/USBUART.c ****     #endif /* (USBUART_EP7_ISR_ACTIVE) */
 385:Generated_Source\PSoC5/USBUART.c **** 
 386:Generated_Source\PSoC5/USBUART.c ****     /* Set Data Endpoint 8 Interrupt. */
 387:Generated_Source\PSoC5/USBUART.c ****     #if (USBUART_EP8_ISR_ACTIVE)
 388:Generated_Source\PSoC5/USBUART.c ****         CyIntSetPriority     (USBUART_EP_8_VECT_NUM,  USBUART_EP_8_PRIOR);
 389:Generated_Source\PSoC5/USBUART.c ****         (void) CyIntSetVector(USBUART_EP_8_VECT_NUM, &USBUART_EP_8_ISR);
 390:Generated_Source\PSoC5/USBUART.c ****     #endif /* (USBUART_EP8_ISR_ACTIVE) */
 391:Generated_Source\PSoC5/USBUART.c **** 
 392:Generated_Source\PSoC5/USBUART.c ****     /* Set ARB Interrupt. */
 393:Generated_Source\PSoC5/USBUART.c ****     #if (USBUART_EP_MANAGEMENT_DMA && USBUART_ARB_ISR_ACTIVE)
 394:Generated_Source\PSoC5/USBUART.c ****         CyIntSetPriority     (USBUART_ARB_VECT_NUM,  USBUART_ARB_PRIOR);
 395:Generated_Source\PSoC5/USBUART.c ****         (void) CyIntSetVector(USBUART_ARB_VECT_NUM, &USBUART_ARB_ISR);
 396:Generated_Source\PSoC5/USBUART.c ****     #endif /* (USBUART_EP_MANAGEMENT_DMA && USBUART_ARB_ISR_ACTIVE) */
 397:Generated_Source\PSoC5/USBUART.c **** #endif /* (CY_PSOC4) */
 398:Generated_Source\PSoC5/USBUART.c **** 
 399:Generated_Source\PSoC5/USBUART.c ****     /* Common: Configure GPIO interrupt for wakeup. */
 400:Generated_Source\PSoC5/USBUART.c **** #if (USBUART_DP_ISR_ACTIVE)
 401:Generated_Source\PSoC5/USBUART.c ****     CyIntSetPriority     (USBUART_DP_INTC_VECT_NUM,  USBUART_DP_INTC_PRIORITY);
 258              		.loc 1 401 0
 259 0136 0C20     		movs	r0, #12
 260 0138 0721     		movs	r1, #7
 261 013a FFF7FEFF 		bl	CyIntSetPriority
 402:Generated_Source\PSoC5/USBUART.c ****     (void) CyIntSetVector(USBUART_DP_INTC_VECT_NUM, &USBUART_DP_ISR);
 262              		.loc 1 402 0
 263 013e 0C20     		movs	r0, #12
 264 0140 1149     		ldr	r1, .L6+60
 265 0142 FFF7FEFF 		bl	CyIntSetVector
 403:Generated_Source\PSoC5/USBUART.c **** #endif /* (USBUART_DP_ISR_ACTIVE) */
 404:Generated_Source\PSoC5/USBUART.c **** 
 405:Generated_Source\PSoC5/USBUART.c **** #if (USBUART_EP_MANAGEMENT_DMA && CY_PSOC4)
 406:Generated_Source\PSoC5/USBUART.c ****     /* Initialize DMA channels. */
 407:Generated_Source\PSoC5/USBUART.c ****     USBUART_InitEpDma();
 408:Generated_Source\PSoC5/USBUART.c **** #endif /* (USBUART_EP_MANAGEMENT_DMA && CY_PSOC4) */
 409:Generated_Source\PSoC5/USBUART.c **** }
 266              		.loc 1 409 0
 267 0146 0837     		adds	r7, r7, #8
 268              		.cfi_def_cfa_offset 8
 269 0148 BD46     		mov	sp, r7
 270              		.cfi_def_cfa_register 13
 271              		@ sp needed
 272 014a 80BD     		pop	{r7, pc}
 273              	.L7:
 274              		.align	2
 275              	.L6:
ARM GAS  C:\Users\Keshuai\AppData\Local\Temp\ccTp3FAZ.s 			page 13


 276 014c A5430040 		.word	1073759141
 277 0150 B5430040 		.word	1073759157
 278 0154 9D600040 		.word	1073766557
 279 0158 09600040 		.word	1073766409
 280 015c 10600040 		.word	1073766416
 281 0160 94430040 		.word	1073759124
 282 0164 12600040 		.word	1073766418
 283 0168 F8510040 		.word	1073762808
 284 016c 84600040 		.word	1073766532
 285 0170 85600040 		.word	1073766533
 286 0174 00000000 		.word	USBUART_BUS_RESET_ISR
 287 0178 00000000 		.word	USBUART_EP_0_ISR
 288 017c 00000000 		.word	USBUART_SOF_ISR
 289 0180 00000000 		.word	USBUART_EP_3_ISR
 290 0184 00000000 		.word	USBUART_EP_4_ISR
 291 0188 00000000 		.word	USBUART_DP_ISR
 292              		.cfi_endproc
 293              	.LFE1:
 294              		.size	USBUART_Init, .-USBUART_Init
 295              		.section	.text.USBUART_InitComponent,"ax",%progbits
 296              		.align	2
 297              		.global	USBUART_InitComponent
 298              		.thumb
 299              		.thumb_func
 300              		.type	USBUART_InitComponent, %function
 301              	USBUART_InitComponent:
 302              	.LFB2:
 410:Generated_Source\PSoC5/USBUART.c **** 
 411:Generated_Source\PSoC5/USBUART.c **** 
 412:Generated_Source\PSoC5/USBUART.c **** /*******************************************************************************
 413:Generated_Source\PSoC5/USBUART.c **** * Function Name: USBUART_InitComponent
 414:Generated_Source\PSoC5/USBUART.c **** ****************************************************************************//**
 415:Generated_Source\PSoC5/USBUART.c **** *
 416:Generated_Source\PSoC5/USBUART.c **** *   This function initializes the component’s global variables and initiates
 417:Generated_Source\PSoC5/USBUART.c **** *   communication with the host by pull-up D+ line.
 418:Generated_Source\PSoC5/USBUART.c **** *
 419:Generated_Source\PSoC5/USBUART.c **** * \param device:
 420:Generated_Source\PSoC5/USBUART.c **** *   Contains the device number of the desired device descriptor. The device
 421:Generated_Source\PSoC5/USBUART.c **** *   number can be found in the Device Descriptor Tab of "Configure" dialog,
 422:Generated_Source\PSoC5/USBUART.c **** *   under the settings of desired Device Descriptor, in the *Device Number*
 423:Generated_Source\PSoC5/USBUART.c **** *   field.
 424:Generated_Source\PSoC5/USBUART.c **** *  \param mode:
 425:Generated_Source\PSoC5/USBUART.c **** *   The operating voltage. This determines whether the voltage regulator
 426:Generated_Source\PSoC5/USBUART.c **** *   is enabled for 5V operation or if pass through mode is used for 3.3V
 427:Generated_Source\PSoC5/USBUART.c **** *   operation. Symbolic names and their associated values are given in the
 428:Generated_Source\PSoC5/USBUART.c **** *   following list.
 429:Generated_Source\PSoC5/USBUART.c **** *
 430:Generated_Source\PSoC5/USBUART.c **** *       *USBUART_3V_OPERATION* - Disable voltage regulator and pass-
 431:Generated_Source\PSoC5/USBUART.c **** *                                      through Vcc for pull-up
 432:Generated_Source\PSoC5/USBUART.c **** *
 433:Generated_Source\PSoC5/USBUART.c **** *       *USBUART_5V_OPERATION* - Enable voltage regulator and use
 434:Generated_Source\PSoC5/USBUART.c **** *                                      regulator for pull-up
 435:Generated_Source\PSoC5/USBUART.c **** *
 436:Generated_Source\PSoC5/USBUART.c **** *       *USBUART_DWR_POWER_OPERATION* - Enable or disable the voltage
 437:Generated_Source\PSoC5/USBUART.c **** *                                      regulator depending on the power supply
 438:Generated_Source\PSoC5/USBUART.c **** *                                      voltage configuration in the DWR tab.
 439:Generated_Source\PSoC5/USBUART.c **** *                                      For PSoC 3/5LP devices, the VDDD supply
ARM GAS  C:\Users\Keshuai\AppData\Local\Temp\ccTp3FAZ.s 			page 14


 440:Generated_Source\PSoC5/USBUART.c **** *                                      voltage is considered and for PSoC 4A-L,
 441:Generated_Source\PSoC5/USBUART.c **** *                                      the VBUS supply voltage is considered.
 442:Generated_Source\PSoC5/USBUART.c **** *
 443:Generated_Source\PSoC5/USBUART.c **** * \globalvars
 444:Generated_Source\PSoC5/USBUART.c **** *   \ref USBUART_device
 445:Generated_Source\PSoC5/USBUART.c **** *   \ref USBUART_transferState
 446:Generated_Source\PSoC5/USBUART.c **** *   \ref USBUART_configuration
 447:Generated_Source\PSoC5/USBUART.c **** *   \ref USBUART_deviceStatus
 448:Generated_Source\PSoC5/USBUART.c **** *
 449:Generated_Source\PSoC5/USBUART.c **** *   \ref USBUART_deviceAddress - Contains the current device address. This
 450:Generated_Source\PSoC5/USBUART.c **** *       variable is initialized to zero in this API. The Host starts to communicate
 451:Generated_Source\PSoC5/USBUART.c **** *      to the device with address 0 and then sets it to a whatever value using a
 452:Generated_Source\PSoC5/USBUART.c **** *      SET_ADDRESS request.
 453:Generated_Source\PSoC5/USBUART.c **** *
 454:Generated_Source\PSoC5/USBUART.c **** *   \ref USBUART_lastPacketSize - Initialized to 0;
 455:Generated_Source\PSoC5/USBUART.c **** *
 456:Generated_Source\PSoC5/USBUART.c **** * \reentrant
 457:Generated_Source\PSoC5/USBUART.c **** *  No.
 458:Generated_Source\PSoC5/USBUART.c **** *
 459:Generated_Source\PSoC5/USBUART.c **** *******************************************************************************/
 460:Generated_Source\PSoC5/USBUART.c **** void USBUART_InitComponent(uint8 device, uint8 mode) 
 461:Generated_Source\PSoC5/USBUART.c **** {
 303              		.loc 1 461 0
 304              		.cfi_startproc
 305              		@ args = 0, pretend = 0, frame = 16
 306              		@ frame_needed = 1, uses_anonymous_args = 0
 307 0000 80B5     		push	{r7, lr}
 308              		.cfi_def_cfa_offset 8
 309              		.cfi_offset 7, -8
 310              		.cfi_offset 14, -4
 311 0002 84B0     		sub	sp, sp, #16
 312              		.cfi_def_cfa_offset 24
 313 0004 00AF     		add	r7, sp, #0
 314              		.cfi_def_cfa_register 7
 315 0006 0346     		mov	r3, r0
 316 0008 0A46     		mov	r2, r1
 317 000a FB71     		strb	r3, [r7, #7]
 318 000c 1346     		mov	r3, r2
 319 000e BB71     		strb	r3, [r7, #6]
 462:Generated_Source\PSoC5/USBUART.c ****     /* Initialize _hidProtocol variable to comply with
 463:Generated_Source\PSoC5/USBUART.c ****     *  HID 7.2.6 Set_Protocol Request:
 464:Generated_Source\PSoC5/USBUART.c ****     *  "When initialized, all devices default to report protocol."
 465:Generated_Source\PSoC5/USBUART.c ****     */
 466:Generated_Source\PSoC5/USBUART.c **** #if defined(USBUART_ENABLE_HID_CLASS)
 467:Generated_Source\PSoC5/USBUART.c ****     uint8 i;
 468:Generated_Source\PSoC5/USBUART.c **** 
 469:Generated_Source\PSoC5/USBUART.c ****     for (i = 0u; i < USBUART_MAX_INTERFACES_NUMBER; i++)
 320              		.loc 1 469 0
 321 0010 0023     		movs	r3, #0
 322 0012 FB73     		strb	r3, [r7, #15]
 323 0014 06E0     		b	.L9
 324              	.L10:
 470:Generated_Source\PSoC5/USBUART.c ****     {
 471:Generated_Source\PSoC5/USBUART.c ****         USBUART_hidProtocol[i] = USBUART_PROTOCOL_REPORT;
 325              		.loc 1 471 0 discriminator 3
 326 0016 FB7B     		ldrb	r3, [r7, #15]	@ zero_extendqisi2
 327 0018 314A     		ldr	r2, .L16
ARM GAS  C:\Users\Keshuai\AppData\Local\Temp\ccTp3FAZ.s 			page 15


 328 001a 0121     		movs	r1, #1
 329 001c D154     		strb	r1, [r2, r3]
 469:Generated_Source\PSoC5/USBUART.c ****     {
 330              		.loc 1 469 0 discriminator 3
 331 001e FB7B     		ldrb	r3, [r7, #15]	@ zero_extendqisi2
 332 0020 0133     		adds	r3, r3, #1
 333 0022 FB73     		strb	r3, [r7, #15]
 334              	.L9:
 469:Generated_Source\PSoC5/USBUART.c ****     {
 335              		.loc 1 469 0 is_stmt 0 discriminator 1
 336 0024 FB7B     		ldrb	r3, [r7, #15]	@ zero_extendqisi2
 337 0026 002B     		cmp	r3, #0
 338 0028 F5D0     		beq	.L10
 472:Generated_Source\PSoC5/USBUART.c ****     }
 473:Generated_Source\PSoC5/USBUART.c **** #endif /* USBUART_ENABLE_HID_CLASS */
 474:Generated_Source\PSoC5/USBUART.c **** 
 475:Generated_Source\PSoC5/USBUART.c ****     /* Store device number to access descriptor. */
 476:Generated_Source\PSoC5/USBUART.c ****     USBUART_device = device;
 339              		.loc 1 476 0 is_stmt 1
 340 002a 2E4A     		ldr	r2, .L16+4
 341 002c FB79     		ldrb	r3, [r7, #7]
 342 002e 1370     		strb	r3, [r2]
 477:Generated_Source\PSoC5/USBUART.c **** 
 478:Generated_Source\PSoC5/USBUART.c ****     /* Reset component internal variables. */
 479:Generated_Source\PSoC5/USBUART.c ****     USBUART_transferState   = USBUART_TRANS_STATE_IDLE;
 343              		.loc 1 479 0
 344 0030 2D4B     		ldr	r3, .L16+8
 345 0032 0022     		movs	r2, #0
 346 0034 1A70     		strb	r2, [r3]
 480:Generated_Source\PSoC5/USBUART.c ****     USBUART_configurationChanged = 0u;
 347              		.loc 1 480 0
 348 0036 2D4B     		ldr	r3, .L16+12
 349 0038 0022     		movs	r2, #0
 350 003a 1A70     		strb	r2, [r3]
 481:Generated_Source\PSoC5/USBUART.c ****     USBUART_configuration   = 0u;
 351              		.loc 1 481 0
 352 003c 2C4B     		ldr	r3, .L16+16
 353 003e 0022     		movs	r2, #0
 354 0040 1A70     		strb	r2, [r3]
 482:Generated_Source\PSoC5/USBUART.c ****     USBUART_interfaceNumber = 0u;
 355              		.loc 1 482 0
 356 0042 2C4B     		ldr	r3, .L16+20
 357 0044 0022     		movs	r2, #0
 358 0046 1A70     		strb	r2, [r3]
 483:Generated_Source\PSoC5/USBUART.c ****     USBUART_deviceAddress   = 0u;
 359              		.loc 1 483 0
 360 0048 2B4B     		ldr	r3, .L16+24
 361 004a 0022     		movs	r2, #0
 362 004c 1A70     		strb	r2, [r3]
 484:Generated_Source\PSoC5/USBUART.c ****     USBUART_deviceStatus    = 0u;
 363              		.loc 1 484 0
 364 004e 2B4B     		ldr	r3, .L16+28
 365 0050 0022     		movs	r2, #0
 366 0052 1A70     		strb	r2, [r3]
 485:Generated_Source\PSoC5/USBUART.c ****     USBUART_lastPacketSize  = 0u;
 367              		.loc 1 485 0
 368 0054 2A4B     		ldr	r3, .L16+32
ARM GAS  C:\Users\Keshuai\AppData\Local\Temp\ccTp3FAZ.s 			page 16


 369 0056 0022     		movs	r2, #0
 370 0058 1A70     		strb	r2, [r3]
 486:Generated_Source\PSoC5/USBUART.c **** 
 487:Generated_Source\PSoC5/USBUART.c ****     /* Enable component interrupts. */
 488:Generated_Source\PSoC5/USBUART.c **** #if (CY_PSOC4)
 489:Generated_Source\PSoC5/USBUART.c ****     CyIntEnable(USBUART_INTR_HI_VECT_NUM);
 490:Generated_Source\PSoC5/USBUART.c ****     CyIntEnable(USBUART_INTR_MED_VECT_NUM);
 491:Generated_Source\PSoC5/USBUART.c ****     CyIntEnable(USBUART_INTR_LO_VECT_NUM);
 492:Generated_Source\PSoC5/USBUART.c **** #else
 493:Generated_Source\PSoC5/USBUART.c ****     CyIntEnable(USBUART_BUS_RESET_VECT_NUM);
 371              		.loc 1 493 0
 372 005a 2A4B     		ldr	r3, .L16+36
 373 005c 4FF40002 		mov	r2, #8388608
 374 0060 1A60     		str	r2, [r3]
 494:Generated_Source\PSoC5/USBUART.c ****     CyIntEnable(USBUART_EP_0_VECT_NUM);
 375              		.loc 1 494 0
 376 0062 284B     		ldr	r3, .L16+36
 377 0064 4FF08072 		mov	r2, #16777216
 378 0068 1A60     		str	r2, [r3]
 495:Generated_Source\PSoC5/USBUART.c **** 
 496:Generated_Source\PSoC5/USBUART.c ****     #if (USBUART_SOF_ISR_ACTIVE)
 497:Generated_Source\PSoC5/USBUART.c ****         CyIntEnable(USBUART_SOF_VECT_NUM);
 379              		.loc 1 497 0
 380 006a 264B     		ldr	r3, .L16+36
 381 006c 4FF40012 		mov	r2, #2097152
 382 0070 1A60     		str	r2, [r3]
 498:Generated_Source\PSoC5/USBUART.c ****     #endif /* (USBUART_SOF_ISR_ACTIVE) */
 499:Generated_Source\PSoC5/USBUART.c **** 
 500:Generated_Source\PSoC5/USBUART.c ****     #if (USBUART_EP1_ISR_ACTIVE)
 501:Generated_Source\PSoC5/USBUART.c ****         CyIntEnable(USBUART_EP_1_VECT_NUM);
 502:Generated_Source\PSoC5/USBUART.c ****     #endif /* (USBUART_EP1_ISR_ACTIVE) */
 503:Generated_Source\PSoC5/USBUART.c **** 
 504:Generated_Source\PSoC5/USBUART.c ****     #if (USBUART_EP2_ISR_ACTIVE)
 505:Generated_Source\PSoC5/USBUART.c ****         CyIntEnable(USBUART_EP_2_VECT_NUM);
 506:Generated_Source\PSoC5/USBUART.c ****     #endif /* (USBUART_EP5_ISR_ACTIVE) */
 507:Generated_Source\PSoC5/USBUART.c **** 
 508:Generated_Source\PSoC5/USBUART.c ****     #if (USBUART_EP3_ISR_ACTIVE)
 509:Generated_Source\PSoC5/USBUART.c ****         CyIntEnable(USBUART_EP_3_VECT_NUM);
 383              		.loc 1 509 0
 384 0072 244B     		ldr	r3, .L16+36
 385 0074 0122     		movs	r2, #1
 386 0076 1A60     		str	r2, [r3]
 510:Generated_Source\PSoC5/USBUART.c ****     #endif /* (USBUART_EP5_ISR_ACTIVE) */
 511:Generated_Source\PSoC5/USBUART.c **** 
 512:Generated_Source\PSoC5/USBUART.c ****     #if (USBUART_EP4_ISR_ACTIVE)
 513:Generated_Source\PSoC5/USBUART.c ****         CyIntEnable(USBUART_EP_4_VECT_NUM);
 387              		.loc 1 513 0
 388 0078 224B     		ldr	r3, .L16+36
 389 007a 0222     		movs	r2, #2
 390 007c 1A60     		str	r2, [r3]
 514:Generated_Source\PSoC5/USBUART.c ****     #endif /* (USBUART_EP5_ISR_ACTIVE) */
 515:Generated_Source\PSoC5/USBUART.c **** 
 516:Generated_Source\PSoC5/USBUART.c ****     #if (USBUART_EP5_ISR_ACTIVE)
 517:Generated_Source\PSoC5/USBUART.c ****         CyIntEnable(USBUART_EP_5_VECT_NUM);
 518:Generated_Source\PSoC5/USBUART.c ****     #endif /* (USBUART_EP5_ISR_ACTIVE) */
 519:Generated_Source\PSoC5/USBUART.c **** 
 520:Generated_Source\PSoC5/USBUART.c ****     #if (USBUART_EP6_ISR_ACTIVE)
ARM GAS  C:\Users\Keshuai\AppData\Local\Temp\ccTp3FAZ.s 			page 17


 521:Generated_Source\PSoC5/USBUART.c ****         CyIntEnable(USBUART_EP_6_VECT_NUM);
 522:Generated_Source\PSoC5/USBUART.c ****     #endif /* USBUART_EP6_ISR_REMOVE */
 523:Generated_Source\PSoC5/USBUART.c **** 
 524:Generated_Source\PSoC5/USBUART.c ****     #if (USBUART_EP7_ISR_ACTIVE)
 525:Generated_Source\PSoC5/USBUART.c ****         CyIntEnable(USBUART_EP_7_VECT_NUM);
 526:Generated_Source\PSoC5/USBUART.c ****     #endif /* (USBUART_EP7_ISR_ACTIVE) */
 527:Generated_Source\PSoC5/USBUART.c **** 
 528:Generated_Source\PSoC5/USBUART.c ****     #if (USBUART_EP8_ISR_ACTIVE)
 529:Generated_Source\PSoC5/USBUART.c ****         CyIntEnable(USBUART_EP_8_VECT_NUM);
 530:Generated_Source\PSoC5/USBUART.c ****     #endif /* (USBUART_EP8_ISR_ACTIVE) */
 531:Generated_Source\PSoC5/USBUART.c **** #endif /* (CY_PSOC4) */
 532:Generated_Source\PSoC5/USBUART.c **** 
 533:Generated_Source\PSoC5/USBUART.c **** #if (USBUART_EP_MANAGEMENT_DMA && USBUART_ARB_ISR_ACTIVE)
 534:Generated_Source\PSoC5/USBUART.c ****     /* Enable ARB EP interrupt sources. */
 535:Generated_Source\PSoC5/USBUART.c ****     USBUART_ARB_INT_EN_REG = USBUART_DEFAULT_ARB_INT_EN;
 536:Generated_Source\PSoC5/USBUART.c **** 
 537:Generated_Source\PSoC5/USBUART.c ****     #if (CY_PSOC3 || CY_PSOC5)
 538:Generated_Source\PSoC5/USBUART.c ****         CyIntEnable(USBUART_ARB_VECT_NUM);
 539:Generated_Source\PSoC5/USBUART.c ****     #endif /* (CY_PSOC3 || CY_PSOC5) */
 540:Generated_Source\PSoC5/USBUART.c **** #endif   /* (USBUART_EP_MANAGEMENT_DMA && USBUART_ARB_ISR_ACTIVE) */
 541:Generated_Source\PSoC5/USBUART.c **** 
 542:Generated_Source\PSoC5/USBUART.c **** /* Arbiter configuration for DMA transfers. */
 543:Generated_Source\PSoC5/USBUART.c **** #if (USBUART_EP_MANAGEMENT_DMA)
 544:Generated_Source\PSoC5/USBUART.c ****     /* Configure Arbiter for Manual or Auto DMA operation and clear configuration completion. */
 545:Generated_Source\PSoC5/USBUART.c ****     USBUART_ARB_CFG_REG = USBUART_DEFAULT_ARB_CFG;
 546:Generated_Source\PSoC5/USBUART.c **** 
 547:Generated_Source\PSoC5/USBUART.c ****     #if (CY_PSOC4)
 548:Generated_Source\PSoC5/USBUART.c ****         /* Enable DMA operation. */
 549:Generated_Source\PSoC5/USBUART.c ****         CyDmaEnable();
 550:Generated_Source\PSoC5/USBUART.c **** 
 551:Generated_Source\PSoC5/USBUART.c ****         #if (USBUART_EP_MANAGEMENT_DMA_AUTO)
 552:Generated_Source\PSoC5/USBUART.c ****             /* Change DMA priority to be highest. */
 553:Generated_Source\PSoC5/USBUART.c ****              CyIntSetPriority(CYDMA_INTR_NUMBER, USBUART_DMA_AUTO_INTR_PRIO);
 554:Generated_Source\PSoC5/USBUART.c ****         #endif /* (USBUART_EP_MANAGEMENT_DMA_AUTO) */
 555:Generated_Source\PSoC5/USBUART.c ****     #endif /* (CY_PSOC4) */
 556:Generated_Source\PSoC5/USBUART.c **** 
 557:Generated_Source\PSoC5/USBUART.c ****     #if (USBUART_EP_MANAGEMENT_DMA_AUTO)
 558:Generated_Source\PSoC5/USBUART.c ****         #if (CY_PSOC4)
 559:Generated_Source\PSoC5/USBUART.c ****             /* Enable DMA interrupt to handle DMA management. */
 560:Generated_Source\PSoC5/USBUART.c ****             CyIntEnable(CYDMA_INTR_NUMBER);
 561:Generated_Source\PSoC5/USBUART.c ****         #else
 562:Generated_Source\PSoC5/USBUART.c ****             #if (USBUART_EP_DMA_AUTO_OPT == 0u)
 563:Generated_Source\PSoC5/USBUART.c ****                 /* Initialize interrupts which handle verification of successful DMA transaction. *
 564:Generated_Source\PSoC5/USBUART.c ****                 USBUART_EP_DMA_Done_isr_StartEx(&USBUART_EP_DMA_DONE_ISR);
 565:Generated_Source\PSoC5/USBUART.c ****                 USBUART_EP17_DMA_Done_SR_InterruptEnable();
 566:Generated_Source\PSoC5/USBUART.c ****                 USBUART_EP8_DMA_Done_SR_InterruptEnable();
 567:Generated_Source\PSoC5/USBUART.c ****             #endif /* (USBUART_EP_DMA_AUTO_OPT == 0u) */
 568:Generated_Source\PSoC5/USBUART.c ****         #endif /* (CY_PSOC4) */
 569:Generated_Source\PSoC5/USBUART.c ****     #endif /* (USBUART_EP_MANAGEMENT_DMA_AUTO) */
 570:Generated_Source\PSoC5/USBUART.c **** #endif /* (USBUART_EP_MANAGEMENT_DMA) */
 571:Generated_Source\PSoC5/USBUART.c **** 
 572:Generated_Source\PSoC5/USBUART.c ****     /* Enable USB regulator depends on operation voltage. IMO Locking is enabled in Init(). */
 573:Generated_Source\PSoC5/USBUART.c ****     switch(mode)
 391              		.loc 1 573 0
 392 007e BB79     		ldrb	r3, [r7, #6]	@ zero_extendqisi2
 393 0080 002B     		cmp	r3, #0
 394 0082 02D0     		beq	.L12
ARM GAS  C:\Users\Keshuai\AppData\Local\Temp\ccTp3FAZ.s 			page 18


 395 0084 012B     		cmp	r3, #1
 396 0086 09D0     		beq	.L13
 397 0088 11E0     		b	.L15
 398              	.L12:
 574:Generated_Source\PSoC5/USBUART.c ****     {
 575:Generated_Source\PSoC5/USBUART.c ****     case USBUART_3V_OPERATION:
 576:Generated_Source\PSoC5/USBUART.c ****         /* Disable regulator for 3V operation. */
 577:Generated_Source\PSoC5/USBUART.c ****         USBUART_CR1_REG &= (uint8) ~USBUART_CR1_REG_ENABLE;
 399              		.loc 1 577 0
 400 008a 1F4A     		ldr	r2, .L16+40
 401 008c 1E4B     		ldr	r3, .L16+40
 402 008e 1B78     		ldrb	r3, [r3]
 403 0090 DBB2     		uxtb	r3, r3
 404 0092 23F00103 		bic	r3, r3, #1
 405 0096 DBB2     		uxtb	r3, r3
 406 0098 1370     		strb	r3, [r2]
 578:Generated_Source\PSoC5/USBUART.c ****         break;
 407              		.loc 1 578 0
 408 009a 11E0     		b	.L14
 409              	.L13:
 579:Generated_Source\PSoC5/USBUART.c **** 
 580:Generated_Source\PSoC5/USBUART.c ****     case USBUART_5V_OPERATION:
 581:Generated_Source\PSoC5/USBUART.c ****         /* Enable regulator for 5V operation. */
 582:Generated_Source\PSoC5/USBUART.c ****         USBUART_CR1_REG |= (uint8)  USBUART_CR1_REG_ENABLE;
 410              		.loc 1 582 0
 411 009c 1A4A     		ldr	r2, .L16+40
 412 009e 1A4B     		ldr	r3, .L16+40
 413 00a0 1B78     		ldrb	r3, [r3]
 414 00a2 DBB2     		uxtb	r3, r3
 415 00a4 43F00103 		orr	r3, r3, #1
 416 00a8 DBB2     		uxtb	r3, r3
 417 00aa 1370     		strb	r3, [r2]
 583:Generated_Source\PSoC5/USBUART.c ****         break;
 418              		.loc 1 583 0
 419 00ac 08E0     		b	.L14
 420              	.L15:
 584:Generated_Source\PSoC5/USBUART.c **** 
 585:Generated_Source\PSoC5/USBUART.c ****     default: /* Check DWR settings of USB power supply. */
 586:Generated_Source\PSoC5/USBUART.c ****     #if (USBUART_VDDD_MV < USBUART_3500MV)
 587:Generated_Source\PSoC5/USBUART.c ****         /* Disable regulator for 3V operation. */
 588:Generated_Source\PSoC5/USBUART.c ****         USBUART_CR1_REG &= (uint8) ~USBUART_CR1_REG_ENABLE;
 589:Generated_Source\PSoC5/USBUART.c ****     #else
 590:Generated_Source\PSoC5/USBUART.c ****         /* Enable regulator for 5V operation. */
 591:Generated_Source\PSoC5/USBUART.c ****         USBUART_CR1_REG |= (uint8)  USBUART_CR1_REG_ENABLE;
 421              		.loc 1 591 0
 422 00ae 164A     		ldr	r2, .L16+40
 423 00b0 154B     		ldr	r3, .L16+40
 424 00b2 1B78     		ldrb	r3, [r3]
 425 00b4 DBB2     		uxtb	r3, r3
 426 00b6 43F00103 		orr	r3, r3, #1
 427 00ba DBB2     		uxtb	r3, r3
 428 00bc 1370     		strb	r3, [r2]
 592:Generated_Source\PSoC5/USBUART.c ****     #endif /* (USBUART_VDDD_MV < USBUART_3500MV) */
 593:Generated_Source\PSoC5/USBUART.c ****         break;
 429              		.loc 1 593 0
 430 00be 00BF     		nop
 431              	.L14:
ARM GAS  C:\Users\Keshuai\AppData\Local\Temp\ccTp3FAZ.s 			page 19


 594:Generated_Source\PSoC5/USBUART.c ****     }
 595:Generated_Source\PSoC5/USBUART.c **** 
 596:Generated_Source\PSoC5/USBUART.c **** #if (CY_PSOC4)
 597:Generated_Source\PSoC5/USBUART.c ****     /* Clear bus activity. */
 598:Generated_Source\PSoC5/USBUART.c ****     USBUART_CR1_REG &= (uint32) ~USBUART_CR1_BUS_ACTIVITY;
 599:Generated_Source\PSoC5/USBUART.c **** 
 600:Generated_Source\PSoC5/USBUART.c ****     /* Clear EP0 count register. */
 601:Generated_Source\PSoC5/USBUART.c ****     USBUART_EP0_CNT_REG = USBUART_CLEAR_REG;
 602:Generated_Source\PSoC5/USBUART.c **** 
 603:Generated_Source\PSoC5/USBUART.c ****     /* Set EP0.CR: ACK Setup, NAK IN/OUT. */
 604:Generated_Source\PSoC5/USBUART.c ****     USBUART_EP0_CR_REG = USBUART_MODE_NAK_IN_OUT;
 605:Generated_Source\PSoC5/USBUART.c **** 
 606:Generated_Source\PSoC5/USBUART.c ****     #if (USBUART_LPM_ACTIVE)
 607:Generated_Source\PSoC5/USBUART.c ****         if (NULL != USBUART_GetBOSPtr())
 608:Generated_Source\PSoC5/USBUART.c ****         {
 609:Generated_Source\PSoC5/USBUART.c ****             /* Enable LPM and acknowledge LPM packets for active device.
 610:Generated_Source\PSoC5/USBUART.c ****             * Reset NYET_EN and SUB_RESP bits in the LPM_CTRL register.
 611:Generated_Source\PSoC5/USBUART.c ****             */
 612:Generated_Source\PSoC5/USBUART.c ****             USBUART_LPM_CTRL_REG = (USBUART_LPM_CTRL_LPM_EN | \
 613:Generated_Source\PSoC5/USBUART.c ****                                              USBUART_LPM_CTRL_LPM_ACK_RESP);
 614:Generated_Source\PSoC5/USBUART.c ****         }
 615:Generated_Source\PSoC5/USBUART.c ****         else
 616:Generated_Source\PSoC5/USBUART.c ****         {
 617:Generated_Source\PSoC5/USBUART.c ****             /* Disable LPM for active device. */
 618:Generated_Source\PSoC5/USBUART.c ****             USBUART_LPM_CTRL_REG &= (uint32) ~USBUART_LPM_CTRL_LPM_EN;
 619:Generated_Source\PSoC5/USBUART.c ****         }
 620:Generated_Source\PSoC5/USBUART.c ****     #endif /* (USBUART_LPM_ACTIVE) */
 621:Generated_Source\PSoC5/USBUART.c **** 
 622:Generated_Source\PSoC5/USBUART.c ****     /* Enable device to responds to USB traffic with address 0. */
 623:Generated_Source\PSoC5/USBUART.c ****     USBUART_CR0_REG = USBUART_DEFUALT_CR0;
 624:Generated_Source\PSoC5/USBUART.c **** 
 625:Generated_Source\PSoC5/USBUART.c **** #else
 626:Generated_Source\PSoC5/USBUART.c ****     /* Set EP0.CR: ACK Setup, STALL IN/OUT. */
 627:Generated_Source\PSoC5/USBUART.c ****     USBUART_EP0_CR_REG = USBUART_MODE_STALL_IN_OUT;
 432              		.loc 1 627 0
 433 00c0 124B     		ldr	r3, .L16+44
 434 00c2 0322     		movs	r2, #3
 435 00c4 1A70     		strb	r2, [r3]
 628:Generated_Source\PSoC5/USBUART.c **** 
 629:Generated_Source\PSoC5/USBUART.c ****     /* Enable device to respond to USB traffic with address 0. */
 630:Generated_Source\PSoC5/USBUART.c ****     USBUART_CR0_REG = USBUART_DEFUALT_CR0;
 436              		.loc 1 630 0
 437 00c6 124B     		ldr	r3, .L16+48
 438 00c8 8022     		movs	r2, #128
 439 00ca 1A70     		strb	r2, [r3]
 631:Generated_Source\PSoC5/USBUART.c ****     CyDelayCycles(USBUART_WAIT_CR0_REG_STABILITY);
 440              		.loc 1 631 0
 441 00cc 0120     		movs	r0, #1
 442 00ce FFF7FEFF 		bl	CyDelayCycles
 632:Generated_Source\PSoC5/USBUART.c **** #endif /* (CY_PSOC4) */
 633:Generated_Source\PSoC5/USBUART.c **** 
 634:Generated_Source\PSoC5/USBUART.c ****     /* Enable D+ pull-up and keep USB control on IO. */
 635:Generated_Source\PSoC5/USBUART.c ****     USBUART_USBIO_CR1_REG = USBUART_USBIO_CR1_USBPUEN;
 443              		.loc 1 635 0
 444 00d2 104B     		ldr	r3, .L16+52
 445 00d4 0422     		movs	r2, #4
 446 00d6 1A70     		strb	r2, [r3]
ARM GAS  C:\Users\Keshuai\AppData\Local\Temp\ccTp3FAZ.s 			page 20


 636:Generated_Source\PSoC5/USBUART.c **** }
 447              		.loc 1 636 0
 448 00d8 1037     		adds	r7, r7, #16
 449              		.cfi_def_cfa_offset 8
 450 00da BD46     		mov	sp, r7
 451              		.cfi_def_cfa_register 13
 452              		@ sp needed
 453 00dc 80BD     		pop	{r7, pc}
 454              	.L17:
 455 00de 00BF     		.align	2
 456              	.L16:
 457 00e0 00000000 		.word	USBUART_hidProtocol
 458 00e4 00000000 		.word	USBUART_device
 459 00e8 00000000 		.word	USBUART_transferState
 460 00ec 00000000 		.word	USBUART_configurationChanged
 461 00f0 00000000 		.word	USBUART_configuration
 462 00f4 00000000 		.word	USBUART_interfaceNumber
 463 00f8 00000000 		.word	USBUART_deviceAddress
 464 00fc 00000000 		.word	USBUART_deviceStatus
 465 0100 00000000 		.word	USBUART_lastPacketSize
 466 0104 00E100E0 		.word	-536813312
 467 0108 09600040 		.word	1073766409
 468 010c 28600040 		.word	1073766440
 469 0110 08600040 		.word	1073766408
 470 0114 12600040 		.word	1073766418
 471              		.cfi_endproc
 472              	.LFE2:
 473              		.size	USBUART_InitComponent, .-USBUART_InitComponent
 474              		.section	.text.USBUART_ReInitComponent,"ax",%progbits
 475              		.align	2
 476              		.global	USBUART_ReInitComponent
 477              		.thumb
 478              		.thumb_func
 479              		.type	USBUART_ReInitComponent, %function
 480              	USBUART_ReInitComponent:
 481              	.LFB3:
 637:Generated_Source\PSoC5/USBUART.c **** 
 638:Generated_Source\PSoC5/USBUART.c **** 
 639:Generated_Source\PSoC5/USBUART.c **** /*******************************************************************************
 640:Generated_Source\PSoC5/USBUART.c **** * Function Name: USBUART_ReInitComponent
 641:Generated_Source\PSoC5/USBUART.c **** ****************************************************************************//**
 642:Generated_Source\PSoC5/USBUART.c **** *
 643:Generated_Source\PSoC5/USBUART.c **** *  This function reinitialize the component configuration and is
 644:Generated_Source\PSoC5/USBUART.c **** *  intend to be called from the Reset interrupt.
 645:Generated_Source\PSoC5/USBUART.c **** *
 646:Generated_Source\PSoC5/USBUART.c **** * \globalvars
 647:Generated_Source\PSoC5/USBUART.c **** *   USBUART_device - Contains the device number of the desired Device
 648:Generated_Source\PSoC5/USBUART.c **** *        Descriptor. The device number can be found in the Device Descriptor tab
 649:Generated_Source\PSoC5/USBUART.c **** *       of the Configure dialog, under the settings of the desired Device Descriptor,
 650:Generated_Source\PSoC5/USBUART.c **** *       in the Device Number field.
 651:Generated_Source\PSoC5/USBUART.c **** *   USBUART_transferState - This variable is used by the communication
 652:Generated_Source\PSoC5/USBUART.c **** *       functions to handle the current transfer state. Initialized to
 653:Generated_Source\PSoC5/USBUART.c **** *       TRANS_STATE_IDLE in this API.
 654:Generated_Source\PSoC5/USBUART.c **** *   USBUART_configuration - Contains the current configuration number
 655:Generated_Source\PSoC5/USBUART.c **** *       set by the Host using a SET_CONFIGURATION request.
 656:Generated_Source\PSoC5/USBUART.c **** *       Initialized to zero in this API.
 657:Generated_Source\PSoC5/USBUART.c **** *   USBUART_deviceAddress - Contains the current device address. This
ARM GAS  C:\Users\Keshuai\AppData\Local\Temp\ccTp3FAZ.s 			page 21


 658:Generated_Source\PSoC5/USBUART.c **** *       variable is initialized to zero in this API. The Host starts to communicate
 659:Generated_Source\PSoC5/USBUART.c **** *      to the device with address 0 and then sets it to a whatever value using
 660:Generated_Source\PSoC5/USBUART.c **** *      a SET_ADDRESS request.
 661:Generated_Source\PSoC5/USBUART.c **** *   USBUART_deviceStatus - Initialized to 0.
 662:Generated_Source\PSoC5/USBUART.c **** *       This is a two-bit variable which contains the power status in the first bit
 663:Generated_Source\PSoC5/USBUART.c **** *       (DEVICE_STATUS_BUS_POWERED or DEVICE_STATUS_SELF_POWERED) and the remote
 664:Generated_Source\PSoC5/USBUART.c **** *       wakeup status (DEVICE_STATUS_REMOTE_WAKEUP) in the second bit.
 665:Generated_Source\PSoC5/USBUART.c **** *   USBUART_lastPacketSize - Initialized to 0;
 666:Generated_Source\PSoC5/USBUART.c **** *
 667:Generated_Source\PSoC5/USBUART.c **** * \reentrant
 668:Generated_Source\PSoC5/USBUART.c **** *  No.
 669:Generated_Source\PSoC5/USBUART.c **** *
 670:Generated_Source\PSoC5/USBUART.c **** *******************************************************************************/
 671:Generated_Source\PSoC5/USBUART.c **** void USBUART_ReInitComponent(void) 
 672:Generated_Source\PSoC5/USBUART.c **** {
 482              		.loc 1 672 0
 483              		.cfi_startproc
 484              		@ args = 0, pretend = 0, frame = 8
 485              		@ frame_needed = 1, uses_anonymous_args = 0
 486              		@ link register save eliminated.
 487 0000 80B4     		push	{r7}
 488              		.cfi_def_cfa_offset 4
 489              		.cfi_offset 7, -4
 490 0002 83B0     		sub	sp, sp, #12
 491              		.cfi_def_cfa_offset 16
 492 0004 00AF     		add	r7, sp, #0
 493              		.cfi_def_cfa_register 7
 673:Generated_Source\PSoC5/USBUART.c ****     /* Initialize _hidProtocol variable to comply with HID 7.2.6 Set_Protocol
 674:Generated_Source\PSoC5/USBUART.c ****     *  Request: "When initialized, all devices default to report protocol."
 675:Generated_Source\PSoC5/USBUART.c ****     */
 676:Generated_Source\PSoC5/USBUART.c **** #if defined(USBUART_ENABLE_HID_CLASS)
 677:Generated_Source\PSoC5/USBUART.c ****     uint8 i;
 678:Generated_Source\PSoC5/USBUART.c **** 
 679:Generated_Source\PSoC5/USBUART.c ****     for (i = 0u; i < USBUART_MAX_INTERFACES_NUMBER; i++)
 494              		.loc 1 679 0
 495 0006 0023     		movs	r3, #0
 496 0008 FB71     		strb	r3, [r7, #7]
 497 000a 06E0     		b	.L19
 498              	.L20:
 680:Generated_Source\PSoC5/USBUART.c ****     {
 681:Generated_Source\PSoC5/USBUART.c ****         USBUART_hidProtocol[i] = USBUART_PROTOCOL_REPORT;
 499              		.loc 1 681 0 discriminator 3
 500 000c FB79     		ldrb	r3, [r7, #7]	@ zero_extendqisi2
 501 000e 144A     		ldr	r2, .L21
 502 0010 0121     		movs	r1, #1
 503 0012 D154     		strb	r1, [r2, r3]
 679:Generated_Source\PSoC5/USBUART.c ****     {
 504              		.loc 1 679 0 discriminator 3
 505 0014 FB79     		ldrb	r3, [r7, #7]	@ zero_extendqisi2
 506 0016 0133     		adds	r3, r3, #1
 507 0018 FB71     		strb	r3, [r7, #7]
 508              	.L19:
 679:Generated_Source\PSoC5/USBUART.c ****     {
 509              		.loc 1 679 0 is_stmt 0 discriminator 1
 510 001a FB79     		ldrb	r3, [r7, #7]	@ zero_extendqisi2
 511 001c 002B     		cmp	r3, #0
 512 001e F5D0     		beq	.L20
ARM GAS  C:\Users\Keshuai\AppData\Local\Temp\ccTp3FAZ.s 			page 22


 682:Generated_Source\PSoC5/USBUART.c ****     }
 683:Generated_Source\PSoC5/USBUART.c **** #endif /* USBUART_ENABLE_HID_CLASS */
 684:Generated_Source\PSoC5/USBUART.c **** 
 685:Generated_Source\PSoC5/USBUART.c ****     /* Reset component internal variables. */
 686:Generated_Source\PSoC5/USBUART.c ****     USBUART_transferState   = USBUART_TRANS_STATE_IDLE;
 513              		.loc 1 686 0 is_stmt 1
 514 0020 104B     		ldr	r3, .L21+4
 515 0022 0022     		movs	r2, #0
 516 0024 1A70     		strb	r2, [r3]
 687:Generated_Source\PSoC5/USBUART.c ****     USBUART_configurationChanged = 0u;
 517              		.loc 1 687 0
 518 0026 104B     		ldr	r3, .L21+8
 519 0028 0022     		movs	r2, #0
 520 002a 1A70     		strb	r2, [r3]
 688:Generated_Source\PSoC5/USBUART.c ****     USBUART_configuration   = 0u;
 521              		.loc 1 688 0
 522 002c 0F4B     		ldr	r3, .L21+12
 523 002e 0022     		movs	r2, #0
 524 0030 1A70     		strb	r2, [r3]
 689:Generated_Source\PSoC5/USBUART.c ****     USBUART_interfaceNumber = 0u;
 525              		.loc 1 689 0
 526 0032 0F4B     		ldr	r3, .L21+16
 527 0034 0022     		movs	r2, #0
 528 0036 1A70     		strb	r2, [r3]
 690:Generated_Source\PSoC5/USBUART.c ****     USBUART_deviceAddress   = 0u;
 529              		.loc 1 690 0
 530 0038 0E4B     		ldr	r3, .L21+20
 531 003a 0022     		movs	r2, #0
 532 003c 1A70     		strb	r2, [r3]
 691:Generated_Source\PSoC5/USBUART.c ****     USBUART_deviceStatus    = 0u;
 533              		.loc 1 691 0
 534 003e 0E4B     		ldr	r3, .L21+24
 535 0040 0022     		movs	r2, #0
 536 0042 1A70     		strb	r2, [r3]
 692:Generated_Source\PSoC5/USBUART.c ****     USBUART_lastPacketSize  = 0u;
 537              		.loc 1 692 0
 538 0044 0D4B     		ldr	r3, .L21+28
 539 0046 0022     		movs	r2, #0
 540 0048 1A70     		strb	r2, [r3]
 693:Generated_Source\PSoC5/USBUART.c **** 
 694:Generated_Source\PSoC5/USBUART.c **** #if (CY_PSOC4)
 695:Generated_Source\PSoC5/USBUART.c ****     /* Set EP0.CR: ACK Setup, NAK IN/OUT. */
 696:Generated_Source\PSoC5/USBUART.c ****     USBUART_EP0_CR_REG = USBUART_MODE_NAK_IN_OUT;
 697:Generated_Source\PSoC5/USBUART.c **** #else
 698:Generated_Source\PSoC5/USBUART.c ****     /* Set EP0.CR: ACK Setup, STALL IN/OUT. */
 699:Generated_Source\PSoC5/USBUART.c ****     USBUART_EP0_CR_REG = USBUART_MODE_STALL_IN_OUT;
 541              		.loc 1 699 0
 542 004a 0D4B     		ldr	r3, .L21+32
 543 004c 0322     		movs	r2, #3
 544 004e 1A70     		strb	r2, [r3]
 700:Generated_Source\PSoC5/USBUART.c **** #endif /* (CY_PSOC4) */
 701:Generated_Source\PSoC5/USBUART.c **** 
 702:Generated_Source\PSoC5/USBUART.c ****     /* Enable device to respond to USB traffic with address 0. */
 703:Generated_Source\PSoC5/USBUART.c ****     USBUART_CR0_REG = USBUART_DEFUALT_CR0;
 545              		.loc 1 703 0
 546 0050 0C4B     		ldr	r3, .L21+36
 547 0052 8022     		movs	r2, #128
ARM GAS  C:\Users\Keshuai\AppData\Local\Temp\ccTp3FAZ.s 			page 23


 548 0054 1A70     		strb	r2, [r3]
 704:Generated_Source\PSoC5/USBUART.c **** }
 549              		.loc 1 704 0
 550 0056 0C37     		adds	r7, r7, #12
 551              		.cfi_def_cfa_offset 4
 552 0058 BD46     		mov	sp, r7
 553              		.cfi_def_cfa_register 13
 554              		@ sp needed
 555 005a 5DF8047B 		ldr	r7, [sp], #4
 556              		.cfi_restore 7
 557              		.cfi_def_cfa_offset 0
 558 005e 7047     		bx	lr
 559              	.L22:
 560              		.align	2
 561              	.L21:
 562 0060 00000000 		.word	USBUART_hidProtocol
 563 0064 00000000 		.word	USBUART_transferState
 564 0068 00000000 		.word	USBUART_configurationChanged
 565 006c 00000000 		.word	USBUART_configuration
 566 0070 00000000 		.word	USBUART_interfaceNumber
 567 0074 00000000 		.word	USBUART_deviceAddress
 568 0078 00000000 		.word	USBUART_deviceStatus
 569 007c 00000000 		.word	USBUART_lastPacketSize
 570 0080 28600040 		.word	1073766440
 571 0084 08600040 		.word	1073766408
 572              		.cfi_endproc
 573              	.LFE3:
 574              		.size	USBUART_ReInitComponent, .-USBUART_ReInitComponent
 575              		.section	.text.USBUART_Stop,"ax",%progbits
 576              		.align	2
 577              		.global	USBUART_Stop
 578              		.thumb
 579              		.thumb_func
 580              		.type	USBUART_Stop, %function
 581              	USBUART_Stop:
 582              	.LFB4:
 705:Generated_Source\PSoC5/USBUART.c **** 
 706:Generated_Source\PSoC5/USBUART.c **** 
 707:Generated_Source\PSoC5/USBUART.c **** /*******************************************************************************
 708:Generated_Source\PSoC5/USBUART.c **** * Function Name: USBUART_Stop
 709:Generated_Source\PSoC5/USBUART.c **** ****************************************************************************//**
 710:Generated_Source\PSoC5/USBUART.c **** *
 711:Generated_Source\PSoC5/USBUART.c **** *  This function shuts down the USB function including to release
 712:Generated_Source\PSoC5/USBUART.c **** *  the D+ pull-up and disabling the SIE.
 713:Generated_Source\PSoC5/USBUART.c **** *
 714:Generated_Source\PSoC5/USBUART.c **** * \globalvars
 715:Generated_Source\PSoC5/USBUART.c **** *   \ref USBUART_configuration
 716:Generated_Source\PSoC5/USBUART.c **** *
 717:Generated_Source\PSoC5/USBUART.c **** *   USBUART_deviceAddress - Contains the current device address. This
 718:Generated_Source\PSoC5/USBUART.c **** *       variable is initialized to zero in this API. The Host starts to communicate
 719:Generated_Source\PSoC5/USBUART.c **** *      to the device with address 0 and then sets it to a whatever value using
 720:Generated_Source\PSoC5/USBUART.c **** *      a SET_ADDRESS request.
 721:Generated_Source\PSoC5/USBUART.c **** *
 722:Generated_Source\PSoC5/USBUART.c **** *   \ref USBUART_deviceStatus
 723:Generated_Source\PSoC5/USBUART.c **** *
 724:Generated_Source\PSoC5/USBUART.c **** *   \ref USBUART_configurationChanged
 725:Generated_Source\PSoC5/USBUART.c **** *
ARM GAS  C:\Users\Keshuai\AppData\Local\Temp\ccTp3FAZ.s 			page 24


 726:Generated_Source\PSoC5/USBUART.c **** *   USBUART_intiVar -  This variable is set to zero
 727:Generated_Source\PSoC5/USBUART.c **** *
 728:Generated_Source\PSoC5/USBUART.c **** *******************************************************************************/
 729:Generated_Source\PSoC5/USBUART.c **** void USBUART_Stop(void) 
 730:Generated_Source\PSoC5/USBUART.c **** {
 583              		.loc 1 730 0
 584              		.cfi_startproc
 585              		@ args = 0, pretend = 0, frame = 8
 586              		@ frame_needed = 1, uses_anonymous_args = 0
 587 0000 80B5     		push	{r7, lr}
 588              		.cfi_def_cfa_offset 8
 589              		.cfi_offset 7, -8
 590              		.cfi_offset 14, -4
 591 0002 82B0     		sub	sp, sp, #8
 592              		.cfi_def_cfa_offset 16
 593 0004 00AF     		add	r7, sp, #0
 594              		.cfi_def_cfa_register 7
 731:Generated_Source\PSoC5/USBUART.c ****     uint8 enableInterrupts;
 732:Generated_Source\PSoC5/USBUART.c **** 
 733:Generated_Source\PSoC5/USBUART.c **** #if (USBUART_EP_MANAGEMENT_DMA)
 734:Generated_Source\PSoC5/USBUART.c ****     /* Stop all DMA channels. */
 735:Generated_Source\PSoC5/USBUART.c ****     USBUART_Stop_DMA(USBUART_MAX_EP);
 736:Generated_Source\PSoC5/USBUART.c **** #endif /* (USBUART_EP_MANAGEMENT_DMA) */
 737:Generated_Source\PSoC5/USBUART.c **** 
 738:Generated_Source\PSoC5/USBUART.c ****     enableInterrupts = CyEnterCriticalSection();
 595              		.loc 1 738 0
 596 0006 FFF7FEFF 		bl	CyEnterCriticalSection
 597 000a 0346     		mov	r3, r0
 598 000c FB71     		strb	r3, [r7, #7]
 739:Generated_Source\PSoC5/USBUART.c **** 
 740:Generated_Source\PSoC5/USBUART.c ****     /* Disable USB IP to respond to USB traffic. */
 741:Generated_Source\PSoC5/USBUART.c ****     USBUART_CR0_REG &= (uint8) ~USBUART_CR0_ENABLE;
 599              		.loc 1 741 0
 600 000e 304A     		ldr	r2, .L24
 601 0010 2F4B     		ldr	r3, .L24
 602 0012 1B78     		ldrb	r3, [r3]
 603 0014 DBB2     		uxtb	r3, r3
 604 0016 03F07F03 		and	r3, r3, #127
 605 001a DBB2     		uxtb	r3, r3
 606 001c 1370     		strb	r3, [r2]
 742:Generated_Source\PSoC5/USBUART.c **** 
 743:Generated_Source\PSoC5/USBUART.c ****     /* Disable D+ pull-up. */
 744:Generated_Source\PSoC5/USBUART.c ****     USBUART_USBIO_CR1_REG &= (uint8) ~ USBUART_USBIO_CR1_USBPUEN;
 607              		.loc 1 744 0
 608 001e 2D4A     		ldr	r2, .L24+4
 609 0020 2C4B     		ldr	r3, .L24+4
 610 0022 1B78     		ldrb	r3, [r3]
 611 0024 DBB2     		uxtb	r3, r3
 612 0026 23F00403 		bic	r3, r3, #4
 613 002a DBB2     		uxtb	r3, r3
 614 002c 1370     		strb	r3, [r2]
 745:Generated_Source\PSoC5/USBUART.c **** 
 746:Generated_Source\PSoC5/USBUART.c **** #if (CY_PSOC4)
 747:Generated_Source\PSoC5/USBUART.c ****     /* Disable USBFS block. */
 748:Generated_Source\PSoC5/USBUART.c ****     USBUART_POWER_CTRL_REG &= (uint32) ~USBUART_POWER_CTRL_ENABLE;
 749:Generated_Source\PSoC5/USBUART.c **** #else
 750:Generated_Source\PSoC5/USBUART.c ****     /* Clear power active and standby mode templates. */
ARM GAS  C:\Users\Keshuai\AppData\Local\Temp\ccTp3FAZ.s 			page 25


 751:Generated_Source\PSoC5/USBUART.c ****     USBUART_PM_ACT_CFG_REG  &= (uint8) ~USBUART_PM_ACT_EN_FSUSB;
 615              		.loc 1 751 0
 616 002e 2A4A     		ldr	r2, .L24+8
 617 0030 294B     		ldr	r3, .L24+8
 618 0032 1B78     		ldrb	r3, [r3]
 619 0034 DBB2     		uxtb	r3, r3
 620 0036 23F00103 		bic	r3, r3, #1
 621 003a DBB2     		uxtb	r3, r3
 622 003c 1370     		strb	r3, [r2]
 752:Generated_Source\PSoC5/USBUART.c ****     USBUART_PM_STBY_CFG_REG &= (uint8) ~USBUART_PM_STBY_EN_FSUSB;
 623              		.loc 1 752 0
 624 003e 274A     		ldr	r2, .L24+12
 625 0040 264B     		ldr	r3, .L24+12
 626 0042 1B78     		ldrb	r3, [r3]
 627 0044 DBB2     		uxtb	r3, r3
 628 0046 23F00103 		bic	r3, r3, #1
 629 004a DBB2     		uxtb	r3, r3
 630 004c 1370     		strb	r3, [r2]
 753:Generated_Source\PSoC5/USBUART.c **** 
 754:Generated_Source\PSoC5/USBUART.c ****     /* Ensure single-ended disable bits are high (PRT15.INP_DIS[7:6])
 755:Generated_Source\PSoC5/USBUART.c ****      * (input receiver disabled). */
 756:Generated_Source\PSoC5/USBUART.c ****     USBUART_DM_INP_DIS_REG |= (uint8) USBUART_DM_MASK;
 631              		.loc 1 756 0
 632 004e 244A     		ldr	r2, .L24+16
 633 0050 234B     		ldr	r3, .L24+16
 634 0052 1B78     		ldrb	r3, [r3]
 635 0054 DBB2     		uxtb	r3, r3
 636 0056 63F07F03 		orn	r3, r3, #127
 637 005a DBB2     		uxtb	r3, r3
 638 005c 1370     		strb	r3, [r2]
 757:Generated_Source\PSoC5/USBUART.c ****     USBUART_DP_INP_DIS_REG |= (uint8) USBUART_DP_MASK;
 639              		.loc 1 757 0
 640 005e 204A     		ldr	r2, .L24+16
 641 0060 1F4B     		ldr	r3, .L24+16
 642 0062 1B78     		ldrb	r3, [r3]
 643 0064 DBB2     		uxtb	r3, r3
 644 0066 43F04003 		orr	r3, r3, #64
 645 006a DBB2     		uxtb	r3, r3
 646 006c 1370     		strb	r3, [r2]
 758:Generated_Source\PSoC5/USBUART.c **** 
 759:Generated_Source\PSoC5/USBUART.c **** #endif /* (CY_PSOC4) */
 760:Generated_Source\PSoC5/USBUART.c **** 
 761:Generated_Source\PSoC5/USBUART.c ****     CyExitCriticalSection(enableInterrupts);
 647              		.loc 1 761 0
 648 006e FB79     		ldrb	r3, [r7, #7]	@ zero_extendqisi2
 649 0070 1846     		mov	r0, r3
 650 0072 FFF7FEFF 		bl	CyExitCriticalSection
 762:Generated_Source\PSoC5/USBUART.c **** 
 763:Generated_Source\PSoC5/USBUART.c ****     /* Disable component interrupts. */
 764:Generated_Source\PSoC5/USBUART.c **** #if (CY_PSOC4)
 765:Generated_Source\PSoC5/USBUART.c ****     CyIntDisable(USBUART_INTR_HI_VECT_NUM);
 766:Generated_Source\PSoC5/USBUART.c ****     CyIntDisable(USBUART_INTR_LO_VECT_NUM);
 767:Generated_Source\PSoC5/USBUART.c ****     CyIntDisable(USBUART_INTR_MED_VECT_NUM);
 768:Generated_Source\PSoC5/USBUART.c **** #else
 769:Generated_Source\PSoC5/USBUART.c **** 
 770:Generated_Source\PSoC5/USBUART.c ****     CyIntDisable(USBUART_BUS_RESET_VECT_NUM);
 651              		.loc 1 770 0
ARM GAS  C:\Users\Keshuai\AppData\Local\Temp\ccTp3FAZ.s 			page 26


 652 0076 1B4B     		ldr	r3, .L24+20
 653 0078 4FF40002 		mov	r2, #8388608
 654 007c 1A60     		str	r2, [r3]
 771:Generated_Source\PSoC5/USBUART.c ****     CyIntDisable(USBUART_EP_0_VECT_NUM);
 655              		.loc 1 771 0
 656 007e 194B     		ldr	r3, .L24+20
 657 0080 4FF08072 		mov	r2, #16777216
 658 0084 1A60     		str	r2, [r3]
 772:Generated_Source\PSoC5/USBUART.c **** 
 773:Generated_Source\PSoC5/USBUART.c ****     #if (USBUART_SOF_ISR_ACTIVE)
 774:Generated_Source\PSoC5/USBUART.c ****         CyIntDisable(USBUART_SOF_VECT_NUM);
 659              		.loc 1 774 0
 660 0086 174B     		ldr	r3, .L24+20
 661 0088 4FF40012 		mov	r2, #2097152
 662 008c 1A60     		str	r2, [r3]
 775:Generated_Source\PSoC5/USBUART.c ****     #endif /* (USBUART_SOF_ISR_ACTIVE) */
 776:Generated_Source\PSoC5/USBUART.c **** 
 777:Generated_Source\PSoC5/USBUART.c ****     #if (USBUART_EP1_ISR_ACTIVE)
 778:Generated_Source\PSoC5/USBUART.c ****         CyIntDisable(USBUART_EP_1_VECT_NUM);
 779:Generated_Source\PSoC5/USBUART.c ****     #endif /* (USBUART_EP1_ISR_ACTIVE) */
 780:Generated_Source\PSoC5/USBUART.c **** 
 781:Generated_Source\PSoC5/USBUART.c ****     #if (USBUART_EP2_ISR_ACTIVE)
 782:Generated_Source\PSoC5/USBUART.c ****         CyIntDisable(USBUART_EP_2_VECT_NUM);
 783:Generated_Source\PSoC5/USBUART.c ****     #endif /* (USBUART_EP2_ISR_ACTIVE) */
 784:Generated_Source\PSoC5/USBUART.c **** 
 785:Generated_Source\PSoC5/USBUART.c ****     #if (USBUART_EP3_ISR_ACTIVE)
 786:Generated_Source\PSoC5/USBUART.c ****         CyIntDisable(USBUART_EP_3_VECT_NUM);
 663              		.loc 1 786 0
 664 008e 154B     		ldr	r3, .L24+20
 665 0090 0122     		movs	r2, #1
 666 0092 1A60     		str	r2, [r3]
 787:Generated_Source\PSoC5/USBUART.c ****     #endif /* (USBUART_EP3_ISR_ACTIVE) */
 788:Generated_Source\PSoC5/USBUART.c **** 
 789:Generated_Source\PSoC5/USBUART.c ****     #if (USBUART_EP4_ISR_ACTIVE)
 790:Generated_Source\PSoC5/USBUART.c ****         CyIntDisable(USBUART_EP_4_VECT_NUM);
 667              		.loc 1 790 0
 668 0094 134B     		ldr	r3, .L24+20
 669 0096 0222     		movs	r2, #2
 670 0098 1A60     		str	r2, [r3]
 791:Generated_Source\PSoC5/USBUART.c ****     #endif /* (USBUART_EP4_ISR_ACTIVE) */
 792:Generated_Source\PSoC5/USBUART.c **** 
 793:Generated_Source\PSoC5/USBUART.c ****     #if (USBUART_EP5_ISR_ACTIVE)
 794:Generated_Source\PSoC5/USBUART.c ****         CyIntDisable(USBUART_EP_5_VECT_NUM);
 795:Generated_Source\PSoC5/USBUART.c ****     #endif /* (USBUART_EP5_ISR_ACTIVE) */
 796:Generated_Source\PSoC5/USBUART.c **** 
 797:Generated_Source\PSoC5/USBUART.c ****     #if (USBUART_EP6_ISR_ACTIVE)
 798:Generated_Source\PSoC5/USBUART.c ****         CyIntDisable(USBUART_EP_6_VECT_NUM);
 799:Generated_Source\PSoC5/USBUART.c ****     #endif /* USBUART_EP6_ISR_REMOVE */
 800:Generated_Source\PSoC5/USBUART.c **** 
 801:Generated_Source\PSoC5/USBUART.c ****     #if (USBUART_EP7_ISR_ACTIVE)
 802:Generated_Source\PSoC5/USBUART.c ****         CyIntDisable(USBUART_EP_7_VECT_NUM);
 803:Generated_Source\PSoC5/USBUART.c ****     #endif /* (USBUART_EP7_ISR_ACTIVE) */
 804:Generated_Source\PSoC5/USBUART.c **** 
 805:Generated_Source\PSoC5/USBUART.c ****     #if (USBUART_EP8_ISR_ACTIVE)
 806:Generated_Source\PSoC5/USBUART.c ****         CyIntDisable(USBUART_EP_8_VECT_NUM);
 807:Generated_Source\PSoC5/USBUART.c ****     #endif /* (USBUART_EP8_ISR_ACTIVE) */
 808:Generated_Source\PSoC5/USBUART.c **** 
ARM GAS  C:\Users\Keshuai\AppData\Local\Temp\ccTp3FAZ.s 			page 27


 809:Generated_Source\PSoC5/USBUART.c ****     #if (USBUART_DP_ISR_ACTIVE)
 810:Generated_Source\PSoC5/USBUART.c ****         /* Clear active mode Dp interrupt source history. */
 811:Generated_Source\PSoC5/USBUART.c ****         (void) USBUART_Dp_ClearInterrupt();
 671              		.loc 1 811 0
 672 009a FFF7FEFF 		bl	USBUART_Dp_ClearInterrupt
 812:Generated_Source\PSoC5/USBUART.c ****         CyIntClearPending(USBUART_DP_INTC_VECT_NUM);
 673              		.loc 1 812 0
 674 009e 124B     		ldr	r3, .L24+24
 675 00a0 4FF48052 		mov	r2, #4096
 676 00a4 1A60     		str	r2, [r3]
 813:Generated_Source\PSoC5/USBUART.c ****     #endif /* (USBUART_DP_ISR_ACTIVE). */
 814:Generated_Source\PSoC5/USBUART.c **** 
 815:Generated_Source\PSoC5/USBUART.c **** #endif /* (CY_PSOC4) */
 816:Generated_Source\PSoC5/USBUART.c **** 
 817:Generated_Source\PSoC5/USBUART.c ****     /* Reset component internal variables. */
 818:Generated_Source\PSoC5/USBUART.c ****     USBUART_configurationChanged = 0u;
 677              		.loc 1 818 0
 678 00a6 114B     		ldr	r3, .L24+28
 679 00a8 0022     		movs	r2, #0
 680 00aa 1A70     		strb	r2, [r3]
 819:Generated_Source\PSoC5/USBUART.c ****     USBUART_configuration   = 0u;
 681              		.loc 1 819 0
 682 00ac 104B     		ldr	r3, .L24+32
 683 00ae 0022     		movs	r2, #0
 684 00b0 1A70     		strb	r2, [r3]
 820:Generated_Source\PSoC5/USBUART.c ****     USBUART_interfaceNumber = 0u;
 685              		.loc 1 820 0
 686 00b2 104B     		ldr	r3, .L24+36
 687 00b4 0022     		movs	r2, #0
 688 00b6 1A70     		strb	r2, [r3]
 821:Generated_Source\PSoC5/USBUART.c ****     USBUART_deviceAddress   = 0u;
 689              		.loc 1 821 0
 690 00b8 0F4B     		ldr	r3, .L24+40
 691 00ba 0022     		movs	r2, #0
 692 00bc 1A70     		strb	r2, [r3]
 822:Generated_Source\PSoC5/USBUART.c ****     USBUART_deviceStatus    = 0u;
 693              		.loc 1 822 0
 694 00be 0F4B     		ldr	r3, .L24+44
 695 00c0 0022     		movs	r2, #0
 696 00c2 1A70     		strb	r2, [r3]
 823:Generated_Source\PSoC5/USBUART.c **** 
 824:Generated_Source\PSoC5/USBUART.c ****     /* It is mandatory for correct device startup. */
 825:Generated_Source\PSoC5/USBUART.c ****     USBUART_initVar = 0u;
 697              		.loc 1 825 0
 698 00c4 0E4B     		ldr	r3, .L24+48
 699 00c6 0022     		movs	r2, #0
 700 00c8 1A70     		strb	r2, [r3]
 826:Generated_Source\PSoC5/USBUART.c **** }
 701              		.loc 1 826 0
 702 00ca 0837     		adds	r7, r7, #8
 703              		.cfi_def_cfa_offset 8
 704 00cc BD46     		mov	sp, r7
 705              		.cfi_def_cfa_register 13
 706              		@ sp needed
 707 00ce 80BD     		pop	{r7, pc}
 708              	.L25:
 709              		.align	2
ARM GAS  C:\Users\Keshuai\AppData\Local\Temp\ccTp3FAZ.s 			page 28


 710              	.L24:
 711 00d0 08600040 		.word	1073766408
 712 00d4 12600040 		.word	1073766418
 713 00d8 A5430040 		.word	1073759141
 714 00dc B5430040 		.word	1073759157
 715 00e0 F8510040 		.word	1073762808
 716 00e4 80E100E0 		.word	-536813184
 717 00e8 80E200E0 		.word	-536812928
 718 00ec 00000000 		.word	USBUART_configurationChanged
 719 00f0 00000000 		.word	USBUART_configuration
 720 00f4 00000000 		.word	USBUART_interfaceNumber
 721 00f8 00000000 		.word	USBUART_deviceAddress
 722 00fc 00000000 		.word	USBUART_deviceStatus
 723 0100 00000000 		.word	USBUART_initVar
 724              		.cfi_endproc
 725              	.LFE4:
 726              		.size	USBUART_Stop, .-USBUART_Stop
 727              		.section	.text.USBUART_CheckActivity,"ax",%progbits
 728              		.align	2
 729              		.global	USBUART_CheckActivity
 730              		.thumb
 731              		.thumb_func
 732              		.type	USBUART_CheckActivity, %function
 733              	USBUART_CheckActivity:
 734              	.LFB5:
 827:Generated_Source\PSoC5/USBUART.c **** 
 828:Generated_Source\PSoC5/USBUART.c **** 
 829:Generated_Source\PSoC5/USBUART.c **** /*******************************************************************************
 830:Generated_Source\PSoC5/USBUART.c **** * Function Name: USBUART_CheckActivity
 831:Generated_Source\PSoC5/USBUART.c **** ****************************************************************************//**
 832:Generated_Source\PSoC5/USBUART.c **** *
 833:Generated_Source\PSoC5/USBUART.c **** *  This function returns the activity status of the bus. It clears the hardware
 834:Generated_Source\PSoC5/USBUART.c **** *  status to provide updated status on the next call of this function. It
 835:Generated_Source\PSoC5/USBUART.c **** *  provides a way to determine whether any USB bus activity occurred. The
 836:Generated_Source\PSoC5/USBUART.c **** *  application should use this function to determine if the USB suspend
 837:Generated_Source\PSoC5/USBUART.c **** *  conditions are met.
 838:Generated_Source\PSoC5/USBUART.c **** *
 839:Generated_Source\PSoC5/USBUART.c **** *
 840:Generated_Source\PSoC5/USBUART.c **** * \return
 841:Generated_Source\PSoC5/USBUART.c **** *  cystatus: Status of the bus since the last call of the function.
 842:Generated_Source\PSoC5/USBUART.c **** *  Return Value |   Description
 843:Generated_Source\PSoC5/USBUART.c **** *  -------------|---------------------------------------------------------------
 844:Generated_Source\PSoC5/USBUART.c **** *  1            |Bus activity was detected since the last call to this function
 845:Generated_Source\PSoC5/USBUART.c **** *  0            |Bus activity was not detected since the last call to this function
 846:Generated_Source\PSoC5/USBUART.c **** *
 847:Generated_Source\PSoC5/USBUART.c **** *
 848:Generated_Source\PSoC5/USBUART.c **** *******************************************************************************/
 849:Generated_Source\PSoC5/USBUART.c **** uint8 USBUART_CheckActivity(void) 
 850:Generated_Source\PSoC5/USBUART.c **** {
 735              		.loc 1 850 0
 736              		.cfi_startproc
 737              		@ args = 0, pretend = 0, frame = 8
 738              		@ frame_needed = 1, uses_anonymous_args = 0
 739              		@ link register save eliminated.
 740 0000 80B4     		push	{r7}
 741              		.cfi_def_cfa_offset 4
 742              		.cfi_offset 7, -4
ARM GAS  C:\Users\Keshuai\AppData\Local\Temp\ccTp3FAZ.s 			page 29


 743 0002 83B0     		sub	sp, sp, #12
 744              		.cfi_def_cfa_offset 16
 745 0004 00AF     		add	r7, sp, #0
 746              		.cfi_def_cfa_register 7
 851:Generated_Source\PSoC5/USBUART.c ****     uint8 cr1Reg = USBUART_CR1_REG;
 747              		.loc 1 851 0
 748 0006 0B4B     		ldr	r3, .L30
 749 0008 1B78     		ldrb	r3, [r3]
 750 000a FB71     		strb	r3, [r7, #7]
 852:Generated_Source\PSoC5/USBUART.c **** 
 853:Generated_Source\PSoC5/USBUART.c ****     /* Clear bus activity. */
 854:Generated_Source\PSoC5/USBUART.c ****     USBUART_CR1_REG = (cr1Reg & (uint8) ~USBUART_CR1_BUS_ACTIVITY);
 751              		.loc 1 854 0
 752 000c 094A     		ldr	r2, .L30
 753 000e FB79     		ldrb	r3, [r7, #7]
 754 0010 23F00403 		bic	r3, r3, #4
 755 0014 DBB2     		uxtb	r3, r3
 756 0016 1370     		strb	r3, [r2]
 855:Generated_Source\PSoC5/USBUART.c **** 
 856:Generated_Source\PSoC5/USBUART.c ****     /* Get bus activity. */
 857:Generated_Source\PSoC5/USBUART.c ****     return ((0u != (cr1Reg & USBUART_CR1_BUS_ACTIVITY)) ? (1u) : (0u));
 757              		.loc 1 857 0
 758 0018 FB79     		ldrb	r3, [r7, #7]	@ zero_extendqisi2
 759 001a 03F00403 		and	r3, r3, #4
 760 001e 002B     		cmp	r3, #0
 761 0020 01D0     		beq	.L27
 762              		.loc 1 857 0 is_stmt 0 discriminator 1
 763 0022 0123     		movs	r3, #1
 764 0024 00E0     		b	.L28
 765              	.L27:
 766              		.loc 1 857 0 discriminator 2
 767 0026 0023     		movs	r3, #0
 768              	.L28:
 858:Generated_Source\PSoC5/USBUART.c **** }
 769              		.loc 1 858 0 is_stmt 1 discriminator 4
 770 0028 1846     		mov	r0, r3
 771 002a 0C37     		adds	r7, r7, #12
 772              		.cfi_def_cfa_offset 4
 773 002c BD46     		mov	sp, r7
 774              		.cfi_def_cfa_register 13
 775              		@ sp needed
 776 002e 5DF8047B 		ldr	r7, [sp], #4
 777              		.cfi_restore 7
 778              		.cfi_def_cfa_offset 0
 779 0032 7047     		bx	lr
 780              	.L31:
 781              		.align	2
 782              	.L30:
 783 0034 09600040 		.word	1073766409
 784              		.cfi_endproc
 785              	.LFE5:
 786              		.size	USBUART_CheckActivity, .-USBUART_CheckActivity
 787              		.section	.text.USBUART_GetConfiguration,"ax",%progbits
 788              		.align	2
 789              		.global	USBUART_GetConfiguration
 790              		.thumb
 791              		.thumb_func
ARM GAS  C:\Users\Keshuai\AppData\Local\Temp\ccTp3FAZ.s 			page 30


 792              		.type	USBUART_GetConfiguration, %function
 793              	USBUART_GetConfiguration:
 794              	.LFB6:
 859:Generated_Source\PSoC5/USBUART.c **** 
 860:Generated_Source\PSoC5/USBUART.c **** 
 861:Generated_Source\PSoC5/USBUART.c **** /*******************************************************************************
 862:Generated_Source\PSoC5/USBUART.c **** * Function Name: USBUART_GetConfiguration
 863:Generated_Source\PSoC5/USBUART.c **** ****************************************************************************//**
 864:Generated_Source\PSoC5/USBUART.c **** *
 865:Generated_Source\PSoC5/USBUART.c **** *  This function gets the current configuration of the USB device.
 866:Generated_Source\PSoC5/USBUART.c **** *
 867:Generated_Source\PSoC5/USBUART.c **** * \return
 868:Generated_Source\PSoC5/USBUART.c **** *  Returns the currently assigned configuration. Returns 0 if the device
 869:Generated_Source\PSoC5/USBUART.c **** *  is not configured
 870:Generated_Source\PSoC5/USBUART.c **** *
 871:Generated_Source\PSoC5/USBUART.c **** *******************************************************************************/
 872:Generated_Source\PSoC5/USBUART.c **** uint8 USBUART_GetConfiguration(void) 
 873:Generated_Source\PSoC5/USBUART.c **** {
 795              		.loc 1 873 0
 796              		.cfi_startproc
 797              		@ args = 0, pretend = 0, frame = 0
 798              		@ frame_needed = 1, uses_anonymous_args = 0
 799              		@ link register save eliminated.
 800 0000 80B4     		push	{r7}
 801              		.cfi_def_cfa_offset 4
 802              		.cfi_offset 7, -4
 803 0002 00AF     		add	r7, sp, #0
 804              		.cfi_def_cfa_register 7
 874:Generated_Source\PSoC5/USBUART.c ****     return (USBUART_configuration);
 805              		.loc 1 874 0
 806 0004 034B     		ldr	r3, .L34
 807 0006 1B78     		ldrb	r3, [r3]
 808 0008 DBB2     		uxtb	r3, r3
 875:Generated_Source\PSoC5/USBUART.c **** }
 809              		.loc 1 875 0
 810 000a 1846     		mov	r0, r3
 811 000c BD46     		mov	sp, r7
 812              		.cfi_def_cfa_register 13
 813              		@ sp needed
 814 000e 5DF8047B 		ldr	r7, [sp], #4
 815              		.cfi_restore 7
 816              		.cfi_def_cfa_offset 0
 817 0012 7047     		bx	lr
 818              	.L35:
 819              		.align	2
 820              	.L34:
 821 0014 00000000 		.word	USBUART_configuration
 822              		.cfi_endproc
 823              	.LFE6:
 824              		.size	USBUART_GetConfiguration, .-USBUART_GetConfiguration
 825              		.section	.text.USBUART_IsConfigurationChanged,"ax",%progbits
 826              		.align	2
 827              		.global	USBUART_IsConfigurationChanged
 828              		.thumb
 829              		.thumb_func
 830              		.type	USBUART_IsConfigurationChanged, %function
 831              	USBUART_IsConfigurationChanged:
ARM GAS  C:\Users\Keshuai\AppData\Local\Temp\ccTp3FAZ.s 			page 31


 832              	.LFB7:
 876:Generated_Source\PSoC5/USBUART.c **** 
 877:Generated_Source\PSoC5/USBUART.c **** 
 878:Generated_Source\PSoC5/USBUART.c **** /*******************************************************************************
 879:Generated_Source\PSoC5/USBUART.c **** * Function Name: USBUART_IsConfigurationChanged
 880:Generated_Source\PSoC5/USBUART.c **** ****************************************************************************//**
 881:Generated_Source\PSoC5/USBUART.c **** *
 882:Generated_Source\PSoC5/USBUART.c **** *  This function returns the clear-on-read configuration state.  It is useful
 883:Generated_Source\PSoC5/USBUART.c **** *  when the host sends double SET_CONFIGURATION request with the same 
 884:Generated_Source\PSoC5/USBUART.c **** *  configuration number or changes alternate settings of the interface. 
 885:Generated_Source\PSoC5/USBUART.c **** *  After configuration has been changed the OUT endpoints must be enabled and IN 
 886:Generated_Source\PSoC5/USBUART.c **** *  endpoint must be loaded with data to start communication with the host.
 887:Generated_Source\PSoC5/USBUART.c **** *
 888:Generated_Source\PSoC5/USBUART.c **** * \return
 889:Generated_Source\PSoC5/USBUART.c **** *  None-zero value when new configuration has been changed, otherwise zero is
 890:Generated_Source\PSoC5/USBUART.c **** *  returned.
 891:Generated_Source\PSoC5/USBUART.c **** *
 892:Generated_Source\PSoC5/USBUART.c **** * \globalvars
 893:Generated_Source\PSoC5/USBUART.c **** *
 894:Generated_Source\PSoC5/USBUART.c **** *  \ref USBUART_configurationChanged - This variable is set to 1 after
 895:Generated_Source\PSoC5/USBUART.c **** *   a SET_CONFIGURATION request and cleared in this function.
 896:Generated_Source\PSoC5/USBUART.c **** *
 897:Generated_Source\PSoC5/USBUART.c **** *******************************************************************************/
 898:Generated_Source\PSoC5/USBUART.c **** uint8 USBUART_IsConfigurationChanged(void) 
 899:Generated_Source\PSoC5/USBUART.c **** {
 833              		.loc 1 899 0
 834              		.cfi_startproc
 835              		@ args = 0, pretend = 0, frame = 8
 836              		@ frame_needed = 1, uses_anonymous_args = 0
 837              		@ link register save eliminated.
 838 0000 80B4     		push	{r7}
 839              		.cfi_def_cfa_offset 4
 840              		.cfi_offset 7, -4
 841 0002 83B0     		sub	sp, sp, #12
 842              		.cfi_def_cfa_offset 16
 843 0004 00AF     		add	r7, sp, #0
 844              		.cfi_def_cfa_register 7
 900:Generated_Source\PSoC5/USBUART.c ****     uint8 res = 0u;
 845              		.loc 1 900 0
 846 0006 0023     		movs	r3, #0
 847 0008 FB71     		strb	r3, [r7, #7]
 901:Generated_Source\PSoC5/USBUART.c **** 
 902:Generated_Source\PSoC5/USBUART.c ****     if (USBUART_configurationChanged != 0u)
 848              		.loc 1 902 0
 849 000a 094B     		ldr	r3, .L39
 850 000c 1B78     		ldrb	r3, [r3]
 851 000e DBB2     		uxtb	r3, r3
 852 0010 002B     		cmp	r3, #0
 853 0012 05D0     		beq	.L37
 903:Generated_Source\PSoC5/USBUART.c ****     {
 904:Generated_Source\PSoC5/USBUART.c ****         res = USBUART_configurationChanged;
 854              		.loc 1 904 0
 855 0014 064B     		ldr	r3, .L39
 856 0016 1B78     		ldrb	r3, [r3]
 857 0018 FB71     		strb	r3, [r7, #7]
 905:Generated_Source\PSoC5/USBUART.c ****         USBUART_configurationChanged = 0u;
 858              		.loc 1 905 0
ARM GAS  C:\Users\Keshuai\AppData\Local\Temp\ccTp3FAZ.s 			page 32


 859 001a 054B     		ldr	r3, .L39
 860 001c 0022     		movs	r2, #0
 861 001e 1A70     		strb	r2, [r3]
 862              	.L37:
 906:Generated_Source\PSoC5/USBUART.c ****     }
 907:Generated_Source\PSoC5/USBUART.c **** 
 908:Generated_Source\PSoC5/USBUART.c ****     return (res);
 863              		.loc 1 908 0
 864 0020 FB79     		ldrb	r3, [r7, #7]	@ zero_extendqisi2
 909:Generated_Source\PSoC5/USBUART.c **** }
 865              		.loc 1 909 0
 866 0022 1846     		mov	r0, r3
 867 0024 0C37     		adds	r7, r7, #12
 868              		.cfi_def_cfa_offset 4
 869 0026 BD46     		mov	sp, r7
 870              		.cfi_def_cfa_register 13
 871              		@ sp needed
 872 0028 5DF8047B 		ldr	r7, [sp], #4
 873              		.cfi_restore 7
 874              		.cfi_def_cfa_offset 0
 875 002c 7047     		bx	lr
 876              	.L40:
 877 002e 00BF     		.align	2
 878              	.L39:
 879 0030 00000000 		.word	USBUART_configurationChanged
 880              		.cfi_endproc
 881              	.LFE7:
 882              		.size	USBUART_IsConfigurationChanged, .-USBUART_IsConfigurationChanged
 883              		.section	.text.USBUART_GetInterfaceSetting,"ax",%progbits
 884              		.align	2
 885              		.global	USBUART_GetInterfaceSetting
 886              		.thumb
 887              		.thumb_func
 888              		.type	USBUART_GetInterfaceSetting, %function
 889              	USBUART_GetInterfaceSetting:
 890              	.LFB8:
 910:Generated_Source\PSoC5/USBUART.c **** 
 911:Generated_Source\PSoC5/USBUART.c **** 
 912:Generated_Source\PSoC5/USBUART.c **** /*******************************************************************************
 913:Generated_Source\PSoC5/USBUART.c **** * Function Name: USBUART_GetInterfaceSetting
 914:Generated_Source\PSoC5/USBUART.c **** ****************************************************************************//**
 915:Generated_Source\PSoC5/USBUART.c **** *
 916:Generated_Source\PSoC5/USBUART.c **** *  This function gets the current alternate setting for the specified interface.
 917:Generated_Source\PSoC5/USBUART.c **** *  It is useful to identify which alternate settings are active in the specified 
 918:Generated_Source\PSoC5/USBUART.c **** *  interface.
 919:Generated_Source\PSoC5/USBUART.c **** *
 920:Generated_Source\PSoC5/USBUART.c **** *  \param
 921:Generated_Source\PSoC5/USBUART.c **** *  interfaceNumber interface number
 922:Generated_Source\PSoC5/USBUART.c **** *
 923:Generated_Source\PSoC5/USBUART.c **** * \return
 924:Generated_Source\PSoC5/USBUART.c **** *  Returns the current alternate setting for the specified interface.
 925:Generated_Source\PSoC5/USBUART.c **** *
 926:Generated_Source\PSoC5/USBUART.c **** *******************************************************************************/
 927:Generated_Source\PSoC5/USBUART.c **** uint8  USBUART_GetInterfaceSetting(uint8 interfaceNumber)
 928:Generated_Source\PSoC5/USBUART.c ****                                                     
 929:Generated_Source\PSoC5/USBUART.c **** {
 891              		.loc 1 929 0
ARM GAS  C:\Users\Keshuai\AppData\Local\Temp\ccTp3FAZ.s 			page 33


 892              		.cfi_startproc
 893              		@ args = 0, pretend = 0, frame = 8
 894              		@ frame_needed = 1, uses_anonymous_args = 0
 895              		@ link register save eliminated.
 896 0000 80B4     		push	{r7}
 897              		.cfi_def_cfa_offset 4
 898              		.cfi_offset 7, -4
 899 0002 83B0     		sub	sp, sp, #12
 900              		.cfi_def_cfa_offset 16
 901 0004 00AF     		add	r7, sp, #0
 902              		.cfi_def_cfa_register 7
 903 0006 0346     		mov	r3, r0
 904 0008 FB71     		strb	r3, [r7, #7]
 930:Generated_Source\PSoC5/USBUART.c ****     return (USBUART_interfaceSetting[interfaceNumber]);
 905              		.loc 1 930 0
 906 000a FB79     		ldrb	r3, [r7, #7]	@ zero_extendqisi2
 907 000c 044A     		ldr	r2, .L43
 908 000e D35C     		ldrb	r3, [r2, r3]
 909 0010 DBB2     		uxtb	r3, r3
 931:Generated_Source\PSoC5/USBUART.c **** }
 910              		.loc 1 931 0
 911 0012 1846     		mov	r0, r3
 912 0014 0C37     		adds	r7, r7, #12
 913              		.cfi_def_cfa_offset 4
 914 0016 BD46     		mov	sp, r7
 915              		.cfi_def_cfa_register 13
 916              		@ sp needed
 917 0018 5DF8047B 		ldr	r7, [sp], #4
 918              		.cfi_restore 7
 919              		.cfi_def_cfa_offset 0
 920 001c 7047     		bx	lr
 921              	.L44:
 922 001e 00BF     		.align	2
 923              	.L43:
 924 0020 00000000 		.word	USBUART_interfaceSetting
 925              		.cfi_endproc
 926              	.LFE8:
 927              		.size	USBUART_GetInterfaceSetting, .-USBUART_GetInterfaceSetting
 928              		.section	.text.USBUART_GetEPState,"ax",%progbits
 929              		.align	2
 930              		.global	USBUART_GetEPState
 931              		.thumb
 932              		.thumb_func
 933              		.type	USBUART_GetEPState, %function
 934              	USBUART_GetEPState:
 935              	.LFB9:
 932:Generated_Source\PSoC5/USBUART.c **** 
 933:Generated_Source\PSoC5/USBUART.c **** 
 934:Generated_Source\PSoC5/USBUART.c **** /*******************************************************************************
 935:Generated_Source\PSoC5/USBUART.c **** * Function Name: USBUART_GetEPState
 936:Generated_Source\PSoC5/USBUART.c **** ****************************************************************************//**
 937:Generated_Source\PSoC5/USBUART.c **** *
 938:Generated_Source\PSoC5/USBUART.c **** *  This function returns the state of the requested endpoint.
 939:Generated_Source\PSoC5/USBUART.c **** *
 940:Generated_Source\PSoC5/USBUART.c **** * \param epNumber Data endpoint number
 941:Generated_Source\PSoC5/USBUART.c **** *
 942:Generated_Source\PSoC5/USBUART.c **** * \return
ARM GAS  C:\Users\Keshuai\AppData\Local\Temp\ccTp3FAZ.s 			page 34


 943:Generated_Source\PSoC5/USBUART.c **** *  Returns the current state of the specified USBFS endpoint. Symbolic names and
 944:Generated_Source\PSoC5/USBUART.c **** *  their associated values are given in the following table. Use these constants
 945:Generated_Source\PSoC5/USBUART.c **** *  whenever you write code to change the state of the endpoints, such as ISR
 946:Generated_Source\PSoC5/USBUART.c **** *  code, to handle data sent or received.
 947:Generated_Source\PSoC5/USBUART.c **** *
 948:Generated_Source\PSoC5/USBUART.c **** *  Return Value           | Description
 949:Generated_Source\PSoC5/USBUART.c **** *  -----------------------|-----------------------------------------------------
 950:Generated_Source\PSoC5/USBUART.c **** *  USBFS_NO_EVENT_PENDING |The endpoint is awaiting SIE action
 951:Generated_Source\PSoC5/USBUART.c **** *  USBFS_EVENT_PENDING    |The endpoint is awaiting CPU action
 952:Generated_Source\PSoC5/USBUART.c **** *  USBFS_NO_EVENT_ALLOWED |The endpoint is locked from access
 953:Generated_Source\PSoC5/USBUART.c **** *  USBFS_IN_BUFFER_FULL   |The IN endpoint is loaded and the mode is set to ACK IN
 954:Generated_Source\PSoC5/USBUART.c **** *  USBFS_IN_BUFFER_EMPTY  |An IN transaction occurred and more data can be loaded
 955:Generated_Source\PSoC5/USBUART.c **** *  USBFS_OUT_BUFFER_EMPTY |The OUT endpoint is set to ACK OUT and is waiting for data
 956:Generated_Source\PSoC5/USBUART.c **** *  USBFS_OUT_BUFFER_FULL  |An OUT transaction has occurred and data can be read
 957:Generated_Source\PSoC5/USBUART.c **** *
 958:Generated_Source\PSoC5/USBUART.c **** *******************************************************************************/
 959:Generated_Source\PSoC5/USBUART.c **** uint8 USBUART_GetEPState(uint8 epNumber) 
 960:Generated_Source\PSoC5/USBUART.c **** {
 936              		.loc 1 960 0
 937              		.cfi_startproc
 938              		@ args = 0, pretend = 0, frame = 8
 939              		@ frame_needed = 1, uses_anonymous_args = 0
 940              		@ link register save eliminated.
 941 0000 80B4     		push	{r7}
 942              		.cfi_def_cfa_offset 4
 943              		.cfi_offset 7, -4
 944 0002 83B0     		sub	sp, sp, #12
 945              		.cfi_def_cfa_offset 16
 946 0004 00AF     		add	r7, sp, #0
 947              		.cfi_def_cfa_register 7
 948 0006 0346     		mov	r3, r0
 949 0008 FB71     		strb	r3, [r7, #7]
 961:Generated_Source\PSoC5/USBUART.c ****     return (USBUART_EP[epNumber].apiEpState);
 950              		.loc 1 961 0
 951 000a FA79     		ldrb	r2, [r7, #7]	@ zero_extendqisi2
 952 000c 0649     		ldr	r1, .L47
 953 000e 1346     		mov	r3, r2
 954 0010 5B00     		lsls	r3, r3, #1
 955 0012 1344     		add	r3, r3, r2
 956 0014 9B00     		lsls	r3, r3, #2
 957 0016 0B44     		add	r3, r3, r1
 958 0018 5B78     		ldrb	r3, [r3, #1]
 959 001a DBB2     		uxtb	r3, r3
 962:Generated_Source\PSoC5/USBUART.c **** }
 960              		.loc 1 962 0
 961 001c 1846     		mov	r0, r3
 962 001e 0C37     		adds	r7, r7, #12
 963              		.cfi_def_cfa_offset 4
 964 0020 BD46     		mov	sp, r7
 965              		.cfi_def_cfa_register 13
 966              		@ sp needed
 967 0022 5DF8047B 		ldr	r7, [sp], #4
 968              		.cfi_restore 7
 969              		.cfi_def_cfa_offset 0
 970 0026 7047     		bx	lr
 971              	.L48:
 972              		.align	2
ARM GAS  C:\Users\Keshuai\AppData\Local\Temp\ccTp3FAZ.s 			page 35


 973              	.L47:
 974 0028 00000000 		.word	USBUART_EP
 975              		.cfi_endproc
 976              	.LFE9:
 977              		.size	USBUART_GetEPState, .-USBUART_GetEPState
 978              		.section	.text.USBUART_GetEPCount,"ax",%progbits
 979              		.align	2
 980              		.global	USBUART_GetEPCount
 981              		.thumb
 982              		.thumb_func
 983              		.type	USBUART_GetEPCount, %function
 984              	USBUART_GetEPCount:
 985              	.LFB10:
 963:Generated_Source\PSoC5/USBUART.c **** 
 964:Generated_Source\PSoC5/USBUART.c **** 
 965:Generated_Source\PSoC5/USBUART.c **** /*******************************************************************************
 966:Generated_Source\PSoC5/USBUART.c **** * Function Name: USBUART_GetEPCount
 967:Generated_Source\PSoC5/USBUART.c **** ****************************************************************************//**
 968:Generated_Source\PSoC5/USBUART.c **** *
 969:Generated_Source\PSoC5/USBUART.c **** *  This function supports Data Endpoints only(EP1-EP8).
 970:Generated_Source\PSoC5/USBUART.c **** *  Returns the transfer count for the requested endpoint.  The value from
 971:Generated_Source\PSoC5/USBUART.c **** *  the count registers includes 2 counts for the two byte checksum of the
 972:Generated_Source\PSoC5/USBUART.c **** *  packet.  This function subtracts the two counts.
 973:Generated_Source\PSoC5/USBUART.c **** *
 974:Generated_Source\PSoC5/USBUART.c **** *  \param epNumber Data Endpoint Number.
 975:Generated_Source\PSoC5/USBUART.c **** *                   Valid values are between 1 and 8.
 976:Generated_Source\PSoC5/USBUART.c **** *
 977:Generated_Source\PSoC5/USBUART.c **** * \return
 978:Generated_Source\PSoC5/USBUART.c **** *  Returns the current byte count from the specified endpoint or 0 for an
 979:Generated_Source\PSoC5/USBUART.c **** *  invalid endpoint.
 980:Generated_Source\PSoC5/USBUART.c **** *
 981:Generated_Source\PSoC5/USBUART.c **** *******************************************************************************/
 982:Generated_Source\PSoC5/USBUART.c **** uint16 USBUART_GetEPCount(uint8 epNumber) 
 983:Generated_Source\PSoC5/USBUART.c **** {
 986              		.loc 1 983 0
 987              		.cfi_startproc
 988              		@ args = 0, pretend = 0, frame = 16
 989              		@ frame_needed = 1, uses_anonymous_args = 0
 990              		@ link register save eliminated.
 991 0000 80B4     		push	{r7}
 992              		.cfi_def_cfa_offset 4
 993              		.cfi_offset 7, -4
 994 0002 85B0     		sub	sp, sp, #20
 995              		.cfi_def_cfa_offset 24
 996 0004 00AF     		add	r7, sp, #0
 997              		.cfi_def_cfa_register 7
 998 0006 0346     		mov	r3, r0
 999 0008 FB71     		strb	r3, [r7, #7]
 984:Generated_Source\PSoC5/USBUART.c ****     uint16 cntr = 0u;
 1000              		.loc 1 984 0
 1001 000a 0023     		movs	r3, #0
 1002 000c FB81     		strh	r3, [r7, #14]	@ movhi
 985:Generated_Source\PSoC5/USBUART.c **** 
 986:Generated_Source\PSoC5/USBUART.c ****     if ((epNumber > USBUART_EP0) && (epNumber < USBUART_MAX_EP))
 1003              		.loc 1 986 0
 1004 000e FB79     		ldrb	r3, [r7, #7]	@ zero_extendqisi2
 1005 0010 002B     		cmp	r3, #0
ARM GAS  C:\Users\Keshuai\AppData\Local\Temp\ccTp3FAZ.s 			page 36


 1006 0012 1BD0     		beq	.L50
 1007              		.loc 1 986 0 is_stmt 0 discriminator 1
 1008 0014 FB79     		ldrb	r3, [r7, #7]	@ zero_extendqisi2
 1009 0016 082B     		cmp	r3, #8
 1010 0018 18D8     		bhi	.L50
 987:Generated_Source\PSoC5/USBUART.c ****     {
 988:Generated_Source\PSoC5/USBUART.c ****         /* Get 11-bits EP counter where epCnt0 - 3 bits MSB and epCnt1 - 8 bits LSB. */
 989:Generated_Source\PSoC5/USBUART.c ****         cntr  = ((uint16) USBUART_SIE_EP_BASE.sieEp[epNumber].epCnt0) & USBUART_EPX_CNT0_MASK;
 1011              		.loc 1 989 0 is_stmt 1
 1012 001a 104A     		ldr	r2, .L52
 1013 001c FB79     		ldrb	r3, [r7, #7]	@ zero_extendqisi2
 1014 001e 1B01     		lsls	r3, r3, #4
 1015 0020 1344     		add	r3, r3, r2
 1016 0022 1B78     		ldrb	r3, [r3]
 1017 0024 DBB2     		uxtb	r3, r3
 1018 0026 9BB2     		uxth	r3, r3
 1019 0028 03F00F03 		and	r3, r3, #15
 1020 002c FB81     		strh	r3, [r7, #14]	@ movhi
 990:Generated_Source\PSoC5/USBUART.c ****         cntr  = ((uint16) (cntr << 8u)) | ((uint16) USBUART_SIE_EP_BASE.sieEp[epNumber].epCnt1);
 1021              		.loc 1 990 0
 1022 002e FB89     		ldrh	r3, [r7, #14]	@ movhi
 1023 0030 1B02     		lsls	r3, r3, #8
 1024 0032 9AB2     		uxth	r2, r3
 1025 0034 0949     		ldr	r1, .L52
 1026 0036 FB79     		ldrb	r3, [r7, #7]	@ zero_extendqisi2
 1027 0038 1B01     		lsls	r3, r3, #4
 1028 003a 0B44     		add	r3, r3, r1
 1029 003c 5B78     		ldrb	r3, [r3, #1]
 1030 003e DBB2     		uxtb	r3, r3
 1031 0040 9BB2     		uxth	r3, r3
 1032 0042 1343     		orrs	r3, r3, r2
 1033 0044 FB81     		strh	r3, [r7, #14]	@ movhi
 991:Generated_Source\PSoC5/USBUART.c ****         cntr -= USBUART_EPX_CNTX_CRC_COUNT;
 1034              		.loc 1 991 0
 1035 0046 FB89     		ldrh	r3, [r7, #14]	@ movhi
 1036 0048 023B     		subs	r3, r3, #2
 1037 004a FB81     		strh	r3, [r7, #14]	@ movhi
 1038              	.L50:
 992:Generated_Source\PSoC5/USBUART.c ****     }
 993:Generated_Source\PSoC5/USBUART.c **** 
 994:Generated_Source\PSoC5/USBUART.c ****     return (cntr);
 1039              		.loc 1 994 0
 1040 004c FB89     		ldrh	r3, [r7, #14]
 995:Generated_Source\PSoC5/USBUART.c **** }
 1041              		.loc 1 995 0
 1042 004e 1846     		mov	r0, r3
 1043 0050 1437     		adds	r7, r7, #20
 1044              		.cfi_def_cfa_offset 4
 1045 0052 BD46     		mov	sp, r7
 1046              		.cfi_def_cfa_register 13
 1047              		@ sp needed
 1048 0054 5DF8047B 		ldr	r7, [sp], #4
 1049              		.cfi_restore 7
 1050              		.cfi_def_cfa_offset 0
 1051 0058 7047     		bx	lr
 1052              	.L53:
 1053 005a 00BF     		.align	2
ARM GAS  C:\Users\Keshuai\AppData\Local\Temp\ccTp3FAZ.s 			page 37


 1054              	.L52:
 1055 005c FC5F0040 		.word	1073766396
 1056              		.cfi_endproc
 1057              	.LFE10:
 1058              		.size	USBUART_GetEPCount, .-USBUART_GetEPCount
 1059              		.section	.text.USBUART_LoadInEP,"ax",%progbits
 1060              		.align	2
 1061              		.global	USBUART_LoadInEP
 1062              		.thumb
 1063              		.thumb_func
 1064              		.type	USBUART_LoadInEP, %function
 1065              	USBUART_LoadInEP:
 1066              	.LFB11:
 996:Generated_Source\PSoC5/USBUART.c **** 
 997:Generated_Source\PSoC5/USBUART.c **** 
 998:Generated_Source\PSoC5/USBUART.c **** #if (USBUART_EP_MANAGEMENT_DMA)
 999:Generated_Source\PSoC5/USBUART.c **** #if (CY_PSOC4)
1000:Generated_Source\PSoC5/USBUART.c ****     /*******************************************************************************
1001:Generated_Source\PSoC5/USBUART.c ****     * Function Name: USBUART_InitEpDma
1002:Generated_Source\PSoC5/USBUART.c ****     ****************************************************************************//**
1003:Generated_Source\PSoC5/USBUART.c ****     *
1004:Generated_Source\PSoC5/USBUART.c ****     *  This function configures priority for all DMA channels utilized by the
1005:Generated_Source\PSoC5/USBUART.c ****     *  component. Also sets callbacks for DMA auto mode.
1006:Generated_Source\PSoC5/USBUART.c ****     *
1007:Generated_Source\PSoC5/USBUART.c ****     *******************************************************************************/
1008:Generated_Source\PSoC5/USBUART.c ****     static void USBUART_InitEpDma(void)
1009:Generated_Source\PSoC5/USBUART.c ****     {
1010:Generated_Source\PSoC5/USBUART.c ****     #if (USBUART_DMA1_ACTIVE)
1011:Generated_Source\PSoC5/USBUART.c ****         CYDMA_CH_CTL_BASE.ctl[USBUART_ep1_dma_CHANNEL] = USBUART_ep1_dma_CHANNEL_CFG;
1012:Generated_Source\PSoC5/USBUART.c ****     #endif /* (USBUART_DMA1_ACTIVE) */
1013:Generated_Source\PSoC5/USBUART.c **** 
1014:Generated_Source\PSoC5/USBUART.c ****     #if (USBUART_DMA2_ACTIVE)
1015:Generated_Source\PSoC5/USBUART.c ****         CYDMA_CH_CTL_BASE.ctl[USBUART_ep2_dma_CHANNEL] = USBUART_ep2_dma_CHANNEL_CFG;
1016:Generated_Source\PSoC5/USBUART.c ****     #endif /* (USBUART_DMA2_ACTIVE) */
1017:Generated_Source\PSoC5/USBUART.c **** 
1018:Generated_Source\PSoC5/USBUART.c ****     #if (USBUART_DMA3_ACTIVE)
1019:Generated_Source\PSoC5/USBUART.c ****         CYDMA_CH_CTL_BASE.ctl[USBUART_ep3_dma_CHANNEL] = USBUART_ep3_dma_CHANNEL_CFG;
1020:Generated_Source\PSoC5/USBUART.c ****     #endif /* (USBUART_DMA3_ACTIVE) */
1021:Generated_Source\PSoC5/USBUART.c **** 
1022:Generated_Source\PSoC5/USBUART.c ****     #if (USBUART_DMA4_ACTIVE)
1023:Generated_Source\PSoC5/USBUART.c ****         CYDMA_CH_CTL_BASE.ctl[USBUART_ep4_dma_CHANNEL] = USBUART_ep4_dma_CHANNEL_CFG;
1024:Generated_Source\PSoC5/USBUART.c ****     #endif /* (USBUART_DMA4_ACTIVE) */
1025:Generated_Source\PSoC5/USBUART.c **** 
1026:Generated_Source\PSoC5/USBUART.c ****     #if (USBUART_DMA5_ACTIVE)
1027:Generated_Source\PSoC5/USBUART.c ****         CYDMA_CH_CTL_BASE.ctl[USBUART_ep5_dma_CHANNEL] = USBUART_ep5_dma_CHANNEL_CFG;
1028:Generated_Source\PSoC5/USBUART.c ****     #endif /* (USBUART_DMA5_ACTIVE) */
1029:Generated_Source\PSoC5/USBUART.c **** 
1030:Generated_Source\PSoC5/USBUART.c ****     #if (USBUART_DMA6_ACTIVE)
1031:Generated_Source\PSoC5/USBUART.c ****         CYDMA_CH_CTL_BASE.ctl[USBUART_ep6_dma_CHANNEL] = USBUART_ep6_dma_CHANNEL_CFG;
1032:Generated_Source\PSoC5/USBUART.c ****     #endif /* (USBUART_DMA6_ACTIVE) */
1033:Generated_Source\PSoC5/USBUART.c **** 
1034:Generated_Source\PSoC5/USBUART.c ****     #if (USBUART_DMA7_ACTIVE)
1035:Generated_Source\PSoC5/USBUART.c ****         CYDMA_CH_CTL_BASE.ctl[USBUART_ep7_dma_CHANNEL] = USBUART_ep7_dma_CHANNEL_CFG;
1036:Generated_Source\PSoC5/USBUART.c ****     #endif /* (USBUART_DMA7_ACTIVE) */
1037:Generated_Source\PSoC5/USBUART.c **** 
1038:Generated_Source\PSoC5/USBUART.c ****     #if (USBUART_DMA8_ACTIVE)
1039:Generated_Source\PSoC5/USBUART.c ****         CYDMA_CH_CTL_BASE.ctl[USBUART_ep8_dma_CHANNEL] = USBUART_ep8_dma_CHANNEL_CFG;
ARM GAS  C:\Users\Keshuai\AppData\Local\Temp\ccTp3FAZ.s 			page 38


1040:Generated_Source\PSoC5/USBUART.c ****     #endif /* (USBUART_DMA8_ACTIVE) */
1041:Generated_Source\PSoC5/USBUART.c **** 
1042:Generated_Source\PSoC5/USBUART.c ****     #if (USBUART_EP_MANAGEMENT_DMA_AUTO)
1043:Generated_Source\PSoC5/USBUART.c ****         /* Initialize DMA channel callbacks. */
1044:Generated_Source\PSoC5/USBUART.c ****         #if (USBUART_DMA1_ACTIVE)
1045:Generated_Source\PSoC5/USBUART.c ****             (void) USBUART_ep1_dma_SetInterruptCallback(&USBUART_EP1_DMA_DONE_ISR);
1046:Generated_Source\PSoC5/USBUART.c ****         #endif /* (USBUART_DMA1_ACTIVE) */
1047:Generated_Source\PSoC5/USBUART.c **** 
1048:Generated_Source\PSoC5/USBUART.c ****         #if (USBUART_DMA2_ACTIVE)
1049:Generated_Source\PSoC5/USBUART.c ****             (void) USBUART_ep2_dma_SetInterruptCallback(&USBUART_EP2_DMA_DONE_ISR);
1050:Generated_Source\PSoC5/USBUART.c ****         #endif /* (USBUART_DMA2_ACTIVE) */
1051:Generated_Source\PSoC5/USBUART.c **** 
1052:Generated_Source\PSoC5/USBUART.c ****         #if (USBUART_DMA3_ACTIVE)
1053:Generated_Source\PSoC5/USBUART.c ****             (void) USBUART_ep3_dma_SetInterruptCallback(&USBUART_EP3_DMA_DONE_ISR);
1054:Generated_Source\PSoC5/USBUART.c ****         #endif /* (USBUART_DMA3_ACTIVE) */
1055:Generated_Source\PSoC5/USBUART.c **** 
1056:Generated_Source\PSoC5/USBUART.c ****         #if (USBUART_DMA4_ACTIVE)
1057:Generated_Source\PSoC5/USBUART.c ****             (void) USBUART_ep4_dma_SetInterruptCallback(&USBUART_EP4_DMA_DONE_ISR);
1058:Generated_Source\PSoC5/USBUART.c ****         #endif /* (USBUART_DMA4_ACTIVE) */
1059:Generated_Source\PSoC5/USBUART.c **** 
1060:Generated_Source\PSoC5/USBUART.c ****         #if (USBUART_DMA5_ACTIVE)
1061:Generated_Source\PSoC5/USBUART.c ****             (void) USBUART_ep5_dma_SetInterruptCallback(&USBUART_EP5_DMA_DONE_ISR);
1062:Generated_Source\PSoC5/USBUART.c ****         #endif /* (USBUART_DMA5_ACTIVE) */
1063:Generated_Source\PSoC5/USBUART.c **** 
1064:Generated_Source\PSoC5/USBUART.c ****         #if (USBUART_DMA6_ACTIVE)
1065:Generated_Source\PSoC5/USBUART.c ****             (void) USBUART_ep6_dma_SetInterruptCallback(&USBUART_EP6_DMA_DONE_ISR);
1066:Generated_Source\PSoC5/USBUART.c ****         #endif /* (USBUART_DMA6_ACTIVE) */
1067:Generated_Source\PSoC5/USBUART.c **** 
1068:Generated_Source\PSoC5/USBUART.c ****         #if (USBUART_DMA7_ACTIVE)
1069:Generated_Source\PSoC5/USBUART.c ****             (void) USBUART_ep7_dma_SetInterruptCallback(&USBUART_EP7_DMA_DONE_ISR);
1070:Generated_Source\PSoC5/USBUART.c ****         #endif /* (USBUART_DMA7_ACTIVE) */
1071:Generated_Source\PSoC5/USBUART.c **** 
1072:Generated_Source\PSoC5/USBUART.c ****         #if (USBUART_DMA8_ACTIVE)
1073:Generated_Source\PSoC5/USBUART.c ****             (void) USBUART_ep8_dma_SetInterruptCallback(&USBUART_EP8_DMA_DONE_ISR);
1074:Generated_Source\PSoC5/USBUART.c ****         #endif /* (USBUART_DMA8_ACTIVE) */
1075:Generated_Source\PSoC5/USBUART.c ****     #endif /* (USBUART_EP_MANAGEMENT_DMA_AUTO) */
1076:Generated_Source\PSoC5/USBUART.c ****     }
1077:Generated_Source\PSoC5/USBUART.c **** #else
1078:Generated_Source\PSoC5/USBUART.c **** 
1079:Generated_Source\PSoC5/USBUART.c **** 
1080:Generated_Source\PSoC5/USBUART.c ****     /***************************************************************************
1081:Generated_Source\PSoC5/USBUART.c ****     * Function Name: USBUART_InitEP_DMA
1082:Generated_Source\PSoC5/USBUART.c ****     ************************************************************************//**
1083:Generated_Source\PSoC5/USBUART.c ****     *
1084:Generated_Source\PSoC5/USBUART.c ****     *  This function allocates and initializes a DMA channel to be used by the
1085:Generated_Source\PSoC5/USBUART.c ****     *  USBUART_LoadInEP() or USBUART_ReadOutEP() APIs for data
1086:Generated_Source\PSoC5/USBUART.c ****     *  transfer. It is available when the Endpoint Memory Management parameter
1087:Generated_Source\PSoC5/USBUART.c ****     *  is set to DMA.
1088:Generated_Source\PSoC5/USBUART.c ****     *
1089:Generated_Source\PSoC5/USBUART.c ****     *  This function is automatically called from the USBFS_LoadInEP() and USBFS_ReadOutEP() APIs.
1090:Generated_Source\PSoC5/USBUART.c ****     *
1091:Generated_Source\PSoC5/USBUART.c ****     *  \param epNumber Contains the data endpoint number.
1092:Generated_Source\PSoC5/USBUART.c ****     *            Valid values are between 1 and 8.
1093:Generated_Source\PSoC5/USBUART.c ****     *  \param *pData Pointer to a data array that is related to the EP transfers.
1094:Generated_Source\PSoC5/USBUART.c ****     *
1095:Generated_Source\PSoC5/USBUART.c ****     * \reentrant No.
1096:Generated_Source\PSoC5/USBUART.c ****     *
ARM GAS  C:\Users\Keshuai\AppData\Local\Temp\ccTp3FAZ.s 			page 39


1097:Generated_Source\PSoC5/USBUART.c ****     ***************************************************************************/
1098:Generated_Source\PSoC5/USBUART.c ****     void USBUART_InitEP_DMA(uint8 epNumber, const uint8 *pData)
1099:Generated_Source\PSoC5/USBUART.c ****                                                                     
1100:Generated_Source\PSoC5/USBUART.c ****     {
1101:Generated_Source\PSoC5/USBUART.c ****         uint16 src;
1102:Generated_Source\PSoC5/USBUART.c ****         uint16 dst;
1103:Generated_Source\PSoC5/USBUART.c **** 
1104:Generated_Source\PSoC5/USBUART.c ****     #if (CY_PSOC3)
1105:Generated_Source\PSoC5/USBUART.c ****         src = HI16(CYDEV_SRAM_BASE);
1106:Generated_Source\PSoC5/USBUART.c ****         dst = HI16(CYDEV_PERIPH_BASE);
1107:Generated_Source\PSoC5/USBUART.c ****         pData = pData;
1108:Generated_Source\PSoC5/USBUART.c ****     #else
1109:Generated_Source\PSoC5/USBUART.c ****         if ((USBUART_EP[epNumber].addr & USBUART_DIR_IN) != 0u)
1110:Generated_Source\PSoC5/USBUART.c ****         {
1111:Generated_Source\PSoC5/USBUART.c ****             /* IN endpoint: source is memory buffer. */
1112:Generated_Source\PSoC5/USBUART.c ****             src = HI16(pData);
1113:Generated_Source\PSoC5/USBUART.c ****             dst = HI16(CYDEV_PERIPH_BASE);
1114:Generated_Source\PSoC5/USBUART.c ****         }
1115:Generated_Source\PSoC5/USBUART.c ****         else
1116:Generated_Source\PSoC5/USBUART.c ****         {
1117:Generated_Source\PSoC5/USBUART.c ****             /* OUT endpoint: source is USB IP memory buffer. */
1118:Generated_Source\PSoC5/USBUART.c ****             src = HI16(CYDEV_PERIPH_BASE);
1119:Generated_Source\PSoC5/USBUART.c ****             dst = HI16(pData);
1120:Generated_Source\PSoC5/USBUART.c ****         }
1121:Generated_Source\PSoC5/USBUART.c ****     #endif  /* (CY_PSOC3) */
1122:Generated_Source\PSoC5/USBUART.c **** 
1123:Generated_Source\PSoC5/USBUART.c ****         switch(epNumber)
1124:Generated_Source\PSoC5/USBUART.c ****         {
1125:Generated_Source\PSoC5/USBUART.c ****     #if (USBUART_DMA1_ACTIVE)
1126:Generated_Source\PSoC5/USBUART.c ****         case USBUART_EP1:
1127:Generated_Source\PSoC5/USBUART.c ****             USBUART_DmaChan[epNumber] = USBUART_ep1_DmaInitialize(USBUART_DMA_BYTES_PER_BURST,
1128:Generated_Source\PSoC5/USBUART.c ****                                                                                     USBUART_DMA_REQ
1129:Generated_Source\PSoC5/USBUART.c ****             break;
1130:Generated_Source\PSoC5/USBUART.c ****     #endif /* (USBUART_DMA1_ACTIVE) */
1131:Generated_Source\PSoC5/USBUART.c **** 
1132:Generated_Source\PSoC5/USBUART.c ****     #if (USBUART_DMA2_ACTIVE)
1133:Generated_Source\PSoC5/USBUART.c ****         case USBUART_EP2:
1134:Generated_Source\PSoC5/USBUART.c ****             USBUART_DmaChan[epNumber] = USBUART_ep2_DmaInitialize(USBUART_DMA_BYTES_PER_BURST,
1135:Generated_Source\PSoC5/USBUART.c ****                                                                                     USBUART_DMA_REQ
1136:Generated_Source\PSoC5/USBUART.c ****             break;
1137:Generated_Source\PSoC5/USBUART.c ****     #endif /* (USBUART_DMA2_ACTIVE) */
1138:Generated_Source\PSoC5/USBUART.c **** 
1139:Generated_Source\PSoC5/USBUART.c ****     #if (USBUART_DMA3_ACTIVE)
1140:Generated_Source\PSoC5/USBUART.c ****             case USBUART_EP3:
1141:Generated_Source\PSoC5/USBUART.c ****                 USBUART_DmaChan[epNumber] = USBUART_ep3_DmaInitialize(USBUART_DMA_BYTES_PER_BURST,
1142:Generated_Source\PSoC5/USBUART.c ****                                                                                         USBUART_DMA
1143:Generated_Source\PSoC5/USBUART.c ****             break;
1144:Generated_Source\PSoC5/USBUART.c ****     #endif /* (USBUART_DMA3_ACTIVE) */
1145:Generated_Source\PSoC5/USBUART.c **** 
1146:Generated_Source\PSoC5/USBUART.c ****     #if (USBUART_DMA4_ACTIVE)
1147:Generated_Source\PSoC5/USBUART.c ****             case USBUART_EP4:
1148:Generated_Source\PSoC5/USBUART.c ****                 USBUART_DmaChan[epNumber] = USBUART_ep4_DmaInitialize(USBUART_DMA_BYTES_PER_BURST,
1149:Generated_Source\PSoC5/USBUART.c ****                                                                                         USBUART_DMA
1150:Generated_Source\PSoC5/USBUART.c ****             break;
1151:Generated_Source\PSoC5/USBUART.c ****     #endif /* (USBUART_DMA4_ACTIVE) */
1152:Generated_Source\PSoC5/USBUART.c **** 
1153:Generated_Source\PSoC5/USBUART.c ****     #if (USBUART_DMA5_ACTIVE)
ARM GAS  C:\Users\Keshuai\AppData\Local\Temp\ccTp3FAZ.s 			page 40


1154:Generated_Source\PSoC5/USBUART.c ****             case USBUART_EP5:
1155:Generated_Source\PSoC5/USBUART.c ****                 USBUART_DmaChan[epNumber] = USBUART_ep5_DmaInitialize(USBUART_DMA_BYTES_PER_BURST,
1156:Generated_Source\PSoC5/USBUART.c ****                                                                                         USBUART_DMA
1157:Generated_Source\PSoC5/USBUART.c ****             break;
1158:Generated_Source\PSoC5/USBUART.c ****     #endif /* (USBUART_DMA5_ACTIVE) */
1159:Generated_Source\PSoC5/USBUART.c **** 
1160:Generated_Source\PSoC5/USBUART.c ****     #if (USBUART_DMA6_ACTIVE)
1161:Generated_Source\PSoC5/USBUART.c ****         case USBUART_EP6:
1162:Generated_Source\PSoC5/USBUART.c ****             USBUART_DmaChan[epNumber] = USBUART_ep6_DmaInitialize(USBUART_DMA_BYTES_PER_BURST,
1163:Generated_Source\PSoC5/USBUART.c ****                                                                                     USBUART_DMA_REQ
1164:Generated_Source\PSoC5/USBUART.c ****             break;
1165:Generated_Source\PSoC5/USBUART.c ****     #endif /* (USBUART_DMA6_ACTIVE) */
1166:Generated_Source\PSoC5/USBUART.c **** 
1167:Generated_Source\PSoC5/USBUART.c ****     #if (USBUART_DMA7_ACTIVE)
1168:Generated_Source\PSoC5/USBUART.c ****         case USBUART_EP7:
1169:Generated_Source\PSoC5/USBUART.c ****                 USBUART_DmaChan[epNumber] = USBUART_ep7_DmaInitialize(USBUART_DMA_BYTES_PER_BURST,
1170:Generated_Source\PSoC5/USBUART.c ****                                                                                         USBUART_DMA
1171:Generated_Source\PSoC5/USBUART.c ****             break;
1172:Generated_Source\PSoC5/USBUART.c ****     #endif /* (USBUART_DMA7_ACTIVE) */
1173:Generated_Source\PSoC5/USBUART.c **** 
1174:Generated_Source\PSoC5/USBUART.c ****     #if (USBUART_DMA8_ACTIVE)
1175:Generated_Source\PSoC5/USBUART.c ****         case USBUART_EP8:
1176:Generated_Source\PSoC5/USBUART.c ****                 USBUART_DmaChan[epNumber] = USBUART_ep8_DmaInitialize(USBUART_DMA_BYTES_PER_BURST,
1177:Generated_Source\PSoC5/USBUART.c ****                                                                                         USBUART_DMA
1178:Generated_Source\PSoC5/USBUART.c ****             break;
1179:Generated_Source\PSoC5/USBUART.c ****     #endif /* (USBUART_DMA8_ACTIVE) */
1180:Generated_Source\PSoC5/USBUART.c **** 
1181:Generated_Source\PSoC5/USBUART.c ****         default:
1182:Generated_Source\PSoC5/USBUART.c ****             /* Do nothing for endpoints other than 1-8. */
1183:Generated_Source\PSoC5/USBUART.c ****             break;
1184:Generated_Source\PSoC5/USBUART.c ****         }
1185:Generated_Source\PSoC5/USBUART.c **** 
1186:Generated_Source\PSoC5/USBUART.c ****         if ((epNumber > USBUART_EP0) && (epNumber < USBUART_MAX_EP))
1187:Generated_Source\PSoC5/USBUART.c ****         {
1188:Generated_Source\PSoC5/USBUART.c ****             USBUART_DmaTd[epNumber] = CyDmaTdAllocate();
1189:Generated_Source\PSoC5/USBUART.c **** 
1190:Generated_Source\PSoC5/USBUART.c ****         #if (USBUART_EP_MANAGEMENT_DMA_AUTO && (USBUART_EP_DMA_AUTO_OPT == 0u))
1191:Generated_Source\PSoC5/USBUART.c ****             USBUART_DmaNextTd[epNumber] = CyDmaTdAllocate();
1192:Generated_Source\PSoC5/USBUART.c ****         #endif /* (USBUART_EP_MANAGEMENT_DMA_AUTO && (USBUART_EP_DMA_AUTO_OPT == 0u)) */
1193:Generated_Source\PSoC5/USBUART.c ****         }
1194:Generated_Source\PSoC5/USBUART.c ****     }
1195:Generated_Source\PSoC5/USBUART.c **** #endif /* (CY_PSOC4) */
1196:Generated_Source\PSoC5/USBUART.c **** 
1197:Generated_Source\PSoC5/USBUART.c ****     /***************************************************************************
1198:Generated_Source\PSoC5/USBUART.c ****     * Function Name: USBUART_Stop_DMA
1199:Generated_Source\PSoC5/USBUART.c ****     ************************************************************************//**
1200:Generated_Source\PSoC5/USBUART.c ****     *  
1201:Generated_Source\PSoC5/USBUART.c ****     *  This function stops DMA channel associated with endpoint. It is available 
1202:Generated_Source\PSoC5/USBUART.c ****     *  when the Endpoint Buffer Management parameter is set to DMA. Call this 
1203:Generated_Source\PSoC5/USBUART.c ****     *  function when endpoint direction is changed from IN to OUT or vice versa 
1204:Generated_Source\PSoC5/USBUART.c ****     *  to trigger DMA re-configuration when USBUART_LoadInEP() or 
1205:Generated_Source\PSoC5/USBUART.c ****     *  USBUART_ReadOutEP() functions are called the first time. 
1206:Generated_Source\PSoC5/USBUART.c ****     *  
1207:Generated_Source\PSoC5/USBUART.c ****     *  \param epNumber: The data endpoint number for which associated DMA 
1208:Generated_Source\PSoC5/USBUART.c ****     *  channel is stopped. The range of valid values is between 1 and 8. To stop 
1209:Generated_Source\PSoC5/USBUART.c ****     *  all DMAs associated with endpoints call this function with 
1210:Generated_Source\PSoC5/USBUART.c ****     *  USBUART_MAX_EP argument.
ARM GAS  C:\Users\Keshuai\AppData\Local\Temp\ccTp3FAZ.s 			page 41


1211:Generated_Source\PSoC5/USBUART.c ****     *
1212:Generated_Source\PSoC5/USBUART.c ****     * \reentrant
1213:Generated_Source\PSoC5/USBUART.c ****     *  No.
1214:Generated_Source\PSoC5/USBUART.c ****     *
1215:Generated_Source\PSoC5/USBUART.c ****     ***************************************************************************/
1216:Generated_Source\PSoC5/USBUART.c ****     void USBUART_Stop_DMA(uint8 epNumber) 
1217:Generated_Source\PSoC5/USBUART.c ****     {
1218:Generated_Source\PSoC5/USBUART.c ****         uint8 i;
1219:Generated_Source\PSoC5/USBUART.c **** 
1220:Generated_Source\PSoC5/USBUART.c ****         i = (epNumber < USBUART_MAX_EP) ? epNumber : USBUART_EP1;
1221:Generated_Source\PSoC5/USBUART.c **** 
1222:Generated_Source\PSoC5/USBUART.c ****         do
1223:Generated_Source\PSoC5/USBUART.c ****         {
1224:Generated_Source\PSoC5/USBUART.c ****         #if (CY_PSOC4)
1225:Generated_Source\PSoC5/USBUART.c ****             if (0u != USBUART_DmaChan[i])
1226:Generated_Source\PSoC5/USBUART.c ****             {
1227:Generated_Source\PSoC5/USBUART.c ****                 USBUART_CyDmaChDisable(USBUART_DmaChan[i]);
1228:Generated_Source\PSoC5/USBUART.c ****             }
1229:Generated_Source\PSoC5/USBUART.c ****         #else
1230:Generated_Source\PSoC5/USBUART.c ****             if(USBUART_DmaTd[i] != DMA_INVALID_TD)
1231:Generated_Source\PSoC5/USBUART.c ****             {
1232:Generated_Source\PSoC5/USBUART.c ****                 (void) CyDmaChDisable(USBUART_DmaChan[i]);
1233:Generated_Source\PSoC5/USBUART.c ****                 CyDmaTdFree(USBUART_DmaTd[i]);
1234:Generated_Source\PSoC5/USBUART.c ****                 USBUART_DmaTd[i] = DMA_INVALID_TD;
1235:Generated_Source\PSoC5/USBUART.c ****             }
1236:Generated_Source\PSoC5/USBUART.c **** 
1237:Generated_Source\PSoC5/USBUART.c ****             #if (USBUART_EP_MANAGEMENT_DMA_AUTO && (USBUART_EP_DMA_AUTO_OPT == 0u))
1238:Generated_Source\PSoC5/USBUART.c ****                 if(USBUART_DmaNextTd[i] != DMA_INVALID_TD)
1239:Generated_Source\PSoC5/USBUART.c ****                 {
1240:Generated_Source\PSoC5/USBUART.c ****                     CyDmaTdFree(USBUART_DmaNextTd[i]);
1241:Generated_Source\PSoC5/USBUART.c ****                     USBUART_DmaNextTd[i] = DMA_INVALID_TD;
1242:Generated_Source\PSoC5/USBUART.c ****                 }
1243:Generated_Source\PSoC5/USBUART.c ****             #endif /* (USBUART_EP_MANAGEMENT_DMA_AUTO && (USBUART_EP_DMA_AUTO_OPT == 0u)) */
1244:Generated_Source\PSoC5/USBUART.c **** 
1245:Generated_Source\PSoC5/USBUART.c ****         #endif /* (CY_PSOC4) */
1246:Generated_Source\PSoC5/USBUART.c ****             i++;
1247:Generated_Source\PSoC5/USBUART.c ****         }
1248:Generated_Source\PSoC5/USBUART.c ****         while ((i < USBUART_MAX_EP) && (epNumber == USBUART_MAX_EP));
1249:Generated_Source\PSoC5/USBUART.c ****     }
1250:Generated_Source\PSoC5/USBUART.c **** #endif /* (USBUART_EP_MANAGEMENT_DMA) */
1251:Generated_Source\PSoC5/USBUART.c **** 
1252:Generated_Source\PSoC5/USBUART.c **** 
1253:Generated_Source\PSoC5/USBUART.c **** #if (CY_PSOC3 || CY_PSOC5)
1254:Generated_Source\PSoC5/USBUART.c **** #if (USBUART_EP_MANAGEMENT_DMA_AUTO && (USBUART_EP_DMA_AUTO_OPT == 0u))
1255:Generated_Source\PSoC5/USBUART.c ****     /***************************************************************************
1256:Generated_Source\PSoC5/USBUART.c ****     * Function Name: USBUART_LoadNextInEP
1257:Generated_Source\PSoC5/USBUART.c ****     ************************************************************************//**
1258:Generated_Source\PSoC5/USBUART.c ****     *
1259:Generated_Source\PSoC5/USBUART.c ****     * Summary:
1260:Generated_Source\PSoC5/USBUART.c ****     *  This internal function is used for IN endpoint DMA reconfiguration in
1261:Generated_Source\PSoC5/USBUART.c ****     *  Auto DMA mode.
1262:Generated_Source\PSoC5/USBUART.c ****     *
1263:Generated_Source\PSoC5/USBUART.c ****     * Parameters:
1264:Generated_Source\PSoC5/USBUART.c ****     *  epNumber: Contains the data endpoint number.
1265:Generated_Source\PSoC5/USBUART.c ****     *  mode:   0 - Configure DMA to send the the rest of data.
1266:Generated_Source\PSoC5/USBUART.c ****     *          1 - Configure DMA to repeat 2 last bytes of the first burst.
1267:Generated_Source\PSoC5/USBUART.c ****     *
ARM GAS  C:\Users\Keshuai\AppData\Local\Temp\ccTp3FAZ.s 			page 42


1268:Generated_Source\PSoC5/USBUART.c ****     ***************************************************************************/
1269:Generated_Source\PSoC5/USBUART.c ****     void USBUART_LoadNextInEP(uint8 epNumber, uint8 mode) 
1270:Generated_Source\PSoC5/USBUART.c ****     {
1271:Generated_Source\PSoC5/USBUART.c ****         reg16 *convert;
1272:Generated_Source\PSoC5/USBUART.c **** 
1273:Generated_Source\PSoC5/USBUART.c ****         if (mode == 0u)
1274:Generated_Source\PSoC5/USBUART.c ****         {
1275:Generated_Source\PSoC5/USBUART.c ****             /* Configure DMA to send rest of data. */
1276:Generated_Source\PSoC5/USBUART.c ****             /* CyDmaTdSetConfiguration API is optimized to change transfer length only and configur
1277:Generated_Source\PSoC5/USBUART.c ****             convert = (reg16 *) &CY_DMA_TDMEM_STRUCT_PTR[USBUART_DmaTd[epNumber]].TD0[0u];
1278:Generated_Source\PSoC5/USBUART.c ****             /* Set transfer length. */
1279:Generated_Source\PSoC5/USBUART.c ****             CY_SET_REG16(convert, USBUART_inLength[epNumber] - USBUART_DMA_BYTES_PER_BURST);
1280:Generated_Source\PSoC5/USBUART.c ****             /* CyDmaTdSetAddress API is optimized to change source address only. */
1281:Generated_Source\PSoC5/USBUART.c ****             convert = (reg16 *) &CY_DMA_TDMEM_STRUCT_PTR[USBUART_DmaTd[epNumber]].TD1[0u];
1282:Generated_Source\PSoC5/USBUART.c ****             CY_SET_REG16(convert, LO16((uint32)USBUART_inDataPointer[epNumber] +
1283:Generated_Source\PSoC5/USBUART.c ****                                             USBUART_DMA_BYTES_PER_BURST));
1284:Generated_Source\PSoC5/USBUART.c ****             USBUART_inBufFull[epNumber] = 1u;
1285:Generated_Source\PSoC5/USBUART.c ****         }
1286:Generated_Source\PSoC5/USBUART.c ****         else
1287:Generated_Source\PSoC5/USBUART.c ****         {
1288:Generated_Source\PSoC5/USBUART.c ****             /* Configure DMA to repeat 2 last bytes of the first burst. */
1289:Generated_Source\PSoC5/USBUART.c ****             /* CyDmaTdSetConfiguration API is optimized to change transfer length only and configur
1290:Generated_Source\PSoC5/USBUART.c ****             convert = (reg16 *) &CY_DMA_TDMEM_STRUCT_PTR[USBUART_DmaTd[epNumber]].TD0[0u];
1291:Generated_Source\PSoC5/USBUART.c ****             /* Set transfer length. */
1292:Generated_Source\PSoC5/USBUART.c ****             CY_SET_REG16(convert, USBUART_DMA_BYTES_REPEAT);
1293:Generated_Source\PSoC5/USBUART.c ****             /* CyDmaTdSetAddress API is optimized to change source address only. */
1294:Generated_Source\PSoC5/USBUART.c ****             convert = (reg16 *) &CY_DMA_TDMEM_STRUCT_PTR[USBUART_DmaTd[epNumber]].TD1[0u];
1295:Generated_Source\PSoC5/USBUART.c ****             CY_SET_REG16(convert,  LO16((uint32)USBUART_inDataPointer[epNumber] +
1296:Generated_Source\PSoC5/USBUART.c ****                                    (USBUART_DMA_BYTES_PER_BURST - USBUART_DMA_BYTES_REPEAT)));
1297:Generated_Source\PSoC5/USBUART.c ****         }
1298:Generated_Source\PSoC5/USBUART.c **** 
1299:Generated_Source\PSoC5/USBUART.c ****         /* CyDmaChSetInitialTd API is optimized to initialize TD. */
1300:Generated_Source\PSoC5/USBUART.c ****         CY_DMA_CH_STRUCT_PTR[USBUART_DmaChan[epNumber]].basic_status[1u] = USBUART_DmaTd[epNumber];
1301:Generated_Source\PSoC5/USBUART.c ****     }
1302:Generated_Source\PSoC5/USBUART.c **** #endif /* (USBUART_EP_MANAGEMENT_DMA_AUTO && (USBUART_EP_DMA_AUTO_OPT == 0u)) */
1303:Generated_Source\PSoC5/USBUART.c **** #endif /* (CY_PSOC3 || CY_PSOC5) */
1304:Generated_Source\PSoC5/USBUART.c **** 
1305:Generated_Source\PSoC5/USBUART.c **** 
1306:Generated_Source\PSoC5/USBUART.c **** /*******************************************************************************
1307:Generated_Source\PSoC5/USBUART.c **** * Function Name: USBUART_LoadInEP
1308:Generated_Source\PSoC5/USBUART.c **** ****************************************************************************//**
1309:Generated_Source\PSoC5/USBUART.c **** *
1310:Generated_Source\PSoC5/USBUART.c **** *  This function performs different functionality depending on the Component’s
1311:Generated_Source\PSoC5/USBUART.c **** *  configured Endpoint Buffer Management. This parameter is defined in
1312:Generated_Source\PSoC5/USBUART.c **** *  the Descriptor Root in Component Configure window.
1313:Generated_Source\PSoC5/USBUART.c **** *
1314:Generated_Source\PSoC5/USBUART.c **** *  *Manual (Static/Dynamic Allocation):*
1315:Generated_Source\PSoC5/USBUART.c **** *  This function loads and enables the specified USB data endpoint for an IN
1316:Generated_Source\PSoC5/USBUART.c **** *  data transfer.
1317:Generated_Source\PSoC5/USBUART.c **** *
1318:Generated_Source\PSoC5/USBUART.c **** *  *DMA with Manual Buffer Management:*
1319:Generated_Source\PSoC5/USBUART.c **** *  Configures DMA for a data transfer from system RAM to endpoint buffer.
1320:Generated_Source\PSoC5/USBUART.c **** *  Generates request for a transfer.
1321:Generated_Source\PSoC5/USBUART.c **** *
1322:Generated_Source\PSoC5/USBUART.c **** *  *DMA with Automatic Buffer Management:*
1323:Generated_Source\PSoC5/USBUART.c **** *  Configures DMA. This is required only once, so it is done only when parameter
1324:Generated_Source\PSoC5/USBUART.c **** *  pData is not NULL. When the pData pointer is NULL, the function skips this
ARM GAS  C:\Users\Keshuai\AppData\Local\Temp\ccTp3FAZ.s 			page 43


1325:Generated_Source\PSoC5/USBUART.c **** *  task. Sets Data ready status: This generates the first DMA transfer and
1326:Generated_Source\PSoC5/USBUART.c **** *  prepares data in endpoint buffer.
1327:Generated_Source\PSoC5/USBUART.c **** *
1328:Generated_Source\PSoC5/USBUART.c **** *  \param epNumber Contains the data endpoint number.
1329:Generated_Source\PSoC5/USBUART.c **** *            Valid values are between 1 and 8.
1330:Generated_Source\PSoC5/USBUART.c **** *  \param *pData A pointer to a data array from which the data for the endpoint space
1331:Generated_Source\PSoC5/USBUART.c **** *          is loaded.
1332:Generated_Source\PSoC5/USBUART.c **** *  \param length The number of bytes to transfer from the array and then send as
1333:Generated_Source\PSoC5/USBUART.c **** *          a result of an IN request. Valid values are between 0 and 512
1334:Generated_Source\PSoC5/USBUART.c **** *          (1023 for DMA with Automatic Buffer Management mode). The value 512
1335:Generated_Source\PSoC5/USBUART.c **** *          is applicable if only one endpoint is used.
1336:Generated_Source\PSoC5/USBUART.c **** *
1337:Generated_Source\PSoC5/USBUART.c **** *
1338:Generated_Source\PSoC5/USBUART.c **** * \reentrant
1339:Generated_Source\PSoC5/USBUART.c **** *  No.
1340:Generated_Source\PSoC5/USBUART.c **** *
1341:Generated_Source\PSoC5/USBUART.c **** *******************************************************************************/
1342:Generated_Source\PSoC5/USBUART.c **** void USBUART_LoadInEP(uint8 epNumber, const uint8 pData[], uint16 length)
1343:Generated_Source\PSoC5/USBUART.c ****                                                                         
1344:Generated_Source\PSoC5/USBUART.c **** {
 1067              		.loc 1 1344 0
 1068              		.cfi_startproc
 1069              		@ args = 0, pretend = 0, frame = 16
 1070              		@ frame_needed = 1, uses_anonymous_args = 0
 1071              		@ link register save eliminated.
 1072 0000 B0B4     		push	{r4, r5, r7}
 1073              		.cfi_def_cfa_offset 12
 1074              		.cfi_offset 4, -12
 1075              		.cfi_offset 5, -8
 1076              		.cfi_offset 7, -4
 1077 0002 85B0     		sub	sp, sp, #20
 1078              		.cfi_def_cfa_offset 32
 1079 0004 00AF     		add	r7, sp, #0
 1080              		.cfi_def_cfa_register 7
 1081 0006 0346     		mov	r3, r0
 1082 0008 3960     		str	r1, [r7]
 1083 000a FB71     		strb	r3, [r7, #7]
 1084 000c 1346     		mov	r3, r2	@ movhi
 1085 000e BB80     		strh	r3, [r7, #4]	@ movhi
1345:Generated_Source\PSoC5/USBUART.c ****     if ((epNumber > USBUART_EP0) && (epNumber < USBUART_MAX_EP))
 1086              		.loc 1 1345 0
 1087 0010 FB79     		ldrb	r3, [r7, #7]	@ zero_extendqisi2
 1088 0012 002B     		cmp	r3, #0
 1089 0014 66D0     		beq	.L54
 1090              		.loc 1 1345 0 is_stmt 0 discriminator 1
 1091 0016 FB79     		ldrb	r3, [r7, #7]	@ zero_extendqisi2
 1092 0018 082B     		cmp	r3, #8
 1093 001a 63D8     		bhi	.L54
1346:Generated_Source\PSoC5/USBUART.c ****     {
1347:Generated_Source\PSoC5/USBUART.c ****     #if (!USBUART_EP_MANAGEMENT_DMA_AUTO)
1348:Generated_Source\PSoC5/USBUART.c ****         /* Limit length to available buffer USB IP buffer size.*/
1349:Generated_Source\PSoC5/USBUART.c ****         if (length > (USBUART_EPX_DATA_BUF_MAX - USBUART_EP[epNumber].buffOffset))
 1094              		.loc 1 1349 0 is_stmt 1
 1095 001c B988     		ldrh	r1, [r7, #4]
 1096 001e FA79     		ldrb	r2, [r7, #7]	@ zero_extendqisi2
 1097 0020 3248     		ldr	r0, .L60
 1098 0022 1346     		mov	r3, r2
ARM GAS  C:\Users\Keshuai\AppData\Local\Temp\ccTp3FAZ.s 			page 44


 1099 0024 5B00     		lsls	r3, r3, #1
 1100 0026 1344     		add	r3, r3, r2
 1101 0028 9B00     		lsls	r3, r3, #2
 1102 002a 0344     		add	r3, r3, r0
 1103 002c DB88     		ldrh	r3, [r3, #6]	@ movhi
 1104 002e 9BB2     		uxth	r3, r3
 1105 0030 C3F50073 		rsb	r3, r3, #512
 1106 0034 9942     		cmp	r1, r3
 1107 0036 0BD9     		bls	.L56
1350:Generated_Source\PSoC5/USBUART.c ****         {
1351:Generated_Source\PSoC5/USBUART.c ****             length = USBUART_EPX_DATA_BUF_MAX - USBUART_EP[epNumber].buffOffset;
 1108              		.loc 1 1351 0
 1109 0038 FA79     		ldrb	r2, [r7, #7]	@ zero_extendqisi2
 1110 003a 2C49     		ldr	r1, .L60
 1111 003c 1346     		mov	r3, r2
 1112 003e 5B00     		lsls	r3, r3, #1
 1113 0040 1344     		add	r3, r3, r2
 1114 0042 9B00     		lsls	r3, r3, #2
 1115 0044 0B44     		add	r3, r3, r1
 1116 0046 DB88     		ldrh	r3, [r3, #6]	@ movhi
 1117 0048 9BB2     		uxth	r3, r3
 1118 004a C3F50073 		rsb	r3, r3, #512
 1119 004e BB80     		strh	r3, [r7, #4]	@ movhi
 1120              	.L56:
1352:Generated_Source\PSoC5/USBUART.c ****         }
1353:Generated_Source\PSoC5/USBUART.c ****     #endif /* (!USBUART_EP_MANAGEMENT_DMA_AUTO) */
1354:Generated_Source\PSoC5/USBUART.c **** 
1355:Generated_Source\PSoC5/USBUART.c ****         /* Set count and data toggle. */
1356:Generated_Source\PSoC5/USBUART.c ****         USBUART_SIE_EP_BASE.sieEp[epNumber].epCnt0 = (uint8) HI8(length) | USBUART_EP[epNumber].epT
 1121              		.loc 1 1356 0
 1122 0050 274C     		ldr	r4, .L60+4
 1123 0052 F979     		ldrb	r1, [r7, #7]	@ zero_extendqisi2
 1124 0054 BB88     		ldrh	r3, [r7, #4]
 1125 0056 1B0A     		lsrs	r3, r3, #8
 1126 0058 9BB2     		uxth	r3, r3
 1127 005a D8B2     		uxtb	r0, r3
 1128 005c FA79     		ldrb	r2, [r7, #7]	@ zero_extendqisi2
 1129 005e 234D     		ldr	r5, .L60
 1130 0060 1346     		mov	r3, r2
 1131 0062 5B00     		lsls	r3, r3, #1
 1132 0064 1344     		add	r3, r3, r2
 1133 0066 9B00     		lsls	r3, r3, #2
 1134 0068 2B44     		add	r3, r3, r5
 1135 006a DB78     		ldrb	r3, [r3, #3]
 1136 006c DBB2     		uxtb	r3, r3
 1137 006e 0343     		orrs	r3, r3, r0
 1138 0070 DAB2     		uxtb	r2, r3
 1139 0072 0B01     		lsls	r3, r1, #4
 1140 0074 2344     		add	r3, r3, r4
 1141 0076 1A70     		strb	r2, [r3]
1357:Generated_Source\PSoC5/USBUART.c ****         USBUART_SIE_EP_BASE.sieEp[epNumber].epCnt1 = (uint8) LO8(length);
 1142              		.loc 1 1357 0
 1143 0078 1D4A     		ldr	r2, .L60+4
 1144 007a FB79     		ldrb	r3, [r7, #7]	@ zero_extendqisi2
 1145 007c B988     		ldrh	r1, [r7, #4]	@ movhi
 1146 007e C9B2     		uxtb	r1, r1
 1147 0080 1B01     		lsls	r3, r3, #4
ARM GAS  C:\Users\Keshuai\AppData\Local\Temp\ccTp3FAZ.s 			page 45


 1148 0082 1344     		add	r3, r3, r2
 1149 0084 0A46     		mov	r2, r1
 1150 0086 5A70     		strb	r2, [r3, #1]
1358:Generated_Source\PSoC5/USBUART.c **** 
1359:Generated_Source\PSoC5/USBUART.c ****     #if (USBUART_EP_MANAGEMENT_MANUAL)
1360:Generated_Source\PSoC5/USBUART.c ****         if (NULL != pData)
 1151              		.loc 1 1360 0
 1152 0088 3B68     		ldr	r3, [r7]
 1153 008a 002B     		cmp	r3, #0
 1154 008c 13D0     		beq	.L57
 1155              	.LBB2:
1361:Generated_Source\PSoC5/USBUART.c ****         {
1362:Generated_Source\PSoC5/USBUART.c **** 			/* Copy data using arbiter data register. */
1363:Generated_Source\PSoC5/USBUART.c ****             uint16 i;
1364:Generated_Source\PSoC5/USBUART.c ****             for (i = 0u; i < length; ++i)
 1156              		.loc 1 1364 0
 1157 008e 0023     		movs	r3, #0
 1158 0090 FB81     		strh	r3, [r7, #14]	@ movhi
 1159 0092 0CE0     		b	.L58
 1160              	.L59:
1365:Generated_Source\PSoC5/USBUART.c ****             {
1366:Generated_Source\PSoC5/USBUART.c ****                 USBUART_ARB_EP_BASE.arbEp[epNumber].rwDr = pData[i];
 1161              		.loc 1 1366 0 discriminator 3
 1162 0094 1748     		ldr	r0, .L60+8
 1163 0096 FB79     		ldrb	r3, [r7, #7]	@ zero_extendqisi2
 1164 0098 FA89     		ldrh	r2, [r7, #14]
 1165 009a 3968     		ldr	r1, [r7]
 1166 009c 0A44     		add	r2, r2, r1
 1167 009e 1278     		ldrb	r2, [r2]	@ zero_extendqisi2
 1168 00a0 1B01     		lsls	r3, r3, #4
 1169 00a2 0344     		add	r3, r3, r0
 1170 00a4 0833     		adds	r3, r3, #8
 1171 00a6 1A70     		strb	r2, [r3]
1364:Generated_Source\PSoC5/USBUART.c ****             {
 1172              		.loc 1 1364 0 discriminator 3
 1173 00a8 FB89     		ldrh	r3, [r7, #14]	@ movhi
 1174 00aa 0133     		adds	r3, r3, #1
 1175 00ac FB81     		strh	r3, [r7, #14]	@ movhi
 1176              	.L58:
1364:Generated_Source\PSoC5/USBUART.c ****             {
 1177              		.loc 1 1364 0 is_stmt 0 discriminator 1
 1178 00ae FA89     		ldrh	r2, [r7, #14]
 1179 00b0 BB88     		ldrh	r3, [r7, #4]
 1180 00b2 9A42     		cmp	r2, r3
 1181 00b4 EED3     		bcc	.L59
 1182              	.L57:
 1183              	.LBE2:
1367:Generated_Source\PSoC5/USBUART.c ****             }
1368:Generated_Source\PSoC5/USBUART.c ****         }
1369:Generated_Source\PSoC5/USBUART.c **** 
1370:Generated_Source\PSoC5/USBUART.c ****         /* IN endpoint buffer is full - read to be read. */
1371:Generated_Source\PSoC5/USBUART.c ****         USBUART_EP[epNumber].apiEpState = USBUART_NO_EVENT_PENDING;
 1184              		.loc 1 1371 0 is_stmt 1
 1185 00b6 FA79     		ldrb	r2, [r7, #7]	@ zero_extendqisi2
 1186 00b8 0C49     		ldr	r1, .L60
 1187 00ba 1346     		mov	r3, r2
 1188 00bc 5B00     		lsls	r3, r3, #1
ARM GAS  C:\Users\Keshuai\AppData\Local\Temp\ccTp3FAZ.s 			page 46


 1189 00be 1344     		add	r3, r3, r2
 1190 00c0 9B00     		lsls	r3, r3, #2
 1191 00c2 0B44     		add	r3, r3, r1
 1192 00c4 0022     		movs	r2, #0
 1193 00c6 5A70     		strb	r2, [r3, #1]
1372:Generated_Source\PSoC5/USBUART.c **** 
1373:Generated_Source\PSoC5/USBUART.c ****         /* Arm IN endpoint. */
1374:Generated_Source\PSoC5/USBUART.c ****         USBUART_SIE_EP_BASE.sieEp[epNumber].epCr0 = USBUART_EP[epNumber].epMode;
 1194              		.loc 1 1374 0
 1195 00c8 0948     		ldr	r0, .L60+4
 1196 00ca F979     		ldrb	r1, [r7, #7]	@ zero_extendqisi2
 1197 00cc FA79     		ldrb	r2, [r7, #7]	@ zero_extendqisi2
 1198 00ce 074C     		ldr	r4, .L60
 1199 00d0 1346     		mov	r3, r2
 1200 00d2 5B00     		lsls	r3, r3, #1
 1201 00d4 1344     		add	r3, r3, r2
 1202 00d6 9B00     		lsls	r3, r3, #2
 1203 00d8 2344     		add	r3, r3, r4
 1204 00da 5B79     		ldrb	r3, [r3, #5]
 1205 00dc DAB2     		uxtb	r2, r3
 1206 00de 0B01     		lsls	r3, r1, #4
 1207 00e0 0344     		add	r3, r3, r0
 1208 00e2 9A70     		strb	r2, [r3, #2]
 1209              	.L54:
1375:Generated_Source\PSoC5/USBUART.c **** 
1376:Generated_Source\PSoC5/USBUART.c ****     #else
1377:Generated_Source\PSoC5/USBUART.c **** 
1378:Generated_Source\PSoC5/USBUART.c ****         #if (CY_PSOC3 || CY_PSOC5LP)
1379:Generated_Source\PSoC5/USBUART.c ****             /* Initialize DMA if it was not initialized. */
1380:Generated_Source\PSoC5/USBUART.c ****             if (DMA_INVALID_TD == USBUART_DmaTd[epNumber])
1381:Generated_Source\PSoC5/USBUART.c ****             {
1382:Generated_Source\PSoC5/USBUART.c ****                 USBUART_InitEP_DMA(epNumber, pData);
1383:Generated_Source\PSoC5/USBUART.c ****             }
1384:Generated_Source\PSoC5/USBUART.c ****         #endif /* (CY_PSOC3 || CY_PSOC5LP) */
1385:Generated_Source\PSoC5/USBUART.c **** 
1386:Generated_Source\PSoC5/USBUART.c ****         #if (USBUART_EP_MANAGEMENT_DMA_MANUAL)
1387:Generated_Source\PSoC5/USBUART.c ****             /* IN endpoint buffer will be fully loaded by DMA shortly. */
1388:Generated_Source\PSoC5/USBUART.c ****             USBUART_EP[epNumber].apiEpState = USBUART_NO_EVENT_PENDING;
1389:Generated_Source\PSoC5/USBUART.c **** 
1390:Generated_Source\PSoC5/USBUART.c ****             if ((pData != NULL) && (length > 0u))
1391:Generated_Source\PSoC5/USBUART.c ****             {
1392:Generated_Source\PSoC5/USBUART.c ****             #if (CY_PSOC4)
1393:Generated_Source\PSoC5/USBUART.c ****                 uint32 channelNum = (uint32) USBUART_DmaChan[epNumber];
1394:Generated_Source\PSoC5/USBUART.c **** 
1395:Generated_Source\PSoC5/USBUART.c ****                 /* Disable DMA channel: start configuration. */
1396:Generated_Source\PSoC5/USBUART.c ****                 USBUART_CyDmaChDisable(channelNum);
1397:Generated_Source\PSoC5/USBUART.c **** 
1398:Generated_Source\PSoC5/USBUART.c ****                 /* Configure source and destination. */
1399:Generated_Source\PSoC5/USBUART.c ****                 USBUART_CyDmaSetSrcAddress(channelNum, USBUART_DMA_DESCR0, (void*) pData);
1400:Generated_Source\PSoC5/USBUART.c ****                 USBUART_CyDmaSetDstAddress(channelNum, USBUART_DMA_DESCR0, (void*) &USBUART_ARB_EP_
1401:Generated_Source\PSoC5/USBUART.c **** 
1402:Generated_Source\PSoC5/USBUART.c ****                 /* Configure DMA descriptor. */
1403:Generated_Source\PSoC5/USBUART.c ****                 --length;
1404:Generated_Source\PSoC5/USBUART.c ****                 USBUART_CyDmaSetConfiguration(channelNum, USBUART_DMA_DESCR0, USBUART_DMA_COMMON_CF
1405:Generated_Source\PSoC5/USBUART.c ****                                                         CYDMA_BYTE | CYDMA_ELEMENT_WORD | CYDMA_INC
1406:Generated_Source\PSoC5/USBUART.c **** 
1407:Generated_Source\PSoC5/USBUART.c ****                 /* Validate descriptor to execute on following DMA request. */
ARM GAS  C:\Users\Keshuai\AppData\Local\Temp\ccTp3FAZ.s 			page 47


1408:Generated_Source\PSoC5/USBUART.c ****                 USBUART_CyDmaValidateDescriptor(channelNum, USBUART_DMA_DESCR0);
1409:Generated_Source\PSoC5/USBUART.c **** 
1410:Generated_Source\PSoC5/USBUART.c ****                 /* Enable DMA channel: configuration complete. */
1411:Generated_Source\PSoC5/USBUART.c ****                 USBUART_CyDmaChEnable(channelNum);
1412:Generated_Source\PSoC5/USBUART.c ****             #else
1413:Generated_Source\PSoC5/USBUART.c ****                 /* Configure DMA to transfer data. */
1414:Generated_Source\PSoC5/USBUART.c ****                 (void) CyDmaChDisable(USBUART_DmaChan[epNumber]);
1415:Generated_Source\PSoC5/USBUART.c ****                 (void) CyDmaTdSetConfiguration(USBUART_DmaTd[epNumber], length, CY_DMA_DISABLE_TD, 
1416:Generated_Source\PSoC5/USBUART.c ****                 (void) CyDmaTdSetAddress(USBUART_DmaTd[epNumber], LO16((uint32) pData), LO16((uint3
1417:Generated_Source\PSoC5/USBUART.c **** 
1418:Generated_Source\PSoC5/USBUART.c ****                 /* Enable DMA channel. */
1419:Generated_Source\PSoC5/USBUART.c ****                 (void) CyDmaChSetInitialTd(USBUART_DmaChan[epNumber], USBUART_DmaTd[epNumber]);
1420:Generated_Source\PSoC5/USBUART.c ****                 (void) CyDmaChEnable(USBUART_DmaChan[epNumber], 1u);
1421:Generated_Source\PSoC5/USBUART.c ****             #endif /* (CY_PSOC4) */
1422:Generated_Source\PSoC5/USBUART.c **** 
1423:Generated_Source\PSoC5/USBUART.c ****                 /* Generate DMA request. */
1424:Generated_Source\PSoC5/USBUART.c ****                 USBUART_ARB_EP_BASE.arbEp[epNumber].epCfg |=  (uint8)  USBUART_ARB_EPX_CFG_DMA_REQ;
1425:Generated_Source\PSoC5/USBUART.c ****                 USBUART_ARB_EP_BASE.arbEp[epNumber].epCfg &=  (uint8) ~USBUART_ARB_EPX_CFG_DMA_REQ;
1426:Generated_Source\PSoC5/USBUART.c **** 
1427:Generated_Source\PSoC5/USBUART.c ****                 /* IN endpoint will be armed in ARB_ISR(source: IN_BUF_FULL) after first DMA transf
1428:Generated_Source\PSoC5/USBUART.c ****             }
1429:Generated_Source\PSoC5/USBUART.c ****             else
1430:Generated_Source\PSoC5/USBUART.c ****             {
1431:Generated_Source\PSoC5/USBUART.c ****                 /* When zero-length packet: arm IN endpoint directly. */
1432:Generated_Source\PSoC5/USBUART.c ****                 USBUART_SIE_EP_BASE.sieEp[epNumber].epCr0 = USBUART_EP[epNumber].epMode;
1433:Generated_Source\PSoC5/USBUART.c ****             }
1434:Generated_Source\PSoC5/USBUART.c ****         #endif /* (USBUART_EP_MANAGEMENT_DMA_MANUAL) */
1435:Generated_Source\PSoC5/USBUART.c **** 
1436:Generated_Source\PSoC5/USBUART.c ****         #if (USBUART_EP_MANAGEMENT_DMA_AUTO)
1437:Generated_Source\PSoC5/USBUART.c ****             if (pData != NULL)
1438:Generated_Source\PSoC5/USBUART.c ****             {
1439:Generated_Source\PSoC5/USBUART.c ****             #if (CY_PSOC4)
1440:Generated_Source\PSoC5/USBUART.c ****                 uint32 channelNum = (uint32) USBUART_DmaChan[epNumber];
1441:Generated_Source\PSoC5/USBUART.c **** 
1442:Generated_Source\PSoC5/USBUART.c ****                 /* Store address of buffer. */
1443:Generated_Source\PSoC5/USBUART.c ****                 USBUART_DmaEpBufferAddrBackup[epNumber] = (uint32) pData;
1444:Generated_Source\PSoC5/USBUART.c **** 
1445:Generated_Source\PSoC5/USBUART.c ****                 /* Disable DMA channel: start configuration. */
1446:Generated_Source\PSoC5/USBUART.c ****                 USBUART_CyDmaChDisable(channelNum);
1447:Generated_Source\PSoC5/USBUART.c **** 
1448:Generated_Source\PSoC5/USBUART.c ****                 /* Set destination address. */
1449:Generated_Source\PSoC5/USBUART.c ****                 USBUART_CyDmaSetDstAddress(channelNum, USBUART_DMA_DESCR0, (void*) &USBUART_ARB_EP_
1450:Generated_Source\PSoC5/USBUART.c ****                 USBUART_CyDmaSetDstAddress(channelNum, USBUART_DMA_DESCR1, (void*) &USBUART_ARB_EP_
1451:Generated_Source\PSoC5/USBUART.c **** 
1452:Generated_Source\PSoC5/USBUART.c ****                 /* Configure DMA descriptor. */
1453:Generated_Source\PSoC5/USBUART.c ****                 USBUART_CyDmaSetConfiguration(channelNum, USBUART_DMA_DESCR0, USBUART_DMA_COMMON_CF
1454:Generated_Source\PSoC5/USBUART.c ****                                                         CYDMA_BYTE | CYDMA_ELEMENT_WORD | CYDMA_INC
1455:Generated_Source\PSoC5/USBUART.c **** 
1456:Generated_Source\PSoC5/USBUART.c ****                 /* Configure DMA descriptor. */
1457:Generated_Source\PSoC5/USBUART.c ****                 USBUART_CyDmaSetConfiguration(channelNum, USBUART_DMA_DESCR1, USBUART_DMA_COMMON_CF
1458:Generated_Source\PSoC5/USBUART.c ****                                                         CYDMA_BYTE | CYDMA_ELEMENT_WORD | CYDMA_INC
1459:Generated_Source\PSoC5/USBUART.c **** 
1460:Generated_Source\PSoC5/USBUART.c ****                 /* Enable interrupt from DMA channel. */
1461:Generated_Source\PSoC5/USBUART.c ****                 USBUART_CyDmaSetInterruptMask(channelNum);
1462:Generated_Source\PSoC5/USBUART.c **** 
1463:Generated_Source\PSoC5/USBUART.c **** 
1464:Generated_Source\PSoC5/USBUART.c ****                 /* Enable DMA channel: configuration complete. */
ARM GAS  C:\Users\Keshuai\AppData\Local\Temp\ccTp3FAZ.s 			page 48


1465:Generated_Source\PSoC5/USBUART.c ****                 USBUART_CyDmaChEnable(channelNum);
1466:Generated_Source\PSoC5/USBUART.c **** 
1467:Generated_Source\PSoC5/USBUART.c ****             #else
1468:Generated_Source\PSoC5/USBUART.c ****                 (void) CyDmaChDisable(USBUART_DmaChan[epNumber]);
1469:Generated_Source\PSoC5/USBUART.c **** 
1470:Generated_Source\PSoC5/USBUART.c ****                 #if (USBUART_EP_DMA_AUTO_OPT == 0u)
1471:Generated_Source\PSoC5/USBUART.c ****                     USBUART_inLength[epNumber] = length;
1472:Generated_Source\PSoC5/USBUART.c ****                     USBUART_inDataPointer[epNumber] = pData;
1473:Generated_Source\PSoC5/USBUART.c **** 
1474:Generated_Source\PSoC5/USBUART.c ****                     /* Configure DMA to send data only for first burst */
1475:Generated_Source\PSoC5/USBUART.c ****                     (void) CyDmaTdSetConfiguration(USBUART_DmaTd[epNumber],
1476:Generated_Source\PSoC5/USBUART.c ****                         (length > USBUART_DMA_BYTES_PER_BURST) ? USBUART_DMA_BYTES_PER_BURST : leng
1477:Generated_Source\PSoC5/USBUART.c ****                         USBUART_DmaNextTd[epNumber], TD_TERMIN_EN | TD_INC_SRC_ADR);
1478:Generated_Source\PSoC5/USBUART.c ****                     (void) CyDmaTdSetAddress(USBUART_DmaTd[epNumber], LO16((uint32) pData),
1479:Generated_Source\PSoC5/USBUART.c ****                                                                                LO16((uint32) &USBUA
1480:Generated_Source\PSoC5/USBUART.c **** 
1481:Generated_Source\PSoC5/USBUART.c ****                     /* The second TD will be executed only when the first one fails.
1482:Generated_Source\PSoC5/USBUART.c ****                     *  The intention of this TD is to generate NRQ interrupt
1483:Generated_Source\PSoC5/USBUART.c ****                     *  and repeat 2 last bytes of the first burst.
1484:Generated_Source\PSoC5/USBUART.c ****                     */
1485:Generated_Source\PSoC5/USBUART.c ****                     (void) CyDmaTdSetConfiguration(USBUART_DmaNextTd[epNumber], 1u,
1486:Generated_Source\PSoC5/USBUART.c ****                                                    USBUART_DmaNextTd[epNumber],
1487:Generated_Source\PSoC5/USBUART.c ****                                                    USBUART_epX_TD_TERMOUT_EN[epNumber]);
1488:Generated_Source\PSoC5/USBUART.c **** 
1489:Generated_Source\PSoC5/USBUART.c ****                     /* Configure DmaNextTd to clear Data Ready status. */
1490:Generated_Source\PSoC5/USBUART.c ****                     (void) CyDmaTdSetAddress(USBUART_DmaNextTd[epNumber], LO16((uint32) &clearInDat
1491:Generated_Source\PSoC5/USBUART.c ****                                                                                    LO16((uint32) &U
1492:Generated_Source\PSoC5/USBUART.c ****                 #else
1493:Generated_Source\PSoC5/USBUART.c ****                     /* Configure DMA to send all data. */
1494:Generated_Source\PSoC5/USBUART.c ****                     (void) CyDmaTdSetConfiguration(USBUART_DmaTd[epNumber], length,
1495:Generated_Source\PSoC5/USBUART.c ****                                                    USBUART_DmaTd[epNumber], TD_TERMIN_EN | TD_INC_S
1496:Generated_Source\PSoC5/USBUART.c ****                     (void) CyDmaTdSetAddress(USBUART_DmaTd[epNumber], LO16((uint32) pData),
1497:Generated_Source\PSoC5/USBUART.c ****                                                                                LO16((uint32) &USBUA
1498:Generated_Source\PSoC5/USBUART.c ****                 #endif /* (USBUART_EP_DMA_AUTO_OPT == 0u) */
1499:Generated_Source\PSoC5/USBUART.c **** 
1500:Generated_Source\PSoC5/USBUART.c ****                 /* Clear any potential pending DMA requests before starting DMA channel to transfer
1501:Generated_Source\PSoC5/USBUART.c ****                 (void) CyDmaClearPendingDrq(USBUART_DmaChan[epNumber]);
1502:Generated_Source\PSoC5/USBUART.c ****                 /* Enable DMA. */
1503:Generated_Source\PSoC5/USBUART.c ****                 (void) CyDmaChSetInitialTd(USBUART_DmaChan[epNumber], USBUART_DmaTd[epNumber]);
1504:Generated_Source\PSoC5/USBUART.c ****                 (void) CyDmaChEnable(USBUART_DmaChan[epNumber], 1u);
1505:Generated_Source\PSoC5/USBUART.c ****             #endif /* (CY_PSOC4) */
1506:Generated_Source\PSoC5/USBUART.c ****             }
1507:Generated_Source\PSoC5/USBUART.c ****             else
1508:Generated_Source\PSoC5/USBUART.c ****             {
1509:Generated_Source\PSoC5/USBUART.c ****                 /* IN endpoint buffer (32 bytes) will shortly be preloaded by DMA. */
1510:Generated_Source\PSoC5/USBUART.c ****                 USBUART_EP[epNumber].apiEpState = USBUART_NO_EVENT_PENDING;
1511:Generated_Source\PSoC5/USBUART.c **** 
1512:Generated_Source\PSoC5/USBUART.c ****                 if (length > 0u)
1513:Generated_Source\PSoC5/USBUART.c ****                 {
1514:Generated_Source\PSoC5/USBUART.c ****                 #if (CY_PSOC4)
1515:Generated_Source\PSoC5/USBUART.c ****                     uint32 lengthDescr0, lengthDescr1;
1516:Generated_Source\PSoC5/USBUART.c ****                     uint32 channelNum = (uint32) USBUART_DmaChan[epNumber];
1517:Generated_Source\PSoC5/USBUART.c **** 
1518:Generated_Source\PSoC5/USBUART.c ****                     /* Get number of full bursts. */
1519:Generated_Source\PSoC5/USBUART.c ****                     USBUART_DmaEpBurstCnt[epNumber] = (uint8) (length / USBUART_DMA_BYTES_PER_BURST
1520:Generated_Source\PSoC5/USBUART.c **** 
1521:Generated_Source\PSoC5/USBUART.c ****                     /* Get number of elements in the last burst. */
ARM GAS  C:\Users\Keshuai\AppData\Local\Temp\ccTp3FAZ.s 			page 49


1522:Generated_Source\PSoC5/USBUART.c ****                     USBUART_DmaEpLastBurstEl[epNumber] = (uint8) (length % USBUART_DMA_BYTES_PER_BU
1523:Generated_Source\PSoC5/USBUART.c **** 
1524:Generated_Source\PSoC5/USBUART.c ****                     /* Get total number of bursts. */
1525:Generated_Source\PSoC5/USBUART.c ****                     USBUART_DmaEpBurstCnt[epNumber] += (0u != USBUART_DmaEpLastBurstEl[epNumber]) ?
1526:Generated_Source\PSoC5/USBUART.c **** 
1527:Generated_Source\PSoC5/USBUART.c ****                     /* Adjust number of data elements transferred in last burst. */
1528:Generated_Source\PSoC5/USBUART.c ****                     USBUART_DmaEpLastBurstEl[epNumber] = (0u != USBUART_DmaEpLastBurstEl[epNumber])
1529:Generated_Source\PSoC5/USBUART.c ****                                                                           (USBUART_DmaEpLastBurstEl
1530:Generated_Source\PSoC5/USBUART.c ****                                                                           (USBUART_DMA_BYTES_PER_BU
1531:Generated_Source\PSoC5/USBUART.c **** 
1532:Generated_Source\PSoC5/USBUART.c ****                     /* Get number of data elements to transfer for descriptor 0 and 1. */
1533:Generated_Source\PSoC5/USBUART.c ****                     lengthDescr0 = (1u == USBUART_DmaEpBurstCnt[epNumber]) ? USBUART_DmaEpLastBurst
1534:Generated_Source\PSoC5/USBUART.c ****                     lengthDescr1 = (2u == USBUART_DmaEpBurstCnt[epNumber]) ? USBUART_DmaEpLastBurst
1535:Generated_Source\PSoC5/USBUART.c **** 
1536:Generated_Source\PSoC5/USBUART.c **** 
1537:Generated_Source\PSoC5/USBUART.c ****                     /* Mark which descriptor is last one to execute. */
1538:Generated_Source\PSoC5/USBUART.c ****                     USBUART_DmaEpLastBurstEl[epNumber] |= (0u != (USBUART_DmaEpBurstCnt[epNumber] &
1539:Generated_Source\PSoC5/USBUART.c ****                                                                             USBUART_DMA_DESCR0_MASK
1540:Generated_Source\PSoC5/USBUART.c **** 
1541:Generated_Source\PSoC5/USBUART.c ****                     /* Restore DMA settings for current transfer. */
1542:Generated_Source\PSoC5/USBUART.c ****                     USBUART_CyDmaChDisable(channelNum);
1543:Generated_Source\PSoC5/USBUART.c **** 
1544:Generated_Source\PSoC5/USBUART.c ****                     /* Restore destination address for input endpoint. */
1545:Generated_Source\PSoC5/USBUART.c ****                     USBUART_CyDmaSetSrcAddress(channelNum, USBUART_DMA_DESCR0, (void*) ((uint32) US
1546:Generated_Source\PSoC5/USBUART.c ****                     USBUART_CyDmaSetSrcAddress(channelNum, USBUART_DMA_DESCR1, (void*) ((uint32) US
1547:Generated_Source\PSoC5/USBUART.c ****                                                                                                    
1548:Generated_Source\PSoC5/USBUART.c **** 
1549:Generated_Source\PSoC5/USBUART.c ****                     /* Set number of elements to transfer. */
1550:Generated_Source\PSoC5/USBUART.c ****                     USBUART_CyDmaSetNumDataElements(channelNum, USBUART_DMA_DESCR0, lengthDescr0);
1551:Generated_Source\PSoC5/USBUART.c ****                     USBUART_CyDmaSetNumDataElements(channelNum, USBUART_DMA_DESCR1, lengthDescr1);
1552:Generated_Source\PSoC5/USBUART.c **** 
1553:Generated_Source\PSoC5/USBUART.c ****                     /* Validate descriptor 0 and command to start with it. */
1554:Generated_Source\PSoC5/USBUART.c ****                     USBUART_CyDmaValidateDescriptor(channelNum, USBUART_DMA_DESCR0);
1555:Generated_Source\PSoC5/USBUART.c ****                     USBUART_CyDmaSetDescriptor0Next(channelNum);
1556:Generated_Source\PSoC5/USBUART.c **** 
1557:Generated_Source\PSoC5/USBUART.c ****                     /* Validate descriptor 1. */
1558:Generated_Source\PSoC5/USBUART.c ****                     if (USBUART_DmaEpBurstCnt[epNumber] > 1u)
1559:Generated_Source\PSoC5/USBUART.c ****                     {
1560:Generated_Source\PSoC5/USBUART.c ****                         USBUART_CyDmaValidateDescriptor(channelNum, USBUART_DMA_DESCR1); 
1561:Generated_Source\PSoC5/USBUART.c ****                     }                   
1562:Generated_Source\PSoC5/USBUART.c **** 
1563:Generated_Source\PSoC5/USBUART.c ****                     /* Adjust burst counter taking to account: 2 valid descriptors and interrupt tr
1564:Generated_Source\PSoC5/USBUART.c ****                     USBUART_DmaEpBurstCnt[epNumber] = USBUART_DMA_GET_BURST_CNT(USBUART_DmaEpBurstC
1565:Generated_Source\PSoC5/USBUART.c **** 
1566:Generated_Source\PSoC5/USBUART.c ****                     /* Enable DMA channel: configuration complete. */
1567:Generated_Source\PSoC5/USBUART.c ****                     USBUART_CyDmaChEnable(channelNum);
1568:Generated_Source\PSoC5/USBUART.c **** 
1569:Generated_Source\PSoC5/USBUART.c ****                 #elif (USBUART_EP_DMA_AUTO_OPT == 0u)
1570:Generated_Source\PSoC5/USBUART.c ****                     USBUART_inLength[epNumber]  = length;
1571:Generated_Source\PSoC5/USBUART.c ****                     USBUART_inBufFull[epNumber] = 0u;
1572:Generated_Source\PSoC5/USBUART.c **** 
1573:Generated_Source\PSoC5/USBUART.c ****                     (void) CyDmaChDisable(USBUART_DmaChan[epNumber]);
1574:Generated_Source\PSoC5/USBUART.c ****                     /* Configure DMA to send data only for first burst. */
1575:Generated_Source\PSoC5/USBUART.c ****                     (void) CyDmaTdSetConfiguration(
1576:Generated_Source\PSoC5/USBUART.c ****                         USBUART_DmaTd[epNumber], (length > USBUART_DMA_BYTES_PER_BURST) ?
1577:Generated_Source\PSoC5/USBUART.c ****                         USBUART_DMA_BYTES_PER_BURST : length,
1578:Generated_Source\PSoC5/USBUART.c ****                         USBUART_DmaNextTd[epNumber], TD_TERMIN_EN | TD_INC_SRC_ADR );
ARM GAS  C:\Users\Keshuai\AppData\Local\Temp\ccTp3FAZ.s 			page 50


1579:Generated_Source\PSoC5/USBUART.c ****                     (void) CyDmaTdSetAddress(USBUART_DmaTd[epNumber], LO16((uint32)  USBUART_inData
1580:Generated_Source\PSoC5/USBUART.c ****                                                                                LO16((uint32) &USBUA
1581:Generated_Source\PSoC5/USBUART.c ****                     /* Clear Any potential pending DMA requests before starting DMA channel to tran
1582:Generated_Source\PSoC5/USBUART.c ****                     (void) CyDmaClearPendingDrq(USBUART_DmaChan[epNumber]);
1583:Generated_Source\PSoC5/USBUART.c ****                     /* Enable DMA. */
1584:Generated_Source\PSoC5/USBUART.c ****                     (void) CyDmaChSetInitialTd(USBUART_DmaChan[epNumber], USBUART_DmaTd[epNumber]);
1585:Generated_Source\PSoC5/USBUART.c ****                     (void) CyDmaChEnable(USBUART_DmaChan[epNumber], 1u);
1586:Generated_Source\PSoC5/USBUART.c ****                 #endif /* (CY_PSOC4) */
1587:Generated_Source\PSoC5/USBUART.c **** 
1588:Generated_Source\PSoC5/USBUART.c ****                 #if !defined (USBUART_MANUAL_IN_EP_ARM)
1589:Generated_Source\PSoC5/USBUART.c ****                     /* Set IN data ready to generate DMA request to load data into endpoint buffer.
1590:Generated_Source\PSoC5/USBUART.c ****                     USBUART_ARB_EP_BASE.arbEp[epNumber].epCfg |= USBUART_ARB_EPX_CFG_IN_DATA_RDY;
1591:Generated_Source\PSoC5/USBUART.c ****                 #endif  /* (USBUART_MANUAL_IN_EP_ARM) */
1592:Generated_Source\PSoC5/USBUART.c **** 
1593:Generated_Source\PSoC5/USBUART.c ****                     /* IN endpoint will be armed in ARB_ISR(source: IN_BUF_FULL) after first DMA tr
1594:Generated_Source\PSoC5/USBUART.c ****                 }
1595:Generated_Source\PSoC5/USBUART.c ****                 else
1596:Generated_Source\PSoC5/USBUART.c ****                 {
1597:Generated_Source\PSoC5/USBUART.c ****                     /* When zero-length packet: arm IN endpoint directly. */
1598:Generated_Source\PSoC5/USBUART.c ****                     USBUART_SIE_EP_BASE.sieEp[epNumber].epCr0 = USBUART_EP[epNumber].epMode;
1599:Generated_Source\PSoC5/USBUART.c ****                 }
1600:Generated_Source\PSoC5/USBUART.c ****             }
1601:Generated_Source\PSoC5/USBUART.c ****         #endif /* (USBUART_EP_MANAGEMENT_DMA_AUTO) */
1602:Generated_Source\PSoC5/USBUART.c ****     #endif /* (USBUART_EP_MANAGEMENT_MANUAL) */
1603:Generated_Source\PSoC5/USBUART.c ****     }
1604:Generated_Source\PSoC5/USBUART.c **** }
 1210              		.loc 1 1604 0
 1211 00e4 1437     		adds	r7, r7, #20
 1212              		.cfi_def_cfa_offset 12
 1213 00e6 BD46     		mov	sp, r7
 1214              		.cfi_def_cfa_register 13
 1215              		@ sp needed
 1216 00e8 B0BC     		pop	{r4, r5, r7}
 1217              		.cfi_restore 7
 1218              		.cfi_restore 5
 1219              		.cfi_restore 4
 1220              		.cfi_def_cfa_offset 0
 1221 00ea 7047     		bx	lr
 1222              	.L61:
 1223              		.align	2
 1224              	.L60:
 1225 00ec 00000000 		.word	USBUART_EP
 1226 00f0 FC5F0040 		.word	1073766396
 1227 00f4 70600040 		.word	1073766512
 1228              		.cfi_endproc
 1229              	.LFE11:
 1230              		.size	USBUART_LoadInEP, .-USBUART_LoadInEP
 1231              		.section	.text.USBUART_ReadOutEP,"ax",%progbits
 1232              		.align	2
 1233              		.global	USBUART_ReadOutEP
 1234              		.thumb
 1235              		.thumb_func
 1236              		.type	USBUART_ReadOutEP, %function
 1237              	USBUART_ReadOutEP:
 1238              	.LFB12:
1605:Generated_Source\PSoC5/USBUART.c **** 
1606:Generated_Source\PSoC5/USBUART.c **** 
ARM GAS  C:\Users\Keshuai\AppData\Local\Temp\ccTp3FAZ.s 			page 51


1607:Generated_Source\PSoC5/USBUART.c **** /*******************************************************************************
1608:Generated_Source\PSoC5/USBUART.c **** * Function Name: USBUART_ReadOutEP
1609:Generated_Source\PSoC5/USBUART.c **** ****************************************************************************//**
1610:Generated_Source\PSoC5/USBUART.c **** *
1611:Generated_Source\PSoC5/USBUART.c **** *   This function performs different functionality depending on the Component’s
1612:Generated_Source\PSoC5/USBUART.c **** *   configured Endpoint Buffer Management. This parameter is defined in the
1613:Generated_Source\PSoC5/USBUART.c **** *   Descriptor Root in Component Configure window.
1614:Generated_Source\PSoC5/USBUART.c **** *
1615:Generated_Source\PSoC5/USBUART.c **** *   *Manual (Static/Dynamic Allocation):*
1616:Generated_Source\PSoC5/USBUART.c **** *   This function moves the specified number of bytes from endpoint buffer to
1617:Generated_Source\PSoC5/USBUART.c **** *   system RAM. The number of bytes actually transferred from endpoint buffer to
1618:Generated_Source\PSoC5/USBUART.c **** *   system RAM is the lesser of the actual number of bytes sent by the host or
1619:Generated_Source\PSoC5/USBUART.c **** *   the number of bytes requested by the length parameter.
1620:Generated_Source\PSoC5/USBUART.c **** *
1621:Generated_Source\PSoC5/USBUART.c **** *   *DMA with Manual Buffer Management:*
1622:Generated_Source\PSoC5/USBUART.c **** *   Configure DMA to transfer data from endpoint buffer to system RAM. Generate
1623:Generated_Source\PSoC5/USBUART.c **** *   a DMA request. The firmware must wait until the DMA completes the data
1624:Generated_Source\PSoC5/USBUART.c **** *   transfer after calling the USBUART_ReadOutEP() API. For example,
1625:Generated_Source\PSoC5/USBUART.c **** *   by checking EPstate:
1626:Generated_Source\PSoC5/USBUART.c **** *
1627:Generated_Source\PSoC5/USBUART.c **** *   \snippet /USBFS_sut_02.cydsn/main.c checking EPstatey
1628:Generated_Source\PSoC5/USBUART.c **** *
1629:Generated_Source\PSoC5/USBUART.c **** *   The USBFS_EnableOutEP() has to be called to allow host to write data into
1630:Generated_Source\PSoC5/USBUART.c **** *   the endpoint buffer after DMA has completed transfer data from OUT endpoint
1631:Generated_Source\PSoC5/USBUART.c **** *   buffer to SRAM.
1632:Generated_Source\PSoC5/USBUART.c **** *
1633:Generated_Source\PSoC5/USBUART.c **** *   *DMA with Automatic Buffer Management:*
1634:Generated_Source\PSoC5/USBUART.c **** *   Configure DMA. This is required only once and automatically generates DMA
1635:Generated_Source\PSoC5/USBUART.c **** *   requests as data arrives
1636:Generated_Source\PSoC5/USBUART.c **** *
1637:Generated_Source\PSoC5/USBUART.c **** *  \param epNumber: Contains the data endpoint number.
1638:Generated_Source\PSoC5/USBUART.c **** *            Valid values are between 1 and 8.
1639:Generated_Source\PSoC5/USBUART.c **** *  \param pData: A pointer to a data array from which the data for the endpoint
1640:Generated_Source\PSoC5/USBUART.c **** *         space is loaded.
1641:Generated_Source\PSoC5/USBUART.c **** *  \param length: The number of bytes to transfer from the USB Out endpoint and
1642:Generated_Source\PSoC5/USBUART.c **** *          loads it into data array. Valid values are between 0 and 1023. The
1643:Generated_Source\PSoC5/USBUART.c **** *          function moves fewer than the requested number of bytes if the host
1644:Generated_Source\PSoC5/USBUART.c **** *          sends fewer bytes than requested.
1645:Generated_Source\PSoC5/USBUART.c **** *
1646:Generated_Source\PSoC5/USBUART.c **** * \return
1647:Generated_Source\PSoC5/USBUART.c **** *  Number of bytes received, 0 for an invalid endpoint.
1648:Generated_Source\PSoC5/USBUART.c **** *
1649:Generated_Source\PSoC5/USBUART.c **** * \reentrant
1650:Generated_Source\PSoC5/USBUART.c **** *  No.
1651:Generated_Source\PSoC5/USBUART.c **** *
1652:Generated_Source\PSoC5/USBUART.c **** *******************************************************************************/
1653:Generated_Source\PSoC5/USBUART.c **** uint16 USBUART_ReadOutEP(uint8 epNumber, uint8 pData[], uint16 length)
1654:Generated_Source\PSoC5/USBUART.c ****                                                                         
1655:Generated_Source\PSoC5/USBUART.c **** {
 1239              		.loc 1 1655 0
 1240              		.cfi_startproc
 1241              		@ args = 0, pretend = 0, frame = 16
 1242              		@ frame_needed = 1, uses_anonymous_args = 0
 1243 0000 80B5     		push	{r7, lr}
 1244              		.cfi_def_cfa_offset 8
 1245              		.cfi_offset 7, -8
 1246              		.cfi_offset 14, -4
ARM GAS  C:\Users\Keshuai\AppData\Local\Temp\ccTp3FAZ.s 			page 52


 1247 0002 84B0     		sub	sp, sp, #16
 1248              		.cfi_def_cfa_offset 24
 1249 0004 00AF     		add	r7, sp, #0
 1250              		.cfi_def_cfa_register 7
 1251 0006 0346     		mov	r3, r0
 1252 0008 3960     		str	r1, [r7]
 1253 000a FB71     		strb	r3, [r7, #7]
 1254 000c 1346     		mov	r3, r2	@ movhi
 1255 000e BB80     		strh	r3, [r7, #4]	@ movhi
1656:Generated_Source\PSoC5/USBUART.c ****     if ((pData != NULL) && (epNumber > USBUART_EP0) && (epNumber < USBUART_MAX_EP))
 1256              		.loc 1 1656 0
 1257 0010 3B68     		ldr	r3, [r7]
 1258 0012 002B     		cmp	r3, #0
 1259 0014 30D0     		beq	.L63
 1260              		.loc 1 1656 0 is_stmt 0 discriminator 1
 1261 0016 FB79     		ldrb	r3, [r7, #7]	@ zero_extendqisi2
 1262 0018 002B     		cmp	r3, #0
 1263 001a 2DD0     		beq	.L63
 1264              		.loc 1 1656 0 discriminator 2
 1265 001c FB79     		ldrb	r3, [r7, #7]	@ zero_extendqisi2
 1266 001e 082B     		cmp	r3, #8
 1267 0020 2AD8     		bhi	.L63
1657:Generated_Source\PSoC5/USBUART.c ****     {
1658:Generated_Source\PSoC5/USBUART.c ****     #if (!USBUART_EP_MANAGEMENT_DMA_AUTO)
1659:Generated_Source\PSoC5/USBUART.c ****         /* Adjust requested length to available data. */
1660:Generated_Source\PSoC5/USBUART.c ****         length = (length > USBUART_GetEPCount(epNumber)) ? USBUART_GetEPCount(epNumber) : length;
 1268              		.loc 1 1660 0 is_stmt 1
 1269 0022 FB79     		ldrb	r3, [r7, #7]	@ zero_extendqisi2
 1270 0024 1846     		mov	r0, r3
 1271 0026 FFF7FEFF 		bl	USBUART_GetEPCount
 1272 002a 0346     		mov	r3, r0
 1273 002c 1A46     		mov	r2, r3
 1274 002e BB88     		ldrh	r3, [r7, #4]
 1275 0030 9342     		cmp	r3, r2
 1276 0032 05D9     		bls	.L64
 1277              		.loc 1 1660 0 is_stmt 0 discriminator 1
 1278 0034 FB79     		ldrb	r3, [r7, #7]	@ zero_extendqisi2
 1279 0036 1846     		mov	r0, r3
 1280 0038 FFF7FEFF 		bl	USBUART_GetEPCount
 1281 003c 0346     		mov	r3, r0
 1282 003e 00E0     		b	.L65
 1283              	.L64:
 1284              		.loc 1 1660 0 discriminator 2
 1285 0040 BB88     		ldrh	r3, [r7, #4]
 1286              	.L65:
 1287              		.loc 1 1660 0 discriminator 4
 1288 0042 BB80     		strh	r3, [r7, #4]	@ movhi
 1289              	.LBB3:
1661:Generated_Source\PSoC5/USBUART.c ****     #endif /* (!USBUART_EP_MANAGEMENT_DMA_AUTO) */
1662:Generated_Source\PSoC5/USBUART.c **** 
1663:Generated_Source\PSoC5/USBUART.c ****     #if (USBUART_EP_MANAGEMENT_MANUAL)
1664:Generated_Source\PSoC5/USBUART.c ****         {
1665:Generated_Source\PSoC5/USBUART.c ****             /* Copy data using arbiter data register. */
1666:Generated_Source\PSoC5/USBUART.c ****             uint16 i;
1667:Generated_Source\PSoC5/USBUART.c ****             for (i = 0u; i < length; ++i)
 1290              		.loc 1 1667 0 is_stmt 1 discriminator 4
 1291 0044 0023     		movs	r3, #0
ARM GAS  C:\Users\Keshuai\AppData\Local\Temp\ccTp3FAZ.s 			page 53


 1292 0046 FB81     		strh	r3, [r7, #14]	@ movhi
 1293 0048 0DE0     		b	.L66
 1294              	.L67:
1668:Generated_Source\PSoC5/USBUART.c ****             {
1669:Generated_Source\PSoC5/USBUART.c ****                 pData[i] = (uint8) USBUART_ARB_EP_BASE.arbEp[epNumber].rwDr;
 1295              		.loc 1 1669 0 discriminator 3
 1296 004a FB89     		ldrh	r3, [r7, #14]
 1297 004c 3A68     		ldr	r2, [r7]
 1298 004e 1344     		add	r3, r3, r2
 1299 0050 0D49     		ldr	r1, .L70
 1300 0052 FA79     		ldrb	r2, [r7, #7]	@ zero_extendqisi2
 1301 0054 1201     		lsls	r2, r2, #4
 1302 0056 0A44     		add	r2, r2, r1
 1303 0058 0832     		adds	r2, r2, #8
 1304 005a 1278     		ldrb	r2, [r2]
 1305 005c D2B2     		uxtb	r2, r2
 1306 005e 1A70     		strb	r2, [r3]
1667:Generated_Source\PSoC5/USBUART.c ****             {
 1307              		.loc 1 1667 0 discriminator 3
 1308 0060 FB89     		ldrh	r3, [r7, #14]	@ movhi
 1309 0062 0133     		adds	r3, r3, #1
 1310 0064 FB81     		strh	r3, [r7, #14]	@ movhi
 1311              	.L66:
1667:Generated_Source\PSoC5/USBUART.c ****             {
 1312              		.loc 1 1667 0 is_stmt 0 discriminator 1
 1313 0066 FA89     		ldrh	r2, [r7, #14]
 1314 0068 BB88     		ldrh	r3, [r7, #4]
 1315 006a 9A42     		cmp	r2, r3
 1316 006c EDD3     		bcc	.L67
 1317              	.LBE3:
1670:Generated_Source\PSoC5/USBUART.c ****             }
1671:Generated_Source\PSoC5/USBUART.c ****         }
1672:Generated_Source\PSoC5/USBUART.c **** 
1673:Generated_Source\PSoC5/USBUART.c ****         /* Arm OUT endpoint after data has been copied from endpoint buffer. */
1674:Generated_Source\PSoC5/USBUART.c ****         USBUART_EnableOutEP(epNumber);
 1318              		.loc 1 1674 0 is_stmt 1
 1319 006e FB79     		ldrb	r3, [r7, #7]	@ zero_extendqisi2
 1320 0070 1846     		mov	r0, r3
 1321 0072 FFF7FEFF 		bl	USBUART_EnableOutEP
 1322 0076 01E0     		b	.L68
 1323              	.L63:
1675:Generated_Source\PSoC5/USBUART.c ****     #else
1676:Generated_Source\PSoC5/USBUART.c **** 
1677:Generated_Source\PSoC5/USBUART.c ****         #if (CY_PSOC3 || CY_PSOC5LP)
1678:Generated_Source\PSoC5/USBUART.c ****             /* Initialize DMA if it was not initialized. */
1679:Generated_Source\PSoC5/USBUART.c ****             if (DMA_INVALID_TD == USBUART_DmaTd[epNumber])
1680:Generated_Source\PSoC5/USBUART.c ****             {
1681:Generated_Source\PSoC5/USBUART.c ****                 USBUART_InitEP_DMA(epNumber, pData);
1682:Generated_Source\PSoC5/USBUART.c ****             }
1683:Generated_Source\PSoC5/USBUART.c ****         #endif /* (CY_PSOC3 || CY_PSOC5LP) */
1684:Generated_Source\PSoC5/USBUART.c **** 
1685:Generated_Source\PSoC5/USBUART.c ****         #if (USBUART_EP_MANAGEMENT_DMA_MANUAL)
1686:Generated_Source\PSoC5/USBUART.c ****         #if (CY_PSOC4)
1687:Generated_Source\PSoC5/USBUART.c ****         {
1688:Generated_Source\PSoC5/USBUART.c ****             uint32 channelNum = (uint32) USBUART_DmaChan[epNumber];
1689:Generated_Source\PSoC5/USBUART.c **** 
1690:Generated_Source\PSoC5/USBUART.c ****             /* Disable DMA channel: start configuration. */
ARM GAS  C:\Users\Keshuai\AppData\Local\Temp\ccTp3FAZ.s 			page 54


1691:Generated_Source\PSoC5/USBUART.c ****             USBUART_CyDmaChDisable(channelNum);
1692:Generated_Source\PSoC5/USBUART.c **** 
1693:Generated_Source\PSoC5/USBUART.c ****             /* Configure source and destination. */
1694:Generated_Source\PSoC5/USBUART.c ****             USBUART_CyDmaSetSrcAddress(channelNum, USBUART_DMA_DESCR0, (void*) &USBUART_ARB_EP_BASE
1695:Generated_Source\PSoC5/USBUART.c ****             USBUART_CyDmaSetDstAddress(channelNum, USBUART_DMA_DESCR0, (void*) pData);
1696:Generated_Source\PSoC5/USBUART.c **** 
1697:Generated_Source\PSoC5/USBUART.c ****             /* Configure DMA descriptor. */
1698:Generated_Source\PSoC5/USBUART.c ****             USBUART_CyDmaSetConfiguration(channelNum, USBUART_DMA_DESCR0, USBUART_DMA_COMMON_CFG | 
1699:Generated_Source\PSoC5/USBUART.c ****                                                     CYDMA_BYTE | CYDMA_WORD_ELEMENT | CYDMA_INC_DST
1700:Generated_Source\PSoC5/USBUART.c **** 
1701:Generated_Source\PSoC5/USBUART.c ****             /* Validate descriptor to execute on following DMA request. */
1702:Generated_Source\PSoC5/USBUART.c ****             USBUART_CyDmaValidateDescriptor(channelNum, USBUART_DMA_DESCR0);
1703:Generated_Source\PSoC5/USBUART.c **** 
1704:Generated_Source\PSoC5/USBUART.c ****             /* Enable DMA channel: configuration complete. */
1705:Generated_Source\PSoC5/USBUART.c ****             USBUART_CyDmaChEnable(channelNum);
1706:Generated_Source\PSoC5/USBUART.c ****         }
1707:Generated_Source\PSoC5/USBUART.c ****         #else
1708:Generated_Source\PSoC5/USBUART.c ****             /* Configure DMA to transfer data. */
1709:Generated_Source\PSoC5/USBUART.c ****             (void) CyDmaChDisable(USBUART_DmaChan[epNumber]);
1710:Generated_Source\PSoC5/USBUART.c ****             (void) CyDmaTdSetConfiguration(USBUART_DmaTd[epNumber], length, CY_DMA_DISABLE_TD, TD_T
1711:Generated_Source\PSoC5/USBUART.c ****             (void) CyDmaTdSetAddress(USBUART_DmaTd[epNumber], LO16((uint32) &USBUART_ARB_EP_BASE.ar
1712:Generated_Source\PSoC5/USBUART.c **** 
1713:Generated_Source\PSoC5/USBUART.c ****             /* Enable DMA channel. */
1714:Generated_Source\PSoC5/USBUART.c ****             (void) CyDmaChSetInitialTd(USBUART_DmaChan[epNumber], USBUART_DmaTd[epNumber]);
1715:Generated_Source\PSoC5/USBUART.c ****             (void) CyDmaChEnable(USBUART_DmaChan[epNumber], 1u);
1716:Generated_Source\PSoC5/USBUART.c ****         #endif /* (CY_PSOC4) */
1717:Generated_Source\PSoC5/USBUART.c **** 
1718:Generated_Source\PSoC5/USBUART.c ****             /* Generate DMA request. */
1719:Generated_Source\PSoC5/USBUART.c ****             USBUART_ARB_EP_BASE.arbEp[epNumber].epCfg |=  (uint8)  USBUART_ARB_EPX_CFG_DMA_REQ;
1720:Generated_Source\PSoC5/USBUART.c ****             USBUART_ARB_EP_BASE.arbEp[epNumber].epCfg &=  (uint8) ~USBUART_ARB_EPX_CFG_DMA_REQ;
1721:Generated_Source\PSoC5/USBUART.c **** 
1722:Generated_Source\PSoC5/USBUART.c ****             /* OUT endpoint has to be armed again by user when DMA transfers have been completed.
1723:Generated_Source\PSoC5/USBUART.c ****             * NO_EVENT_PENDING: notifies that data has been copied from endpoint buffer.
1724:Generated_Source\PSoC5/USBUART.c ****             */
1725:Generated_Source\PSoC5/USBUART.c **** 
1726:Generated_Source\PSoC5/USBUART.c ****         #endif /* (USBUART_EP_MANAGEMENT_DMA_MANUAL) */
1727:Generated_Source\PSoC5/USBUART.c **** 
1728:Generated_Source\PSoC5/USBUART.c ****         #if (USBUART_EP_MANAGEMENT_DMA_AUTO)
1729:Generated_Source\PSoC5/USBUART.c ****         #if (CY_PSOC4)
1730:Generated_Source\PSoC5/USBUART.c ****         {
1731:Generated_Source\PSoC5/USBUART.c ****             uint32 channelNum = (uint32) USBUART_DmaChan[epNumber];
1732:Generated_Source\PSoC5/USBUART.c ****             uint32 lengthDescr0, lengthDescr1;
1733:Generated_Source\PSoC5/USBUART.c **** 
1734:Generated_Source\PSoC5/USBUART.c ****             /* Get number of full bursts. */
1735:Generated_Source\PSoC5/USBUART.c ****             USBUART_DmaEpBurstCnt[epNumber] = (uint8) (length / USBUART_DMA_BYTES_PER_BURST);
1736:Generated_Source\PSoC5/USBUART.c **** 
1737:Generated_Source\PSoC5/USBUART.c ****             /* Get number of elements in the last burst. */
1738:Generated_Source\PSoC5/USBUART.c ****             USBUART_DmaEpLastBurstEl[epNumber] = (uint8) (length % USBUART_DMA_BYTES_PER_BURST);
1739:Generated_Source\PSoC5/USBUART.c **** 
1740:Generated_Source\PSoC5/USBUART.c ****             /* Get total number of bursts. */
1741:Generated_Source\PSoC5/USBUART.c ****             USBUART_DmaEpBurstCnt[epNumber] += (0u != USBUART_DmaEpLastBurstEl[epNumber]) ? 1u : 0u
1742:Generated_Source\PSoC5/USBUART.c **** 
1743:Generated_Source\PSoC5/USBUART.c ****             /* Adjust number of the data elements transfered in last burst. */
1744:Generated_Source\PSoC5/USBUART.c ****             USBUART_DmaEpLastBurstEl[epNumber] = (0u != USBUART_DmaEpLastBurstEl[epNumber]) ?
1745:Generated_Source\PSoC5/USBUART.c ****                                                                   (USBUART_DmaEpLastBurstEl[epNumbe
1746:Generated_Source\PSoC5/USBUART.c ****                                                                   (USBUART_DMA_BYTES_PER_BURST - 1u
1747:Generated_Source\PSoC5/USBUART.c **** 
ARM GAS  C:\Users\Keshuai\AppData\Local\Temp\ccTp3FAZ.s 			page 55


1748:Generated_Source\PSoC5/USBUART.c ****             /* Get number of data elements to transfer for descriptor 0 and 1. */
1749:Generated_Source\PSoC5/USBUART.c ****             lengthDescr0 = (1u == USBUART_DmaEpBurstCnt[epNumber]) ? USBUART_DmaEpLastBurstEl[epNum
1750:Generated_Source\PSoC5/USBUART.c ****             lengthDescr1 = (2u == USBUART_DmaEpBurstCnt[epNumber]) ? USBUART_DmaEpLastBurstEl[epNum
1751:Generated_Source\PSoC5/USBUART.c **** 
1752:Generated_Source\PSoC5/USBUART.c ****             /* Mark if revert number of data elements in descriptor after transfer completion. */
1753:Generated_Source\PSoC5/USBUART.c ****             USBUART_DmaEpLastBurstEl[epNumber] |= (USBUART_DmaEpBurstCnt[epNumber] > 2u) ? USBUART_
1754:Generated_Source\PSoC5/USBUART.c **** 
1755:Generated_Source\PSoC5/USBUART.c ****             /* Mark last descriptor to be executed. */
1756:Generated_Source\PSoC5/USBUART.c ****             USBUART_DmaEpLastBurstEl[epNumber] |= (0u != (USBUART_DmaEpBurstCnt[epNumber] & 0x1u)) 
1757:Generated_Source\PSoC5/USBUART.c ****                                                                     USBUART_DMA_DESCR0_MASK : USBUA
1758:Generated_Source\PSoC5/USBUART.c **** 
1759:Generated_Source\PSoC5/USBUART.c ****             /* Store address of buffer and burst counter for endpoint. */
1760:Generated_Source\PSoC5/USBUART.c ****             USBUART_DmaEpBufferAddrBackup[epNumber] = (uint32) pData;
1761:Generated_Source\PSoC5/USBUART.c ****             USBUART_DmaEpBurstCntBackup[epNumber]   = USBUART_DmaEpBurstCnt[epNumber];
1762:Generated_Source\PSoC5/USBUART.c **** 
1763:Generated_Source\PSoC5/USBUART.c ****             /* Adjust burst counter taking to account: 2 valid descriptors and interrupt trigger af
1764:Generated_Source\PSoC5/USBUART.c ****             USBUART_DmaEpBurstCnt[epNumber] = USBUART_DMA_GET_BURST_CNT(USBUART_DmaEpBurstCnt[epNum
1765:Generated_Source\PSoC5/USBUART.c **** 
1766:Generated_Source\PSoC5/USBUART.c ****             /* Disable DMA channel: start configuration. */
1767:Generated_Source\PSoC5/USBUART.c ****             USBUART_CyDmaChDisable(channelNum);
1768:Generated_Source\PSoC5/USBUART.c **** 
1769:Generated_Source\PSoC5/USBUART.c ****             /* Set destination address. */
1770:Generated_Source\PSoC5/USBUART.c ****             USBUART_CyDmaSetSrcAddress(channelNum, USBUART_DMA_DESCR0, (void*) &USBUART_ARB_EP_BASE
1771:Generated_Source\PSoC5/USBUART.c ****             USBUART_CyDmaSetSrcAddress(channelNum, USBUART_DMA_DESCR1, (void*) &USBUART_ARB_EP_BASE
1772:Generated_Source\PSoC5/USBUART.c **** 
1773:Generated_Source\PSoC5/USBUART.c ****             USBUART_CyDmaSetDstAddress(channelNum, USBUART_DMA_DESCR0, (void*) ((uint32) pData));
1774:Generated_Source\PSoC5/USBUART.c ****             USBUART_CyDmaSetDstAddress(channelNum, USBUART_DMA_DESCR1, (void*) ((uint32) pData + US
1775:Generated_Source\PSoC5/USBUART.c **** 
1776:Generated_Source\PSoC5/USBUART.c ****             /* Configure DMA descriptor. */
1777:Generated_Source\PSoC5/USBUART.c ****             USBUART_CyDmaSetConfiguration(channelNum, USBUART_DMA_DESCR0, USBUART_DMA_COMMON_CFG  |
1778:Generated_Source\PSoC5/USBUART.c ****                                                     CYDMA_BYTE | CYDMA_WORD_ELEMENT | CYDMA_INC_DST
1779:Generated_Source\PSoC5/USBUART.c **** 
1780:Generated_Source\PSoC5/USBUART.c ****             /* Configure DMA descriptor. */
1781:Generated_Source\PSoC5/USBUART.c ****             USBUART_CyDmaSetConfiguration(channelNum, USBUART_DMA_DESCR1, USBUART_DMA_COMMON_CFG  |
1782:Generated_Source\PSoC5/USBUART.c ****                                                     CYDMA_BYTE | CYDMA_WORD_ELEMENT | CYDMA_INC_DST
1783:Generated_Source\PSoC5/USBUART.c **** 
1784:Generated_Source\PSoC5/USBUART.c ****             /* Enable interrupt from DMA channel. */
1785:Generated_Source\PSoC5/USBUART.c ****             USBUART_CyDmaSetInterruptMask(channelNum);
1786:Generated_Source\PSoC5/USBUART.c **** 
1787:Generated_Source\PSoC5/USBUART.c ****             /* Validate DMA descriptor 0 and 1. */
1788:Generated_Source\PSoC5/USBUART.c ****             USBUART_CyDmaValidateDescriptor(channelNum, USBUART_DMA_DESCR0);
1789:Generated_Source\PSoC5/USBUART.c **** 
1790:Generated_Source\PSoC5/USBUART.c ****             if (USBUART_DmaEpBurstCntBackup[epNumber] > 1u)
1791:Generated_Source\PSoC5/USBUART.c ****             {
1792:Generated_Source\PSoC5/USBUART.c ****                 USBUART_CyDmaValidateDescriptor(channelNum, USBUART_DMA_DESCR1);
1793:Generated_Source\PSoC5/USBUART.c ****             }
1794:Generated_Source\PSoC5/USBUART.c **** 
1795:Generated_Source\PSoC5/USBUART.c ****             /* Enable DMA channel: configuration complete. */
1796:Generated_Source\PSoC5/USBUART.c ****             USBUART_CyDmaChEnable(channelNum);
1797:Generated_Source\PSoC5/USBUART.c ****         }
1798:Generated_Source\PSoC5/USBUART.c ****         #else
1799:Generated_Source\PSoC5/USBUART.c ****             (void) CyDmaChDisable(USBUART_DmaChan[epNumber]);
1800:Generated_Source\PSoC5/USBUART.c ****             (void) CyDmaTdSetConfiguration(USBUART_DmaTd[epNumber], length,  USBUART_DmaTd[epNumber
1801:Generated_Source\PSoC5/USBUART.c ****             (void) CyDmaTdSetAddress(USBUART_DmaTd[epNumber], LO16((uint32) &USBUART_ARB_EP_BASE.ar
1802:Generated_Source\PSoC5/USBUART.c **** 
1803:Generated_Source\PSoC5/USBUART.c ****             /* Clear Any potential pending DMA requests before starting DMA channel to transfer dat
1804:Generated_Source\PSoC5/USBUART.c ****             (void) CyDmaClearPendingDrq(USBUART_DmaChan[epNumber]);
ARM GAS  C:\Users\Keshuai\AppData\Local\Temp\ccTp3FAZ.s 			page 56


1805:Generated_Source\PSoC5/USBUART.c **** 
1806:Generated_Source\PSoC5/USBUART.c ****             /* Enable DMA channel. */
1807:Generated_Source\PSoC5/USBUART.c ****             (void) CyDmaChSetInitialTd(USBUART_DmaChan[epNumber], USBUART_DmaTd[epNumber]);
1808:Generated_Source\PSoC5/USBUART.c ****             (void) CyDmaChEnable(USBUART_DmaChan[epNumber], 1u);
1809:Generated_Source\PSoC5/USBUART.c ****         #endif /* (CY_PSOC4) */
1810:Generated_Source\PSoC5/USBUART.c **** 
1811:Generated_Source\PSoC5/USBUART.c ****             /* OUT endpoint has to be armed again by user when DMA transfers have been completed.
1812:Generated_Source\PSoC5/USBUART.c ****             * NO_EVENT_PENDING: notifies that data has been copied from endpoint buffer.
1813:Generated_Source\PSoC5/USBUART.c ****             */
1814:Generated_Source\PSoC5/USBUART.c **** 
1815:Generated_Source\PSoC5/USBUART.c ****         #endif /* (USBUART_EP_MANAGEMENT_DMA_AUTO) */
1816:Generated_Source\PSoC5/USBUART.c ****     #endif /* (USBUART_EP_MANAGEMENT_MANUAL) */
1817:Generated_Source\PSoC5/USBUART.c ****     }
1818:Generated_Source\PSoC5/USBUART.c ****     else
1819:Generated_Source\PSoC5/USBUART.c ****     {
1820:Generated_Source\PSoC5/USBUART.c ****         length = 0u;
 1324              		.loc 1 1820 0
 1325 0078 0023     		movs	r3, #0
 1326 007a BB80     		strh	r3, [r7, #4]	@ movhi
 1327              	.L68:
1821:Generated_Source\PSoC5/USBUART.c ****     }
1822:Generated_Source\PSoC5/USBUART.c **** 
1823:Generated_Source\PSoC5/USBUART.c ****     return (length);
 1328              		.loc 1 1823 0
 1329 007c BB88     		ldrh	r3, [r7, #4]
1824:Generated_Source\PSoC5/USBUART.c **** }
 1330              		.loc 1 1824 0
 1331 007e 1846     		mov	r0, r3
 1332 0080 1037     		adds	r7, r7, #16
 1333              		.cfi_def_cfa_offset 8
 1334 0082 BD46     		mov	sp, r7
 1335              		.cfi_def_cfa_register 13
 1336              		@ sp needed
 1337 0084 80BD     		pop	{r7, pc}
 1338              	.L71:
 1339 0086 00BF     		.align	2
 1340              	.L70:
 1341 0088 70600040 		.word	1073766512
 1342              		.cfi_endproc
 1343              	.LFE12:
 1344              		.size	USBUART_ReadOutEP, .-USBUART_ReadOutEP
 1345              		.section	.text.USBUART_EnableOutEP,"ax",%progbits
 1346              		.align	2
 1347              		.global	USBUART_EnableOutEP
 1348              		.thumb
 1349              		.thumb_func
 1350              		.type	USBUART_EnableOutEP, %function
 1351              	USBUART_EnableOutEP:
 1352              	.LFB13:
1825:Generated_Source\PSoC5/USBUART.c **** 
1826:Generated_Source\PSoC5/USBUART.c **** 
1827:Generated_Source\PSoC5/USBUART.c **** #if (USBUART_16BITS_EP_ACCESS_ENABLE)
1828:Generated_Source\PSoC5/USBUART.c **** /*******************************************************************************
1829:Generated_Source\PSoC5/USBUART.c **** * Function Name: USBUART_LoadInEP16
1830:Generated_Source\PSoC5/USBUART.c **** ****************************************************************************//**
1831:Generated_Source\PSoC5/USBUART.c **** *
1832:Generated_Source\PSoC5/USBUART.c **** *  This function performs different functionality depending on the Component’s
ARM GAS  C:\Users\Keshuai\AppData\Local\Temp\ccTp3FAZ.s 			page 57


1833:Generated_Source\PSoC5/USBUART.c **** *  configured Endpoint Buffer Management. This parameter is defined in
1834:Generated_Source\PSoC5/USBUART.c **** *  the Descriptor Root in Component Configure window.
1835:Generated_Source\PSoC5/USBUART.c **** *
1836:Generated_Source\PSoC5/USBUART.c **** *  *Manual (Static/Dynamic Allocation):*
1837:Generated_Source\PSoC5/USBUART.c **** *  This function loads and enables the specified USB data endpoint for an IN
1838:Generated_Source\PSoC5/USBUART.c **** *  data transfer.
1839:Generated_Source\PSoC5/USBUART.c **** *
1840:Generated_Source\PSoC5/USBUART.c **** *  *DMA with Manual Buffer Management:*
1841:Generated_Source\PSoC5/USBUART.c **** *  Configures DMA for a data transfer from system RAM to endpoint buffer.
1842:Generated_Source\PSoC5/USBUART.c **** *  Generates request for a transfer.
1843:Generated_Source\PSoC5/USBUART.c **** *
1844:Generated_Source\PSoC5/USBUART.c **** *  *DMA with Automatic Buffer Management:*
1845:Generated_Source\PSoC5/USBUART.c **** *  Configures DMA. This is required only once, so it is done only when parameter
1846:Generated_Source\PSoC5/USBUART.c **** *  pData is not NULL. When the pData pointer is NULL, the function skips this
1847:Generated_Source\PSoC5/USBUART.c **** *  task. Sets Data ready status: This generates the first DMA transfer and
1848:Generated_Source\PSoC5/USBUART.c **** *  prepares data in endpoint buffer.
1849:Generated_Source\PSoC5/USBUART.c **** *
1850:Generated_Source\PSoC5/USBUART.c **** *  \param epNumber Contains the data endpoint number.
1851:Generated_Source\PSoC5/USBUART.c **** *        Valid values are between 1 and 8.
1852:Generated_Source\PSoC5/USBUART.c **** *  \param *pData A pointer to a data array from which the data for the endpoint
1853:Generated_Source\PSoC5/USBUART.c **** *        space is loaded. It shall be ensured that this pointer address is even
1854:Generated_Source\PSoC5/USBUART.c **** *        to ensure the 16-bit transfer is aligned to even address. Else, a hard
1855:Generated_Source\PSoC5/USBUART.c **** *        fault condition can occur.
1856:Generated_Source\PSoC5/USBUART.c **** *  \param length The number of bytes to transfer from the array and then send as
1857:Generated_Source\PSoC5/USBUART.c **** *        a result of an IN request. Valid values are between 0 and 512 (1023 for
1858:Generated_Source\PSoC5/USBUART.c **** *        DMA with Automatic Buffer Management mode). The value 512 is applicable
1859:Generated_Source\PSoC5/USBUART.c **** *        if only one endpoint is used.
1860:Generated_Source\PSoC5/USBUART.c **** *
1861:Generated_Source\PSoC5/USBUART.c **** * \reentrant
1862:Generated_Source\PSoC5/USBUART.c **** *  No.
1863:Generated_Source\PSoC5/USBUART.c **** *
1864:Generated_Source\PSoC5/USBUART.c **** *******************************************************************************/
1865:Generated_Source\PSoC5/USBUART.c **** void USBUART_LoadInEP16(uint8 epNumber, const uint8 pData[], uint16 length)
1866:Generated_Source\PSoC5/USBUART.c **** {
1867:Generated_Source\PSoC5/USBUART.c ****     /* Check array alignment on half-word boundary. */
1868:Generated_Source\PSoC5/USBUART.c ****     CYASSERT(0u == (((uint32) pData) & 0x01u));
1869:Generated_Source\PSoC5/USBUART.c **** 
1870:Generated_Source\PSoC5/USBUART.c ****     if ((epNumber > USBUART_EP0) && (epNumber < USBUART_MAX_EP))
1871:Generated_Source\PSoC5/USBUART.c ****     {
1872:Generated_Source\PSoC5/USBUART.c ****     #if (!USBUART_EP_MANAGEMENT_DMA_AUTO)
1873:Generated_Source\PSoC5/USBUART.c ****         /* Limit length to available buffer USB IP buffer size. */
1874:Generated_Source\PSoC5/USBUART.c ****         if (length > (USBUART_EPX_DATA_BUF_MAX - USBUART_EP[epNumber].buffOffset))
1875:Generated_Source\PSoC5/USBUART.c ****         {
1876:Generated_Source\PSoC5/USBUART.c ****             length = USBUART_EPX_DATA_BUF_MAX - USBUART_EP[epNumber].buffOffset;
1877:Generated_Source\PSoC5/USBUART.c ****         }
1878:Generated_Source\PSoC5/USBUART.c ****     #endif /* (!USBUART_EP_MANAGEMENT_DMA_AUTO) */
1879:Generated_Source\PSoC5/USBUART.c **** 
1880:Generated_Source\PSoC5/USBUART.c ****         /* Set count and data toggle. */
1881:Generated_Source\PSoC5/USBUART.c ****         USBUART_SIE_EP_BASE.sieEp[epNumber].epCnt0 = (uint32) HI8(length) | USBUART_EP[epNumber].ep
1882:Generated_Source\PSoC5/USBUART.c ****         USBUART_SIE_EP_BASE.sieEp[epNumber].epCnt1 = (uint32) LO8(length);
1883:Generated_Source\PSoC5/USBUART.c **** 
1884:Generated_Source\PSoC5/USBUART.c ****         /* Adjust requested length: 2 bytes are handled at one data register access. */
1885:Generated_Source\PSoC5/USBUART.c ****         length += (length & 0x01u);
1886:Generated_Source\PSoC5/USBUART.c **** 
1887:Generated_Source\PSoC5/USBUART.c ****     #if (USBUART_EP_MANAGEMENT_MANUAL)
1888:Generated_Source\PSoC5/USBUART.c ****         if (NULL != pData)
1889:Generated_Source\PSoC5/USBUART.c ****         {
ARM GAS  C:\Users\Keshuai\AppData\Local\Temp\ccTp3FAZ.s 			page 58


1890:Generated_Source\PSoC5/USBUART.c ****             /* Convert uint8 array to uint16. */
1891:Generated_Source\PSoC5/USBUART.c ****             const uint16 *dataBuf = (uint16 *) pData;
1892:Generated_Source\PSoC5/USBUART.c **** 
1893:Generated_Source\PSoC5/USBUART.c ****             /* Copy data using 16-bits arbiter data register. */
1894:Generated_Source\PSoC5/USBUART.c ****             uint16 i;
1895:Generated_Source\PSoC5/USBUART.c ****             for (i = 0u; i < (length >> 1u); ++i)
1896:Generated_Source\PSoC5/USBUART.c ****             {
1897:Generated_Source\PSoC5/USBUART.c ****                 USBUART_ARB_EP16_BASE.arbEp[epNumber].rwDr16 = dataBuf[i];
1898:Generated_Source\PSoC5/USBUART.c ****             }
1899:Generated_Source\PSoC5/USBUART.c ****         }
1900:Generated_Source\PSoC5/USBUART.c **** 
1901:Generated_Source\PSoC5/USBUART.c ****         /* IN endpoint buffer is full - read to be read. */
1902:Generated_Source\PSoC5/USBUART.c ****         USBUART_EP[epNumber].apiEpState = USBUART_NO_EVENT_PENDING;
1903:Generated_Source\PSoC5/USBUART.c **** 
1904:Generated_Source\PSoC5/USBUART.c ****         /* Arm IN endpoint. */
1905:Generated_Source\PSoC5/USBUART.c ****         USBUART_SIE_EP_BASE.sieEp[epNumber].epCr0 = USBUART_EP[epNumber].epMode;
1906:Generated_Source\PSoC5/USBUART.c **** 
1907:Generated_Source\PSoC5/USBUART.c ****     #else
1908:Generated_Source\PSoC5/USBUART.c **** 
1909:Generated_Source\PSoC5/USBUART.c ****         #if (USBUART_EP_MANAGEMENT_DMA_MANUAL)
1910:Generated_Source\PSoC5/USBUART.c ****             /* IN endpoint buffer will be fully loaded by DMA shortly. */
1911:Generated_Source\PSoC5/USBUART.c ****             USBUART_EP[epNumber].apiEpState = USBUART_NO_EVENT_PENDING;
1912:Generated_Source\PSoC5/USBUART.c **** 
1913:Generated_Source\PSoC5/USBUART.c ****             if ((pData != NULL) && (length > 0u))
1914:Generated_Source\PSoC5/USBUART.c ****             {
1915:Generated_Source\PSoC5/USBUART.c ****                 uint32 channelNum = (uint32) USBUART_DmaChan[epNumber];
1916:Generated_Source\PSoC5/USBUART.c **** 
1917:Generated_Source\PSoC5/USBUART.c ****                 /* Disable DMA channel: start configuration. */
1918:Generated_Source\PSoC5/USBUART.c ****                 USBUART_CyDmaChDisable(channelNum);
1919:Generated_Source\PSoC5/USBUART.c **** 
1920:Generated_Source\PSoC5/USBUART.c ****                 /* Configure source and destination. */
1921:Generated_Source\PSoC5/USBUART.c ****                 USBUART_CyDmaSetSrcAddress(channelNum, USBUART_DMA_DESCR0, (void*) pData);
1922:Generated_Source\PSoC5/USBUART.c ****                 USBUART_CyDmaSetDstAddress(channelNum, USBUART_DMA_DESCR0, (void*) &USBUART_ARB_EP1
1923:Generated_Source\PSoC5/USBUART.c **** 
1924:Generated_Source\PSoC5/USBUART.c ****                 /* Configure DMA descriptor. */
1925:Generated_Source\PSoC5/USBUART.c ****                 length = (length >> 1u) - 1u;
1926:Generated_Source\PSoC5/USBUART.c ****                 USBUART_CyDmaSetConfiguration(channelNum, USBUART_DMA_DESCR0, USBUART_DMA_COMMON_CF
1927:Generated_Source\PSoC5/USBUART.c ****                                                         CYDMA_HALFWORD | CYDMA_ELEMENT_WORD | CYDMA
1928:Generated_Source\PSoC5/USBUART.c **** 
1929:Generated_Source\PSoC5/USBUART.c ****                 /* Validate descriptor to execute on following DMA request. */
1930:Generated_Source\PSoC5/USBUART.c ****                 USBUART_CyDmaValidateDescriptor(channelNum, USBUART_DMA_DESCR0);
1931:Generated_Source\PSoC5/USBUART.c **** 
1932:Generated_Source\PSoC5/USBUART.c ****                 /* Enable DMA channel: configuration complete. */
1933:Generated_Source\PSoC5/USBUART.c ****                 USBUART_CyDmaChEnable(channelNum);
1934:Generated_Source\PSoC5/USBUART.c **** 
1935:Generated_Source\PSoC5/USBUART.c ****                 /* Generate DMA request. */
1936:Generated_Source\PSoC5/USBUART.c ****                 USBUART_ARB_EP_BASE.arbEp[epNumber].epCfg |=  (uint32)  USBUART_ARB_EPX_CFG_DMA_REQ
1937:Generated_Source\PSoC5/USBUART.c ****                 USBUART_ARB_EP_BASE.arbEp[epNumber].epCfg &=  (uint32) ~USBUART_ARB_EPX_CFG_DMA_REQ
1938:Generated_Source\PSoC5/USBUART.c **** 
1939:Generated_Source\PSoC5/USBUART.c ****                 /* IN endpoint will be armed in ARB_ISR(source: IN_BUF_FULL) after first DMA transf
1940:Generated_Source\PSoC5/USBUART.c ****             }
1941:Generated_Source\PSoC5/USBUART.c ****             else
1942:Generated_Source\PSoC5/USBUART.c ****             {
1943:Generated_Source\PSoC5/USBUART.c ****                 /* When zero-length packet: arm IN endpoint directly. */
1944:Generated_Source\PSoC5/USBUART.c ****                 USBUART_SIE_EP_BASE.sieEp[epNumber].epCr0 = USBUART_EP[epNumber].epMode;
1945:Generated_Source\PSoC5/USBUART.c ****             }
1946:Generated_Source\PSoC5/USBUART.c ****         #endif /* (USBUART_EP_MANAGEMENT_DMA_MANUAL) */
ARM GAS  C:\Users\Keshuai\AppData\Local\Temp\ccTp3FAZ.s 			page 59


1947:Generated_Source\PSoC5/USBUART.c **** 
1948:Generated_Source\PSoC5/USBUART.c ****         #if (USBUART_EP_MANAGEMENT_DMA_AUTO)
1949:Generated_Source\PSoC5/USBUART.c ****             if (pData != NULL)
1950:Generated_Source\PSoC5/USBUART.c ****             {
1951:Generated_Source\PSoC5/USBUART.c ****                 uint32 channelNum = (uint32) USBUART_DmaChan[epNumber];
1952:Generated_Source\PSoC5/USBUART.c **** 
1953:Generated_Source\PSoC5/USBUART.c ****                 /* Store address of buffer. */
1954:Generated_Source\PSoC5/USBUART.c ****                 USBUART_DmaEpBufferAddrBackup[epNumber] = (uint32) pData;
1955:Generated_Source\PSoC5/USBUART.c **** 
1956:Generated_Source\PSoC5/USBUART.c ****                 /* Disable DMA channel: start configuration. */
1957:Generated_Source\PSoC5/USBUART.c ****                 USBUART_CyDmaChDisable(channelNum);
1958:Generated_Source\PSoC5/USBUART.c **** 
1959:Generated_Source\PSoC5/USBUART.c ****                 /* Set destination address. */
1960:Generated_Source\PSoC5/USBUART.c ****                 USBUART_CyDmaSetDstAddress(channelNum, USBUART_DMA_DESCR0, (void*) &USBUART_ARB_EP1
1961:Generated_Source\PSoC5/USBUART.c ****                 USBUART_CyDmaSetDstAddress(channelNum, USBUART_DMA_DESCR1, (void*) &USBUART_ARB_EP1
1962:Generated_Source\PSoC5/USBUART.c **** 
1963:Generated_Source\PSoC5/USBUART.c ****                 /* Configure DMA descriptor. */
1964:Generated_Source\PSoC5/USBUART.c ****                 USBUART_CyDmaSetConfiguration(channelNum, USBUART_DMA_DESCR0, USBUART_DMA_COMMON_CF
1965:Generated_Source\PSoC5/USBUART.c ****                                                         CYDMA_HALFWORD | CYDMA_ELEMENT_WORD | CYDMA
1966:Generated_Source\PSoC5/USBUART.c **** 
1967:Generated_Source\PSoC5/USBUART.c ****                 /* Configure DMA descriptor. */
1968:Generated_Source\PSoC5/USBUART.c ****                 USBUART_CyDmaSetConfiguration(channelNum, USBUART_DMA_DESCR1, USBUART_DMA_COMMON_CF
1969:Generated_Source\PSoC5/USBUART.c ****                                                         CYDMA_HALFWORD | CYDMA_ELEMENT_WORD | CYDMA
1970:Generated_Source\PSoC5/USBUART.c **** 
1971:Generated_Source\PSoC5/USBUART.c ****                 /* Enable interrupt from DMA channel. */
1972:Generated_Source\PSoC5/USBUART.c ****                 USBUART_CyDmaSetInterruptMask(channelNum);
1973:Generated_Source\PSoC5/USBUART.c **** 
1974:Generated_Source\PSoC5/USBUART.c ****                 /* Enable DMA channel: configuration complete. */
1975:Generated_Source\PSoC5/USBUART.c ****                 USBUART_CyDmaChEnable(channelNum);
1976:Generated_Source\PSoC5/USBUART.c ****             }
1977:Generated_Source\PSoC5/USBUART.c ****             else
1978:Generated_Source\PSoC5/USBUART.c ****             {
1979:Generated_Source\PSoC5/USBUART.c ****                 /* IN endpoint buffer (32 bytes) will shortly be preloaded by DMA. */
1980:Generated_Source\PSoC5/USBUART.c ****                 USBUART_EP[epNumber].apiEpState = USBUART_NO_EVENT_PENDING;
1981:Generated_Source\PSoC5/USBUART.c **** 
1982:Generated_Source\PSoC5/USBUART.c ****                 if (length > 0u)
1983:Generated_Source\PSoC5/USBUART.c ****                 {
1984:Generated_Source\PSoC5/USBUART.c ****                     uint32 lengthDescr0, lengthDescr1;
1985:Generated_Source\PSoC5/USBUART.c ****                     uint32 channelNum = (uint32) USBUART_DmaChan[epNumber];
1986:Generated_Source\PSoC5/USBUART.c **** 
1987:Generated_Source\PSoC5/USBUART.c ****                     /* Get number of full bursts. */
1988:Generated_Source\PSoC5/USBUART.c ****                     USBUART_DmaEpBurstCnt[epNumber] = (uint8) (length / USBUART_DMA_BYTES_PER_BURST
1989:Generated_Source\PSoC5/USBUART.c **** 
1990:Generated_Source\PSoC5/USBUART.c ****                     /* Get number of elements in the last burst. */
1991:Generated_Source\PSoC5/USBUART.c ****                     USBUART_DmaEpLastBurstEl[epNumber] = (uint8) (length % USBUART_DMA_BYTES_PER_BU
1992:Generated_Source\PSoC5/USBUART.c **** 
1993:Generated_Source\PSoC5/USBUART.c ****                     /* Get total number of bursts. */
1994:Generated_Source\PSoC5/USBUART.c ****                     USBUART_DmaEpBurstCnt[epNumber] += (0u != USBUART_DmaEpLastBurstEl[epNumber]) ?
1995:Generated_Source\PSoC5/USBUART.c **** 
1996:Generated_Source\PSoC5/USBUART.c ****                     /* Adjust number of data elements transferred in last burst. */
1997:Generated_Source\PSoC5/USBUART.c ****                     USBUART_DmaEpLastBurstEl[epNumber] = (0u != USBUART_DmaEpLastBurstEl[epNumber])
1998:Generated_Source\PSoC5/USBUART.c ****                                                                           ((USBUART_DmaEpLastBurstE
1999:Generated_Source\PSoC5/USBUART.c ****                                                                            (USBUART_DMA_HALFWORDS_P
2000:Generated_Source\PSoC5/USBUART.c **** 
2001:Generated_Source\PSoC5/USBUART.c ****                     /* Get number of data elements to transfer for descriptor 0 and 1. */
2002:Generated_Source\PSoC5/USBUART.c ****                     lengthDescr0 = (1u == USBUART_DmaEpBurstCnt[epNumber]) ? USBUART_DmaEpLastBurst
2003:Generated_Source\PSoC5/USBUART.c ****                     lengthDescr1 = (2u == USBUART_DmaEpBurstCnt[epNumber]) ? USBUART_DmaEpLastBurst
ARM GAS  C:\Users\Keshuai\AppData\Local\Temp\ccTp3FAZ.s 			page 60


2004:Generated_Source\PSoC5/USBUART.c **** 
2005:Generated_Source\PSoC5/USBUART.c ****                     /* Mark which descriptor is last one to execute. */
2006:Generated_Source\PSoC5/USBUART.c ****                     USBUART_DmaEpLastBurstEl[epNumber] |= (0u != (USBUART_DmaEpBurstCnt[epNumber] &
2007:Generated_Source\PSoC5/USBUART.c ****                                                                             USBUART_DMA_DESCR0_MASK
2008:Generated_Source\PSoC5/USBUART.c **** 
2009:Generated_Source\PSoC5/USBUART.c ****                     /* Restore DMA settings for current transfer. */
2010:Generated_Source\PSoC5/USBUART.c ****                     USBUART_CyDmaChDisable(channelNum);
2011:Generated_Source\PSoC5/USBUART.c **** 
2012:Generated_Source\PSoC5/USBUART.c ****                     /* Restore destination address for input endpoint. */
2013:Generated_Source\PSoC5/USBUART.c ****                     USBUART_CyDmaSetSrcAddress(channelNum, USBUART_DMA_DESCR0, (void*) ((uint32) US
2014:Generated_Source\PSoC5/USBUART.c ****                     USBUART_CyDmaSetSrcAddress(channelNum, USBUART_DMA_DESCR1, (void*) ((uint32) US
2015:Generated_Source\PSoC5/USBUART.c ****                                                                                                    
2016:Generated_Source\PSoC5/USBUART.c **** 
2017:Generated_Source\PSoC5/USBUART.c ****                     /* Set number of elements to transfer. */
2018:Generated_Source\PSoC5/USBUART.c ****                     USBUART_CyDmaSetNumDataElements(channelNum, USBUART_DMA_DESCR0, lengthDescr0);
2019:Generated_Source\PSoC5/USBUART.c ****                     USBUART_CyDmaSetNumDataElements(channelNum, USBUART_DMA_DESCR1, lengthDescr1);
2020:Generated_Source\PSoC5/USBUART.c **** 
2021:Generated_Source\PSoC5/USBUART.c ****                     /* Validate descriptor 0 and command to start with it. */
2022:Generated_Source\PSoC5/USBUART.c ****                     USBUART_CyDmaValidateDescriptor(channelNum, USBUART_DMA_DESCR0);
2023:Generated_Source\PSoC5/USBUART.c ****                     USBUART_CyDmaSetDescriptor0Next(channelNum);
2024:Generated_Source\PSoC5/USBUART.c **** 
2025:Generated_Source\PSoC5/USBUART.c ****                     /* Validate descriptor 1. */
2026:Generated_Source\PSoC5/USBUART.c ****                     if (USBUART_DmaEpBurstCnt[epNumber] > 1u)
2027:Generated_Source\PSoC5/USBUART.c ****                     {
2028:Generated_Source\PSoC5/USBUART.c ****                         USBUART_CyDmaValidateDescriptor(channelNum, USBUART_DMA_DESCR1);
2029:Generated_Source\PSoC5/USBUART.c ****                     }
2030:Generated_Source\PSoC5/USBUART.c **** 
2031:Generated_Source\PSoC5/USBUART.c ****                     /* Adjust burst counter taking to account: 2 valid descriptors and interrupt tr
2032:Generated_Source\PSoC5/USBUART.c ****                     USBUART_DmaEpBurstCnt[epNumber] = USBUART_DMA_GET_BURST_CNT(USBUART_DmaEpBurstC
2033:Generated_Source\PSoC5/USBUART.c **** 
2034:Generated_Source\PSoC5/USBUART.c ****                     /* Enable DMA channel: configuration complete. */
2035:Generated_Source\PSoC5/USBUART.c ****                     USBUART_CyDmaChEnable(channelNum);
2036:Generated_Source\PSoC5/USBUART.c **** 
2037:Generated_Source\PSoC5/USBUART.c ****                 #if !defined (USBUART_MANUAL_IN_EP_ARM)
2038:Generated_Source\PSoC5/USBUART.c ****                     /* Set IN data ready to generate DMA request to load data into endpoint buffer.
2039:Generated_Source\PSoC5/USBUART.c ****                     USBUART_ARB_EP_BASE.arbEp[epNumber].epCfg |= USBUART_ARB_EPX_CFG_IN_DATA_RDY;
2040:Generated_Source\PSoC5/USBUART.c ****                 #endif  /* (USBUART_MANUAL_IN_EP_ARM) */
2041:Generated_Source\PSoC5/USBUART.c **** 
2042:Generated_Source\PSoC5/USBUART.c ****                     /* IN endpoint will be armed in ARB_ISR(source: IN_BUF_FULL) after first DMA tr
2043:Generated_Source\PSoC5/USBUART.c ****                 }
2044:Generated_Source\PSoC5/USBUART.c ****                 else
2045:Generated_Source\PSoC5/USBUART.c ****                 {
2046:Generated_Source\PSoC5/USBUART.c ****                     /* When zero-length packet: arm IN endpoint directly. */
2047:Generated_Source\PSoC5/USBUART.c ****                     USBUART_SIE_EP_BASE.sieEp[epNumber].epCr0 = USBUART_EP[epNumber].epMode;
2048:Generated_Source\PSoC5/USBUART.c ****                 }
2049:Generated_Source\PSoC5/USBUART.c ****             }
2050:Generated_Source\PSoC5/USBUART.c ****         #endif /* (USBUART_EP_MANAGEMENT_DMA_AUTO) */
2051:Generated_Source\PSoC5/USBUART.c ****     #endif /* (USBUART_EP_MANAGEMENT_MANUAL) */
2052:Generated_Source\PSoC5/USBUART.c ****     }
2053:Generated_Source\PSoC5/USBUART.c **** }
2054:Generated_Source\PSoC5/USBUART.c **** 
2055:Generated_Source\PSoC5/USBUART.c **** 
2056:Generated_Source\PSoC5/USBUART.c **** /*******************************************************************************
2057:Generated_Source\PSoC5/USBUART.c **** * Function Name: USBUART_ReadOutEP16
2058:Generated_Source\PSoC5/USBUART.c **** ****************************************************************************//**
2059:Generated_Source\PSoC5/USBUART.c **** *
2060:Generated_Source\PSoC5/USBUART.c **** *   This function performs different functionality depending on the Component’s
ARM GAS  C:\Users\Keshuai\AppData\Local\Temp\ccTp3FAZ.s 			page 61


2061:Generated_Source\PSoC5/USBUART.c **** *   configured Endpoint Buffer Management. This parameter is defined in the
2062:Generated_Source\PSoC5/USBUART.c **** *   Descriptor Root in Component Configure window.
2063:Generated_Source\PSoC5/USBUART.c **** *
2064:Generated_Source\PSoC5/USBUART.c **** *   *Manual (Static/Dynamic Allocation):*
2065:Generated_Source\PSoC5/USBUART.c **** *   This function moves the specified number of bytes from endpoint buffer to
2066:Generated_Source\PSoC5/USBUART.c **** *   system RAM. The number of bytes actually transferred from endpoint buffer to
2067:Generated_Source\PSoC5/USBUART.c **** *   system RAM is the lesser of the actual number of bytes sent by the host or
2068:Generated_Source\PSoC5/USBUART.c **** *   the number of bytes requested by the length parameter.
2069:Generated_Source\PSoC5/USBUART.c **** *
2070:Generated_Source\PSoC5/USBUART.c **** *   *DMA with Manual Buffer Management:*
2071:Generated_Source\PSoC5/USBUART.c **** *   Configure DMA to transfer data from endpoint buffer to system RAM. Generate
2072:Generated_Source\PSoC5/USBUART.c **** *   a DMA request. The firmware must wait until the DMA completes the data
2073:Generated_Source\PSoC5/USBUART.c **** *   transfer after calling the USBUART_ReadOutEP() API. For example,
2074:Generated_Source\PSoC5/USBUART.c **** *   by checking EPstate:
2075:Generated_Source\PSoC5/USBUART.c **** *
2076:Generated_Source\PSoC5/USBUART.c **** *   \snippet /USBFS_sut_02.cydsn/main.c checking EPstatey
2077:Generated_Source\PSoC5/USBUART.c **** *
2078:Generated_Source\PSoC5/USBUART.c **** *   The USBFS_EnableOutEP() has to be called to allow host to write data into
2079:Generated_Source\PSoC5/USBUART.c **** *   the endpoint buffer after DMA has completed transfer data from OUT endpoint
2080:Generated_Source\PSoC5/USBUART.c **** *   buffer to SRAM.
2081:Generated_Source\PSoC5/USBUART.c **** *
2082:Generated_Source\PSoC5/USBUART.c **** *   *DMA with Automatic Buffer Management:*
2083:Generated_Source\PSoC5/USBUART.c **** *   Configure DMA. This is required only once and automatically generates DMA
2084:Generated_Source\PSoC5/USBUART.c **** *   requests as data arrives
2085:Generated_Source\PSoC5/USBUART.c **** *
2086:Generated_Source\PSoC5/USBUART.c **** *  \param epNumber: Contains the data endpoint number.
2087:Generated_Source\PSoC5/USBUART.c **** *         Valid values are between 1 and 8.
2088:Generated_Source\PSoC5/USBUART.c **** *  \param pData: A pointer to a data array into which the data for the endpoint
2089:Generated_Source\PSoC5/USBUART.c **** *         space is copied. It shall be ensured that this pointer address is
2090:Generated_Source\PSoC5/USBUART.c **** *         even to ensure the 16-bit transfer is aligned to even address. Else,
2091:Generated_Source\PSoC5/USBUART.c **** *         a hard fault condition can occur.
2092:Generated_Source\PSoC5/USBUART.c **** *  \param length: The number of bytes to transfer from the USB Out endpoint and
2093:Generated_Source\PSoC5/USBUART.c **** *         loads it into data array. Valid values are between 0 and 1023. The
2094:Generated_Source\PSoC5/USBUART.c **** *         function moves fewer than the requested number of bytes if the host
2095:Generated_Source\PSoC5/USBUART.c **** *         sends fewer bytes than requested.
2096:Generated_Source\PSoC5/USBUART.c **** *
2097:Generated_Source\PSoC5/USBUART.c **** * \return
2098:Generated_Source\PSoC5/USBUART.c **** *  Number of bytes received, 0 for an invalid endpoint.
2099:Generated_Source\PSoC5/USBUART.c **** *
2100:Generated_Source\PSoC5/USBUART.c **** * \reentrant
2101:Generated_Source\PSoC5/USBUART.c **** *  No.
2102:Generated_Source\PSoC5/USBUART.c **** *
2103:Generated_Source\PSoC5/USBUART.c **** *******************************************************************************/
2104:Generated_Source\PSoC5/USBUART.c **** uint16 USBUART_ReadOutEP16(uint8 epNumber, uint8 pData[], uint16 length)
2105:Generated_Source\PSoC5/USBUART.c **** {
2106:Generated_Source\PSoC5/USBUART.c ****     uint32 adjLength;
2107:Generated_Source\PSoC5/USBUART.c **** 
2108:Generated_Source\PSoC5/USBUART.c ****     /* Check array alignment on half-word boundary */
2109:Generated_Source\PSoC5/USBUART.c ****     CYASSERT(0u == (((uint32) pData) & 0x01u));
2110:Generated_Source\PSoC5/USBUART.c **** 
2111:Generated_Source\PSoC5/USBUART.c ****     if ((pData != NULL) && (epNumber > USBUART_EP0) && (epNumber < USBUART_MAX_EP))
2112:Generated_Source\PSoC5/USBUART.c ****     {
2113:Generated_Source\PSoC5/USBUART.c ****     #if (!USBUART_EP_MANAGEMENT_DMA_AUTO)
2114:Generated_Source\PSoC5/USBUART.c ****         /* Adjust requested length to available data. */
2115:Generated_Source\PSoC5/USBUART.c ****         length = (length > USBUART_GetEPCount(epNumber)) ? USBUART_GetEPCount(epNumber) : length;
2116:Generated_Source\PSoC5/USBUART.c ****     #endif /* (!USBUART_EP_MANAGEMENT_DMA_AUTO) */
2117:Generated_Source\PSoC5/USBUART.c **** 
ARM GAS  C:\Users\Keshuai\AppData\Local\Temp\ccTp3FAZ.s 			page 62


2118:Generated_Source\PSoC5/USBUART.c ****     /* Adjust requested length: 2 bytes are handled at one data register access. */
2119:Generated_Source\PSoC5/USBUART.c ****     adjLength =  length + ((uint32)length & 1u);
2120:Generated_Source\PSoC5/USBUART.c **** 
2121:Generated_Source\PSoC5/USBUART.c ****     #if (USBUART_EP_MANAGEMENT_MANUAL)
2122:Generated_Source\PSoC5/USBUART.c ****         {
2123:Generated_Source\PSoC5/USBUART.c ****             /* Convert uint8 array to uint16. */
2124:Generated_Source\PSoC5/USBUART.c ****             uint16 *dataBuf = (uint16 *) pData;
2125:Generated_Source\PSoC5/USBUART.c **** 
2126:Generated_Source\PSoC5/USBUART.c ****             /* Copy data using 16-bits arbiter data register. */
2127:Generated_Source\PSoC5/USBUART.c ****             uint16 i;
2128:Generated_Source\PSoC5/USBUART.c ****             for (i = 0u; i < (adjLength >> 1u); ++i)
2129:Generated_Source\PSoC5/USBUART.c ****             {
2130:Generated_Source\PSoC5/USBUART.c ****                 dataBuf[i] = (uint16) USBUART_ARB_EP16_BASE.arbEp[epNumber].rwDr16;
2131:Generated_Source\PSoC5/USBUART.c ****             }
2132:Generated_Source\PSoC5/USBUART.c ****         }
2133:Generated_Source\PSoC5/USBUART.c **** 
2134:Generated_Source\PSoC5/USBUART.c ****         /* Arm OUT endpoint after data has been read from endpoint buffer. */
2135:Generated_Source\PSoC5/USBUART.c ****         USBUART_EnableOutEP(epNumber);
2136:Generated_Source\PSoC5/USBUART.c ****     #else
2137:Generated_Source\PSoC5/USBUART.c **** 
2138:Generated_Source\PSoC5/USBUART.c ****         #if (USBUART_EP_MANAGEMENT_DMA_MANUAL)
2139:Generated_Source\PSoC5/USBUART.c ****         {
2140:Generated_Source\PSoC5/USBUART.c ****             uint32 channelNum = (uint32) USBUART_DmaChan[epNumber];
2141:Generated_Source\PSoC5/USBUART.c **** 
2142:Generated_Source\PSoC5/USBUART.c ****             /* Disable DMA channel: start configuration. */
2143:Generated_Source\PSoC5/USBUART.c ****             USBUART_CyDmaChDisable(channelNum);
2144:Generated_Source\PSoC5/USBUART.c **** 
2145:Generated_Source\PSoC5/USBUART.c ****             /* Configure source and destination. */
2146:Generated_Source\PSoC5/USBUART.c ****             USBUART_CyDmaSetSrcAddress(channelNum, USBUART_DMA_DESCR0, (void*) &USBUART_ARB_EP16_BA
2147:Generated_Source\PSoC5/USBUART.c ****             USBUART_CyDmaSetDstAddress(channelNum, USBUART_DMA_DESCR0, (void*) pData);
2148:Generated_Source\PSoC5/USBUART.c **** 
2149:Generated_Source\PSoC5/USBUART.c ****             /* Configure DMA descriptor. */
2150:Generated_Source\PSoC5/USBUART.c ****             USBUART_CyDmaSetConfiguration(channelNum, USBUART_DMA_DESCR0, USBUART_DMA_COMMON_CFG | 
2151:Generated_Source\PSoC5/USBUART.c ****                                                     CYDMA_HALFWORD | CYDMA_WORD_ELEMENT | CYDMA_INC
2152:Generated_Source\PSoC5/USBUART.c **** 
2153:Generated_Source\PSoC5/USBUART.c ****             /* Validate descriptor to execute on following DMA request. */
2154:Generated_Source\PSoC5/USBUART.c ****             USBUART_CyDmaValidateDescriptor(channelNum, USBUART_DMA_DESCR0);
2155:Generated_Source\PSoC5/USBUART.c **** 
2156:Generated_Source\PSoC5/USBUART.c ****             /* Enable DMA channel: configuration complete. */
2157:Generated_Source\PSoC5/USBUART.c ****             USBUART_CyDmaChEnable(channelNum);
2158:Generated_Source\PSoC5/USBUART.c **** 
2159:Generated_Source\PSoC5/USBUART.c ****             /* Generate DMA request. */
2160:Generated_Source\PSoC5/USBUART.c ****             USBUART_ARB_EP_BASE.arbEp[epNumber].epCfg |=  (uint32)  USBUART_ARB_EPX_CFG_DMA_REQ;
2161:Generated_Source\PSoC5/USBUART.c ****             USBUART_ARB_EP_BASE.arbEp[epNumber].epCfg &=  (uint32) ~USBUART_ARB_EPX_CFG_DMA_REQ;
2162:Generated_Source\PSoC5/USBUART.c **** 
2163:Generated_Source\PSoC5/USBUART.c ****             /* OUT endpoint has to be armed again by user when DMA transfers have been completed.
2164:Generated_Source\PSoC5/USBUART.c ****             * NO_EVENT_PENDING: notifies that data has been copied from endpoint buffer.
2165:Generated_Source\PSoC5/USBUART.c ****             */
2166:Generated_Source\PSoC5/USBUART.c ****         }
2167:Generated_Source\PSoC5/USBUART.c ****         #endif /* (USBUART_EP_MANAGEMENT_DMA_MANUAL) */
2168:Generated_Source\PSoC5/USBUART.c **** 
2169:Generated_Source\PSoC5/USBUART.c ****         #if (USBUART_EP_MANAGEMENT_DMA_AUTO)
2170:Generated_Source\PSoC5/USBUART.c ****         {
2171:Generated_Source\PSoC5/USBUART.c ****             uint32 lengthDescr0, lengthDescr1;
2172:Generated_Source\PSoC5/USBUART.c ****             uint32 channelNum = (uint32) USBUART_DmaChan[epNumber];
2173:Generated_Source\PSoC5/USBUART.c **** 
2174:Generated_Source\PSoC5/USBUART.c ****             /* Get number of full bursts. */
ARM GAS  C:\Users\Keshuai\AppData\Local\Temp\ccTp3FAZ.s 			page 63


2175:Generated_Source\PSoC5/USBUART.c ****             USBUART_DmaEpBurstCnt[epNumber] = (uint8) (adjLength / USBUART_DMA_BYTES_PER_BURST);
2176:Generated_Source\PSoC5/USBUART.c **** 
2177:Generated_Source\PSoC5/USBUART.c ****             /* Get number of elements in last burst. */
2178:Generated_Source\PSoC5/USBUART.c ****             USBUART_DmaEpLastBurstEl[epNumber] = (uint8) (adjLength % USBUART_DMA_BYTES_PER_BURST);
2179:Generated_Source\PSoC5/USBUART.c **** 
2180:Generated_Source\PSoC5/USBUART.c ****             /* Get total number of bursts. */
2181:Generated_Source\PSoC5/USBUART.c ****             USBUART_DmaEpBurstCnt[epNumber] += (0u != USBUART_DmaEpLastBurstEl[epNumber]) ? 1u : 0u
2182:Generated_Source\PSoC5/USBUART.c **** 
2183:Generated_Source\PSoC5/USBUART.c ****             /* Adjust number of data elements transferred in last burst. */
2184:Generated_Source\PSoC5/USBUART.c ****             USBUART_DmaEpLastBurstEl[epNumber] = (0u != USBUART_DmaEpLastBurstEl[epNumber]) ?
2185:Generated_Source\PSoC5/USBUART.c ****                                                                   ((USBUART_DmaEpLastBurstEl[epNumb
2186:Generated_Source\PSoC5/USBUART.c ****                                                                    (USBUART_DMA_HALFWORDS_PER_BURST
2187:Generated_Source\PSoC5/USBUART.c **** 
2188:Generated_Source\PSoC5/USBUART.c ****             /* Get number of data elements to transfer for descriptor 0 and 1. */
2189:Generated_Source\PSoC5/USBUART.c ****             lengthDescr0 = (1u == USBUART_DmaEpBurstCnt[epNumber]) ? USBUART_DmaEpLastBurstEl[epNum
2190:Generated_Source\PSoC5/USBUART.c ****             lengthDescr1 = (2u == USBUART_DmaEpBurstCnt[epNumber]) ? USBUART_DmaEpLastBurstEl[epNum
2191:Generated_Source\PSoC5/USBUART.c **** 
2192:Generated_Source\PSoC5/USBUART.c ****             /* Mark last descriptor to be executed. */
2193:Generated_Source\PSoC5/USBUART.c ****             USBUART_DmaEpLastBurstEl[epNumber] |= (0u != (USBUART_DmaEpBurstCnt[epNumber] & 0x1u)) 
2194:Generated_Source\PSoC5/USBUART.c ****                                                                     USBUART_DMA_DESCR0_MASK : USBUA
2195:Generated_Source\PSoC5/USBUART.c **** 
2196:Generated_Source\PSoC5/USBUART.c ****             /* Mark if revert number of data elements in descriptor after transfer completion. */
2197:Generated_Source\PSoC5/USBUART.c ****             USBUART_DmaEpLastBurstEl[epNumber] |= (USBUART_DmaEpBurstCnt[epNumber] > 2u) ? USBUART_
2198:Generated_Source\PSoC5/USBUART.c **** 
2199:Generated_Source\PSoC5/USBUART.c ****             /* Mark that 16-bits access to data register is performed. */
2200:Generated_Source\PSoC5/USBUART.c ****             USBUART_DmaEpLastBurstEl[epNumber] |= USBUART_DMA_DESCR_16BITS;
2201:Generated_Source\PSoC5/USBUART.c **** 
2202:Generated_Source\PSoC5/USBUART.c ****             /* Store address of buffer and burst counter for endpoint. */
2203:Generated_Source\PSoC5/USBUART.c ****             USBUART_DmaEpBufferAddrBackup[epNumber] = (uint32) pData;
2204:Generated_Source\PSoC5/USBUART.c ****             USBUART_DmaEpBurstCntBackup[epNumber]   = USBUART_DmaEpBurstCnt[epNumber];
2205:Generated_Source\PSoC5/USBUART.c **** 
2206:Generated_Source\PSoC5/USBUART.c ****             /* Adjust burst counter taking to account: 2 valid descriptors and interrupt trigger af
2207:Generated_Source\PSoC5/USBUART.c ****             USBUART_DmaEpBurstCnt[epNumber] = USBUART_DMA_GET_BURST_CNT(USBUART_DmaEpBurstCnt[epNum
2208:Generated_Source\PSoC5/USBUART.c **** 
2209:Generated_Source\PSoC5/USBUART.c ****             /* Disable DMA channel: start configuration. */
2210:Generated_Source\PSoC5/USBUART.c ****             USBUART_CyDmaChDisable(channelNum);
2211:Generated_Source\PSoC5/USBUART.c **** 
2212:Generated_Source\PSoC5/USBUART.c ****             /* Set destination address. */
2213:Generated_Source\PSoC5/USBUART.c ****             USBUART_CyDmaSetSrcAddress(channelNum, USBUART_DMA_DESCR0, (void*) &USBUART_ARB_EP16_BA
2214:Generated_Source\PSoC5/USBUART.c ****             USBUART_CyDmaSetSrcAddress(channelNum, USBUART_DMA_DESCR1, (void*) &USBUART_ARB_EP16_BA
2215:Generated_Source\PSoC5/USBUART.c **** 
2216:Generated_Source\PSoC5/USBUART.c ****             USBUART_CyDmaSetDstAddress(channelNum, USBUART_DMA_DESCR0, (void*) ((uint32) pData));
2217:Generated_Source\PSoC5/USBUART.c ****             USBUART_CyDmaSetDstAddress(channelNum, USBUART_DMA_DESCR1, (void*) ((uint32) pData + US
2218:Generated_Source\PSoC5/USBUART.c **** 
2219:Generated_Source\PSoC5/USBUART.c ****             /* Configure DMA descriptor 0. */
2220:Generated_Source\PSoC5/USBUART.c ****             USBUART_CyDmaSetConfiguration(channelNum, USBUART_DMA_DESCR0, USBUART_DMA_COMMON_CFG  |
2221:Generated_Source\PSoC5/USBUART.c ****                                                     CYDMA_HALFWORD | CYDMA_WORD_ELEMENT | CYDMA_INC
2222:Generated_Source\PSoC5/USBUART.c **** 
2223:Generated_Source\PSoC5/USBUART.c ****             /* Configure DMA descriptor 1. */
2224:Generated_Source\PSoC5/USBUART.c ****             USBUART_CyDmaSetConfiguration(channelNum, USBUART_DMA_DESCR1, USBUART_DMA_COMMON_CFG  |
2225:Generated_Source\PSoC5/USBUART.c ****                                                     CYDMA_HALFWORD | CYDMA_WORD_ELEMENT | CYDMA_INC
2226:Generated_Source\PSoC5/USBUART.c **** 
2227:Generated_Source\PSoC5/USBUART.c ****             /* Enable interrupt from DMA channel. */
2228:Generated_Source\PSoC5/USBUART.c ****             USBUART_CyDmaSetInterruptMask(channelNum);
2229:Generated_Source\PSoC5/USBUART.c **** 
2230:Generated_Source\PSoC5/USBUART.c ****             /* Validate DMA descriptor 0 and 1. */
2231:Generated_Source\PSoC5/USBUART.c ****             USBUART_CyDmaValidateDescriptor(channelNum, USBUART_DMA_DESCR0);
ARM GAS  C:\Users\Keshuai\AppData\Local\Temp\ccTp3FAZ.s 			page 64


2232:Generated_Source\PSoC5/USBUART.c ****             
2233:Generated_Source\PSoC5/USBUART.c ****             if (USBUART_DmaEpBurstCntBackup[epNumber] > 1u)
2234:Generated_Source\PSoC5/USBUART.c ****             {
2235:Generated_Source\PSoC5/USBUART.c ****                 USBUART_CyDmaValidateDescriptor(channelNum, USBUART_DMA_DESCR1);
2236:Generated_Source\PSoC5/USBUART.c ****             }
2237:Generated_Source\PSoC5/USBUART.c **** 
2238:Generated_Source\PSoC5/USBUART.c ****             /* Enable DMA channel: configuration complete. */
2239:Generated_Source\PSoC5/USBUART.c ****             USBUART_CyDmaChEnable(channelNum);
2240:Generated_Source\PSoC5/USBUART.c **** 
2241:Generated_Source\PSoC5/USBUART.c ****             /* OUT endpoint has to be armed again by user when DMA transfers have been completed.
2242:Generated_Source\PSoC5/USBUART.c ****             * NO_EVENT_PENDING: notifies that data has been copied from endpoint buffer.
2243:Generated_Source\PSoC5/USBUART.c ****             */
2244:Generated_Source\PSoC5/USBUART.c ****         }
2245:Generated_Source\PSoC5/USBUART.c ****         #endif /* (USBUART_EP_MANAGEMENT_DMA_AUTO) */
2246:Generated_Source\PSoC5/USBUART.c ****     #endif /* (USBUART_EP_MANAGEMENT_MANUAL) */
2247:Generated_Source\PSoC5/USBUART.c ****     }
2248:Generated_Source\PSoC5/USBUART.c ****     else
2249:Generated_Source\PSoC5/USBUART.c ****     {
2250:Generated_Source\PSoC5/USBUART.c ****         length = 0u;
2251:Generated_Source\PSoC5/USBUART.c ****     }
2252:Generated_Source\PSoC5/USBUART.c **** 
2253:Generated_Source\PSoC5/USBUART.c ****     return (length);
2254:Generated_Source\PSoC5/USBUART.c **** }
2255:Generated_Source\PSoC5/USBUART.c **** #endif /* (USBUART_16BITS_EP_ACCESS_ENABLE) */
2256:Generated_Source\PSoC5/USBUART.c **** 
2257:Generated_Source\PSoC5/USBUART.c **** 
2258:Generated_Source\PSoC5/USBUART.c **** /*******************************************************************************
2259:Generated_Source\PSoC5/USBUART.c **** * Function Name: USBUART_EnableOutEP
2260:Generated_Source\PSoC5/USBUART.c **** ****************************************************************************//**
2261:Generated_Source\PSoC5/USBUART.c **** *
2262:Generated_Source\PSoC5/USBUART.c **** *  This function enables the specified endpoint for OUT transfers. Do not call
2263:Generated_Source\PSoC5/USBUART.c **** *  this function for IN endpoints.
2264:Generated_Source\PSoC5/USBUART.c **** *
2265:Generated_Source\PSoC5/USBUART.c **** *  \param epNumber: Contains the data endpoint number. Valid values are between
2266:Generated_Source\PSoC5/USBUART.c **** *  1 and 8.
2267:Generated_Source\PSoC5/USBUART.c **** *
2268:Generated_Source\PSoC5/USBUART.c **** * \globalvars
2269:Generated_Source\PSoC5/USBUART.c **** *
2270:Generated_Source\PSoC5/USBUART.c **** *  \ref USBUART_EP[epNumber].apiEpState - set to NO_EVENT_PENDING
2271:Generated_Source\PSoC5/USBUART.c **** *
2272:Generated_Source\PSoC5/USBUART.c **** * \reentrant
2273:Generated_Source\PSoC5/USBUART.c **** *  No.
2274:Generated_Source\PSoC5/USBUART.c **** *
2275:Generated_Source\PSoC5/USBUART.c **** *******************************************************************************/
2276:Generated_Source\PSoC5/USBUART.c **** void USBUART_EnableOutEP(uint8 epNumber) 
2277:Generated_Source\PSoC5/USBUART.c **** {
 1353              		.loc 1 2277 0
 1354              		.cfi_startproc
 1355              		@ args = 0, pretend = 0, frame = 8
 1356              		@ frame_needed = 1, uses_anonymous_args = 0
 1357              		@ link register save eliminated.
 1358 0000 90B4     		push	{r4, r7}
 1359              		.cfi_def_cfa_offset 8
 1360              		.cfi_offset 4, -8
 1361              		.cfi_offset 7, -4
 1362 0002 82B0     		sub	sp, sp, #8
 1363              		.cfi_def_cfa_offset 16
ARM GAS  C:\Users\Keshuai\AppData\Local\Temp\ccTp3FAZ.s 			page 65


 1364 0004 00AF     		add	r7, sp, #0
 1365              		.cfi_def_cfa_register 7
 1366 0006 0346     		mov	r3, r0
 1367 0008 FB71     		strb	r3, [r7, #7]
2278:Generated_Source\PSoC5/USBUART.c ****     if ((epNumber > USBUART_EP0) && (epNumber < USBUART_MAX_EP))
 1368              		.loc 1 2278 0
 1369 000a FB79     		ldrb	r3, [r7, #7]	@ zero_extendqisi2
 1370 000c 002B     		cmp	r3, #0
 1371 000e 19D0     		beq	.L72
 1372              		.loc 1 2278 0 is_stmt 0 discriminator 1
 1373 0010 FB79     		ldrb	r3, [r7, #7]	@ zero_extendqisi2
 1374 0012 082B     		cmp	r3, #8
 1375 0014 16D8     		bhi	.L72
2279:Generated_Source\PSoC5/USBUART.c ****     {
2280:Generated_Source\PSoC5/USBUART.c ****         USBUART_EP[epNumber].apiEpState = USBUART_NO_EVENT_PENDING;
 1376              		.loc 1 2280 0 is_stmt 1
 1377 0016 FA79     		ldrb	r2, [r7, #7]	@ zero_extendqisi2
 1378 0018 0C49     		ldr	r1, .L74
 1379 001a 1346     		mov	r3, r2
 1380 001c 5B00     		lsls	r3, r3, #1
 1381 001e 1344     		add	r3, r3, r2
 1382 0020 9B00     		lsls	r3, r3, #2
 1383 0022 0B44     		add	r3, r3, r1
 1384 0024 0022     		movs	r2, #0
 1385 0026 5A70     		strb	r2, [r3, #1]
2281:Generated_Source\PSoC5/USBUART.c **** 
2282:Generated_Source\PSoC5/USBUART.c ****         /* Enable OUT endpoint to be written by Host. */
2283:Generated_Source\PSoC5/USBUART.c ****         USBUART_SIE_EP_BASE.sieEp[epNumber].epCr0 = USBUART_EP[epNumber].epMode;
 1386              		.loc 1 2283 0
 1387 0028 0948     		ldr	r0, .L74+4
 1388 002a F979     		ldrb	r1, [r7, #7]	@ zero_extendqisi2
 1389 002c FA79     		ldrb	r2, [r7, #7]	@ zero_extendqisi2
 1390 002e 074C     		ldr	r4, .L74
 1391 0030 1346     		mov	r3, r2
 1392 0032 5B00     		lsls	r3, r3, #1
 1393 0034 1344     		add	r3, r3, r2
 1394 0036 9B00     		lsls	r3, r3, #2
 1395 0038 2344     		add	r3, r3, r4
 1396 003a 5B79     		ldrb	r3, [r3, #5]
 1397 003c DAB2     		uxtb	r2, r3
 1398 003e 0B01     		lsls	r3, r1, #4
 1399 0040 0344     		add	r3, r3, r0
 1400 0042 9A70     		strb	r2, [r3, #2]
 1401              	.L72:
2284:Generated_Source\PSoC5/USBUART.c ****         
2285:Generated_Source\PSoC5/USBUART.c ****     }
2286:Generated_Source\PSoC5/USBUART.c **** }
 1402              		.loc 1 2286 0
 1403 0044 0837     		adds	r7, r7, #8
 1404              		.cfi_def_cfa_offset 8
 1405 0046 BD46     		mov	sp, r7
 1406              		.cfi_def_cfa_register 13
 1407              		@ sp needed
 1408 0048 90BC     		pop	{r4, r7}
 1409              		.cfi_restore 7
 1410              		.cfi_restore 4
 1411              		.cfi_def_cfa_offset 0
ARM GAS  C:\Users\Keshuai\AppData\Local\Temp\ccTp3FAZ.s 			page 66


 1412 004a 7047     		bx	lr
 1413              	.L75:
 1414              		.align	2
 1415              	.L74:
 1416 004c 00000000 		.word	USBUART_EP
 1417 0050 FC5F0040 		.word	1073766396
 1418              		.cfi_endproc
 1419              	.LFE13:
 1420              		.size	USBUART_EnableOutEP, .-USBUART_EnableOutEP
 1421              		.section	.text.USBUART_DisableOutEP,"ax",%progbits
 1422              		.align	2
 1423              		.global	USBUART_DisableOutEP
 1424              		.thumb
 1425              		.thumb_func
 1426              		.type	USBUART_DisableOutEP, %function
 1427              	USBUART_DisableOutEP:
 1428              	.LFB14:
2287:Generated_Source\PSoC5/USBUART.c **** 
2288:Generated_Source\PSoC5/USBUART.c **** 
2289:Generated_Source\PSoC5/USBUART.c **** /*******************************************************************************
2290:Generated_Source\PSoC5/USBUART.c **** * Function Name: USBUART_DisableOutEP
2291:Generated_Source\PSoC5/USBUART.c **** ****************************************************************************//**
2292:Generated_Source\PSoC5/USBUART.c **** *
2293:Generated_Source\PSoC5/USBUART.c **** *  This function disables the specified USBFS OUT endpoint. Do not call this
2294:Generated_Source\PSoC5/USBUART.c **** *  function for IN endpoints.
2295:Generated_Source\PSoC5/USBUART.c **** *
2296:Generated_Source\PSoC5/USBUART.c **** *  \param epNumber: Contains the data endpoint number.
2297:Generated_Source\PSoC5/USBUART.c **** *            Valid values are between 1 and 8.
2298:Generated_Source\PSoC5/USBUART.c **** *
2299:Generated_Source\PSoC5/USBUART.c **** *******************************************************************************/
2300:Generated_Source\PSoC5/USBUART.c **** void USBUART_DisableOutEP(uint8 epNumber) 
2301:Generated_Source\PSoC5/USBUART.c **** {
 1429              		.loc 1 2301 0
 1430              		.cfi_startproc
 1431              		@ args = 0, pretend = 0, frame = 8
 1432              		@ frame_needed = 1, uses_anonymous_args = 0
 1433              		@ link register save eliminated.
 1434 0000 80B4     		push	{r7}
 1435              		.cfi_def_cfa_offset 4
 1436              		.cfi_offset 7, -4
 1437 0002 83B0     		sub	sp, sp, #12
 1438              		.cfi_def_cfa_offset 16
 1439 0004 00AF     		add	r7, sp, #0
 1440              		.cfi_def_cfa_register 7
 1441 0006 0346     		mov	r3, r0
 1442 0008 FB71     		strb	r3, [r7, #7]
2302:Generated_Source\PSoC5/USBUART.c ****     if ((epNumber > USBUART_EP0) && (epNumber < USBUART_MAX_EP))
 1443              		.loc 1 2302 0
 1444 000a FB79     		ldrb	r3, [r7, #7]	@ zero_extendqisi2
 1445 000c 002B     		cmp	r3, #0
 1446 000e 08D0     		beq	.L76
 1447              		.loc 1 2302 0 is_stmt 0 discriminator 1
 1448 0010 FB79     		ldrb	r3, [r7, #7]	@ zero_extendqisi2
 1449 0012 082B     		cmp	r3, #8
 1450 0014 05D8     		bhi	.L76
2303:Generated_Source\PSoC5/USBUART.c ****     {
2304:Generated_Source\PSoC5/USBUART.c ****         /* Set NAK response for OUT endpoint. */
ARM GAS  C:\Users\Keshuai\AppData\Local\Temp\ccTp3FAZ.s 			page 67


2305:Generated_Source\PSoC5/USBUART.c ****         USBUART_SIE_EP_BASE.sieEp[epNumber].epCr0 = USBUART_MODE_NAK_OUT;
 1451              		.loc 1 2305 0 is_stmt 1
 1452 0016 054A     		ldr	r2, .L78
 1453 0018 FB79     		ldrb	r3, [r7, #7]	@ zero_extendqisi2
 1454 001a 1B01     		lsls	r3, r3, #4
 1455 001c 1344     		add	r3, r3, r2
 1456 001e 0822     		movs	r2, #8
 1457 0020 9A70     		strb	r2, [r3, #2]
 1458              	.L76:
2306:Generated_Source\PSoC5/USBUART.c ****     }
2307:Generated_Source\PSoC5/USBUART.c **** }
 1459              		.loc 1 2307 0
 1460 0022 0C37     		adds	r7, r7, #12
 1461              		.cfi_def_cfa_offset 4
 1462 0024 BD46     		mov	sp, r7
 1463              		.cfi_def_cfa_register 13
 1464              		@ sp needed
 1465 0026 5DF8047B 		ldr	r7, [sp], #4
 1466              		.cfi_restore 7
 1467              		.cfi_def_cfa_offset 0
 1468 002a 7047     		bx	lr
 1469              	.L79:
 1470              		.align	2
 1471              	.L78:
 1472 002c FC5F0040 		.word	1073766396
 1473              		.cfi_endproc
 1474              	.LFE14:
 1475              		.size	USBUART_DisableOutEP, .-USBUART_DisableOutEP
 1476              		.section	.text.USBUART_Force,"ax",%progbits
 1477              		.align	2
 1478              		.global	USBUART_Force
 1479              		.thumb
 1480              		.thumb_func
 1481              		.type	USBUART_Force, %function
 1482              	USBUART_Force:
 1483              	.LFB15:
2308:Generated_Source\PSoC5/USBUART.c **** 
2309:Generated_Source\PSoC5/USBUART.c **** 
2310:Generated_Source\PSoC5/USBUART.c **** /*******************************************************************************
2311:Generated_Source\PSoC5/USBUART.c **** * Function Name: USBUART_Force
2312:Generated_Source\PSoC5/USBUART.c **** ****************************************************************************//**
2313:Generated_Source\PSoC5/USBUART.c **** *
2314:Generated_Source\PSoC5/USBUART.c **** *  This function forces a USB J, K, or SE0 state on the D+/D– lines. It provides
2315:Generated_Source\PSoC5/USBUART.c **** *  the necessary mechanism for a USB device application to perform a USB Remote
2316:Generated_Source\PSoC5/USBUART.c **** *  Wakeup. For more information, see the USB 2.0 Specification for details on
2317:Generated_Source\PSoC5/USBUART.c **** *  Suspend and Resume.
2318:Generated_Source\PSoC5/USBUART.c **** *
2319:Generated_Source\PSoC5/USBUART.c **** *  \param state A byte indicating which of the four bus states to enable.
2320:Generated_Source\PSoC5/USBUART.c **** *        Symbolic names  and their associated values are listed here:
2321:Generated_Source\PSoC5/USBUART.c **** *    State                      |Description
2322:Generated_Source\PSoC5/USBUART.c **** *    ---------------------------|----------------------------------------------
2323:Generated_Source\PSoC5/USBUART.c **** *    USBUART_FORCE_J   | Force a J State onto the D+/D– lines
2324:Generated_Source\PSoC5/USBUART.c **** *    USBUART_FORCE_K   | Force a K State onto the D+/D– lines
2325:Generated_Source\PSoC5/USBUART.c **** *    USBUART_FORCE_SE0 | Force a Single Ended 0 onto the D+/D– lines
2326:Generated_Source\PSoC5/USBUART.c **** *    USBUART_FORCE_NONE| Return bus to SIE control
2327:Generated_Source\PSoC5/USBUART.c **** *
2328:Generated_Source\PSoC5/USBUART.c **** *
ARM GAS  C:\Users\Keshuai\AppData\Local\Temp\ccTp3FAZ.s 			page 68


2329:Generated_Source\PSoC5/USBUART.c **** *******************************************************************************/
2330:Generated_Source\PSoC5/USBUART.c **** void USBUART_Force(uint8 bState) 
2331:Generated_Source\PSoC5/USBUART.c **** {
 1484              		.loc 1 2331 0
 1485              		.cfi_startproc
 1486              		@ args = 0, pretend = 0, frame = 8
 1487              		@ frame_needed = 1, uses_anonymous_args = 0
 1488              		@ link register save eliminated.
 1489 0000 80B4     		push	{r7}
 1490              		.cfi_def_cfa_offset 4
 1491              		.cfi_offset 7, -4
 1492 0002 83B0     		sub	sp, sp, #12
 1493              		.cfi_def_cfa_offset 16
 1494 0004 00AF     		add	r7, sp, #0
 1495              		.cfi_def_cfa_register 7
 1496 0006 0346     		mov	r3, r0
 1497 0008 FB71     		strb	r3, [r7, #7]
2332:Generated_Source\PSoC5/USBUART.c ****     /* This registers is used only for manual control of SIE (no masking is
2333:Generated_Source\PSoC5/USBUART.c ****     * needed before write into it).
2334:Generated_Source\PSoC5/USBUART.c ****     */
2335:Generated_Source\PSoC5/USBUART.c ****     USBUART_USBIO_CR0_REG = bState;
 1498              		.loc 1 2335 0
 1499 000a 044A     		ldr	r2, .L81
 1500 000c FB79     		ldrb	r3, [r7, #7]
 1501 000e 1370     		strb	r3, [r2]
2336:Generated_Source\PSoC5/USBUART.c **** }
 1502              		.loc 1 2336 0
 1503 0010 0C37     		adds	r7, r7, #12
 1504              		.cfi_def_cfa_offset 4
 1505 0012 BD46     		mov	sp, r7
 1506              		.cfi_def_cfa_register 13
 1507              		@ sp needed
 1508 0014 5DF8047B 		ldr	r7, [sp], #4
 1509              		.cfi_restore 7
 1510              		.cfi_def_cfa_offset 0
 1511 0018 7047     		bx	lr
 1512              	.L82:
 1513 001a 00BF     		.align	2
 1514              	.L81:
 1515 001c 10600040 		.word	1073766416
 1516              		.cfi_endproc
 1517              	.LFE15:
 1518              		.size	USBUART_Force, .-USBUART_Force
 1519              		.section	.text.USBUART_GetEPAckState,"ax",%progbits
 1520              		.align	2
 1521              		.global	USBUART_GetEPAckState
 1522              		.thumb
 1523              		.thumb_func
 1524              		.type	USBUART_GetEPAckState, %function
 1525              	USBUART_GetEPAckState:
 1526              	.LFB16:
2337:Generated_Source\PSoC5/USBUART.c **** 
2338:Generated_Source\PSoC5/USBUART.c **** 
2339:Generated_Source\PSoC5/USBUART.c **** /*******************************************************************************
2340:Generated_Source\PSoC5/USBUART.c **** * Function Name: USBUART_GetEPAckState
2341:Generated_Source\PSoC5/USBUART.c **** ****************************************************************************//**
2342:Generated_Source\PSoC5/USBUART.c **** *
ARM GAS  C:\Users\Keshuai\AppData\Local\Temp\ccTp3FAZ.s 			page 69


2343:Generated_Source\PSoC5/USBUART.c **** *  This function determines whether an ACK transaction occurred on this endpoint
2344:Generated_Source\PSoC5/USBUART.c **** *  by reading the ACK bit in the control register of the endpoint. It does not
2345:Generated_Source\PSoC5/USBUART.c **** *  clear the ACK bit.
2346:Generated_Source\PSoC5/USBUART.c **** *
2347:Generated_Source\PSoC5/USBUART.c **** *  \param epNumber Contains the data endpoint number.
2348:Generated_Source\PSoC5/USBUART.c **** *            Valid values are between 1 and 8.
2349:Generated_Source\PSoC5/USBUART.c **** *
2350:Generated_Source\PSoC5/USBUART.c **** *  \return
2351:Generated_Source\PSoC5/USBUART.c **** *  If an ACKed transaction occurred, this function returns a non-zero value.
2352:Generated_Source\PSoC5/USBUART.c **** *  Otherwise, it returns zero.
2353:Generated_Source\PSoC5/USBUART.c **** *
2354:Generated_Source\PSoC5/USBUART.c **** *******************************************************************************/
2355:Generated_Source\PSoC5/USBUART.c **** uint8 USBUART_GetEPAckState(uint8 epNumber) 
2356:Generated_Source\PSoC5/USBUART.c **** {
 1527              		.loc 1 2356 0
 1528              		.cfi_startproc
 1529              		@ args = 0, pretend = 0, frame = 16
 1530              		@ frame_needed = 1, uses_anonymous_args = 0
 1531              		@ link register save eliminated.
 1532 0000 80B4     		push	{r7}
 1533              		.cfi_def_cfa_offset 4
 1534              		.cfi_offset 7, -4
 1535 0002 85B0     		sub	sp, sp, #20
 1536              		.cfi_def_cfa_offset 24
 1537 0004 00AF     		add	r7, sp, #0
 1538              		.cfi_def_cfa_register 7
 1539 0006 0346     		mov	r3, r0
 1540 0008 FB71     		strb	r3, [r7, #7]
2357:Generated_Source\PSoC5/USBUART.c ****     uint8 cr = 0u;
 1541              		.loc 1 2357 0
 1542 000a 0023     		movs	r3, #0
 1543 000c FB73     		strb	r3, [r7, #15]
2358:Generated_Source\PSoC5/USBUART.c **** 
2359:Generated_Source\PSoC5/USBUART.c ****     if ((epNumber > USBUART_EP0) && (epNumber < USBUART_MAX_EP))
 1544              		.loc 1 2359 0
 1545 000e FB79     		ldrb	r3, [r7, #7]	@ zero_extendqisi2
 1546 0010 002B     		cmp	r3, #0
 1547 0012 0BD0     		beq	.L84
 1548              		.loc 1 2359 0 is_stmt 0 discriminator 1
 1549 0014 FB79     		ldrb	r3, [r7, #7]	@ zero_extendqisi2
 1550 0016 082B     		cmp	r3, #8
 1551 0018 08D8     		bhi	.L84
2360:Generated_Source\PSoC5/USBUART.c ****     {
2361:Generated_Source\PSoC5/USBUART.c ****         cr = USBUART_SIE_EP_BASE.sieEp[epNumber].epCr0 & USBUART_MODE_ACKD;
 1552              		.loc 1 2361 0 is_stmt 1
 1553 001a 084A     		ldr	r2, .L86
 1554 001c FB79     		ldrb	r3, [r7, #7]	@ zero_extendqisi2
 1555 001e 1B01     		lsls	r3, r3, #4
 1556 0020 1344     		add	r3, r3, r2
 1557 0022 9B78     		ldrb	r3, [r3, #2]
 1558 0024 DBB2     		uxtb	r3, r3
 1559 0026 03F01003 		and	r3, r3, #16
 1560 002a FB73     		strb	r3, [r7, #15]
 1561              	.L84:
2362:Generated_Source\PSoC5/USBUART.c ****     }
2363:Generated_Source\PSoC5/USBUART.c **** 
2364:Generated_Source\PSoC5/USBUART.c ****     return ((uint8) cr);
ARM GAS  C:\Users\Keshuai\AppData\Local\Temp\ccTp3FAZ.s 			page 70


 1562              		.loc 1 2364 0
 1563 002c FB7B     		ldrb	r3, [r7, #15]	@ zero_extendqisi2
2365:Generated_Source\PSoC5/USBUART.c **** }
 1564              		.loc 1 2365 0
 1565 002e 1846     		mov	r0, r3
 1566 0030 1437     		adds	r7, r7, #20
 1567              		.cfi_def_cfa_offset 4
 1568 0032 BD46     		mov	sp, r7
 1569              		.cfi_def_cfa_register 13
 1570              		@ sp needed
 1571 0034 5DF8047B 		ldr	r7, [sp], #4
 1572              		.cfi_restore 7
 1573              		.cfi_def_cfa_offset 0
 1574 0038 7047     		bx	lr
 1575              	.L87:
 1576 003a 00BF     		.align	2
 1577              	.L86:
 1578 003c FC5F0040 		.word	1073766396
 1579              		.cfi_endproc
 1580              	.LFE16:
 1581              		.size	USBUART_GetEPAckState, .-USBUART_GetEPAckState
 1582              		.section	.text.USBUART_SetPowerStatus,"ax",%progbits
 1583              		.align	2
 1584              		.global	USBUART_SetPowerStatus
 1585              		.thumb
 1586              		.thumb_func
 1587              		.type	USBUART_SetPowerStatus, %function
 1588              	USBUART_SetPowerStatus:
 1589              	.LFB17:
2366:Generated_Source\PSoC5/USBUART.c **** 
2367:Generated_Source\PSoC5/USBUART.c **** 
2368:Generated_Source\PSoC5/USBUART.c **** /*******************************************************************************
2369:Generated_Source\PSoC5/USBUART.c **** * Function Name: USBUART_SetPowerStatus
2370:Generated_Source\PSoC5/USBUART.c **** ****************************************************************************//**
2371:Generated_Source\PSoC5/USBUART.c **** *
2372:Generated_Source\PSoC5/USBUART.c **** *  This function sets the current power status. The device replies to USB
2373:Generated_Source\PSoC5/USBUART.c **** *  GET_STATUS requests based on this value. This allows the device to properly
2374:Generated_Source\PSoC5/USBUART.c **** *  report its status for USB Chapter 9 compliance. Devices can change their
2375:Generated_Source\PSoC5/USBUART.c **** *  power source from self powered to bus powered at any time and report their
2376:Generated_Source\PSoC5/USBUART.c **** *  current power source as part of the device status. You should call this
2377:Generated_Source\PSoC5/USBUART.c **** *  function any time your device changes from self powered to bus powered or
2378:Generated_Source\PSoC5/USBUART.c **** *  vice versa, and set the status appropriately.
2379:Generated_Source\PSoC5/USBUART.c **** *
2380:Generated_Source\PSoC5/USBUART.c **** *  \param powerStatus: Contains the desired power status, one for self powered
2381:Generated_Source\PSoC5/USBUART.c **** *        or zero for bus powered. Symbolic names and their associated values are
2382:Generated_Source\PSoC5/USBUART.c **** *        given here:
2383:Generated_Source\PSoC5/USBUART.c **** *  Power Status                                |Description
2384:Generated_Source\PSoC5/USBUART.c **** *  --------------------------------------------|---------------------------
2385:Generated_Source\PSoC5/USBUART.c **** *  USBUART_DEVICE_STATUS_BUS_POWERED  | Set the device to bus powered
2386:Generated_Source\PSoC5/USBUART.c **** *  USBUART_DEVICE_STATUS_SELF_POWERED | Set the device to self powered
2387:Generated_Source\PSoC5/USBUART.c **** *
2388:Generated_Source\PSoC5/USBUART.c **** * \globalvars
2389:Generated_Source\PSoC5/USBUART.c **** *
2390:Generated_Source\PSoC5/USBUART.c **** *  \ref USBUART_deviceStatus - set power status
2391:Generated_Source\PSoC5/USBUART.c **** *
2392:Generated_Source\PSoC5/USBUART.c **** * \reentrant
2393:Generated_Source\PSoC5/USBUART.c **** *  No.
ARM GAS  C:\Users\Keshuai\AppData\Local\Temp\ccTp3FAZ.s 			page 71


2394:Generated_Source\PSoC5/USBUART.c **** *
2395:Generated_Source\PSoC5/USBUART.c **** *******************************************************************************/
2396:Generated_Source\PSoC5/USBUART.c **** void USBUART_SetPowerStatus(uint8 powerStatus) 
2397:Generated_Source\PSoC5/USBUART.c **** {
 1590              		.loc 1 2397 0
 1591              		.cfi_startproc
 1592              		@ args = 0, pretend = 0, frame = 8
 1593              		@ frame_needed = 1, uses_anonymous_args = 0
 1594              		@ link register save eliminated.
 1595 0000 80B4     		push	{r7}
 1596              		.cfi_def_cfa_offset 4
 1597              		.cfi_offset 7, -4
 1598 0002 83B0     		sub	sp, sp, #12
 1599              		.cfi_def_cfa_offset 16
 1600 0004 00AF     		add	r7, sp, #0
 1601              		.cfi_def_cfa_register 7
 1602 0006 0346     		mov	r3, r0
 1603 0008 FB71     		strb	r3, [r7, #7]
2398:Generated_Source\PSoC5/USBUART.c ****     if (powerStatus != USBUART_DEVICE_STATUS_BUS_POWERED)
 1604              		.loc 1 2398 0
 1605 000a FB79     		ldrb	r3, [r7, #7]	@ zero_extendqisi2
 1606 000c 002B     		cmp	r3, #0
 1607 000e 08D0     		beq	.L89
2399:Generated_Source\PSoC5/USBUART.c ****     {
2400:Generated_Source\PSoC5/USBUART.c ****         USBUART_deviceStatus |= (uint8)  USBUART_DEVICE_STATUS_SELF_POWERED;
 1608              		.loc 1 2400 0
 1609 0010 0A4B     		ldr	r3, .L91
 1610 0012 1B78     		ldrb	r3, [r3]
 1611 0014 DBB2     		uxtb	r3, r3
 1612 0016 43F00103 		orr	r3, r3, #1
 1613 001a DAB2     		uxtb	r2, r3
 1614 001c 074B     		ldr	r3, .L91
 1615 001e 1A70     		strb	r2, [r3]
 1616 0020 07E0     		b	.L88
 1617              	.L89:
2401:Generated_Source\PSoC5/USBUART.c ****     }
2402:Generated_Source\PSoC5/USBUART.c ****     else
2403:Generated_Source\PSoC5/USBUART.c ****     {
2404:Generated_Source\PSoC5/USBUART.c ****         USBUART_deviceStatus &= (uint8) ~USBUART_DEVICE_STATUS_SELF_POWERED;
 1618              		.loc 1 2404 0
 1619 0022 064B     		ldr	r3, .L91
 1620 0024 1B78     		ldrb	r3, [r3]
 1621 0026 DBB2     		uxtb	r3, r3
 1622 0028 23F00103 		bic	r3, r3, #1
 1623 002c DAB2     		uxtb	r2, r3
 1624 002e 034B     		ldr	r3, .L91
 1625 0030 1A70     		strb	r2, [r3]
 1626              	.L88:
2405:Generated_Source\PSoC5/USBUART.c ****     }
2406:Generated_Source\PSoC5/USBUART.c **** }
 1627              		.loc 1 2406 0
 1628 0032 0C37     		adds	r7, r7, #12
 1629              		.cfi_def_cfa_offset 4
 1630 0034 BD46     		mov	sp, r7
 1631              		.cfi_def_cfa_register 13
 1632              		@ sp needed
 1633 0036 5DF8047B 		ldr	r7, [sp], #4
ARM GAS  C:\Users\Keshuai\AppData\Local\Temp\ccTp3FAZ.s 			page 72


 1634              		.cfi_restore 7
 1635              		.cfi_def_cfa_offset 0
 1636 003a 7047     		bx	lr
 1637              	.L92:
 1638              		.align	2
 1639              	.L91:
 1640 003c 00000000 		.word	USBUART_deviceStatus
 1641              		.cfi_endproc
 1642              	.LFE17:
 1643              		.size	USBUART_SetPowerStatus, .-USBUART_SetPowerStatus
 1644              		.section	.text.USBUART_RWUEnabled,"ax",%progbits
 1645              		.align	2
 1646              		.global	USBUART_RWUEnabled
 1647              		.thumb
 1648              		.thumb_func
 1649              		.type	USBUART_RWUEnabled, %function
 1650              	USBUART_RWUEnabled:
 1651              	.LFB18:
2407:Generated_Source\PSoC5/USBUART.c **** 
2408:Generated_Source\PSoC5/USBUART.c **** 
2409:Generated_Source\PSoC5/USBUART.c **** #if (USBUART_VBUS_MONITORING_ENABLE)
2410:Generated_Source\PSoC5/USBUART.c ****     /***************************************************************************
2411:Generated_Source\PSoC5/USBUART.c ****     * Function Name: USBUART_VBusPresent
2412:Generated_Source\PSoC5/USBUART.c ****     ************************************************************************//**
2413:Generated_Source\PSoC5/USBUART.c ****     *
2414:Generated_Source\PSoC5/USBUART.c ****     *  Determines VBUS presence for self-powered devices. This function is
2415:Generated_Source\PSoC5/USBUART.c ****     *  available when the VBUS Monitoring option is enabled in the Advanced tab.
2416:Generated_Source\PSoC5/USBUART.c ****     *
2417:Generated_Source\PSoC5/USBUART.c ****     * \return
2418:Generated_Source\PSoC5/USBUART.c ****     *  The return value can be the following:
2419:Generated_Source\PSoC5/USBUART.c ****     *  Return Value | Description
2420:Generated_Source\PSoC5/USBUART.c ****     *  -------------|-----------------
2421:Generated_Source\PSoC5/USBUART.c ****     *  1            | VBUS is present
2422:Generated_Source\PSoC5/USBUART.c ****     *  0            | VBUS is absent
2423:Generated_Source\PSoC5/USBUART.c ****     *
2424:Generated_Source\PSoC5/USBUART.c ****     *
2425:Generated_Source\PSoC5/USBUART.c ****     ***************************************************************************/
2426:Generated_Source\PSoC5/USBUART.c ****     uint8 USBUART_VBusPresent(void) 
2427:Generated_Source\PSoC5/USBUART.c ****     {
2428:Generated_Source\PSoC5/USBUART.c ****         return ((0u != (USBUART_VBUS_STATUS_REG & USBUART_VBUS_VALID)) ? (uint8) 1u : (uint8) 0u);
2429:Generated_Source\PSoC5/USBUART.c ****     }
2430:Generated_Source\PSoC5/USBUART.c **** #endif /* (USBUART_VBUS_MONITORING_ENABLE) */
2431:Generated_Source\PSoC5/USBUART.c **** 
2432:Generated_Source\PSoC5/USBUART.c **** 
2433:Generated_Source\PSoC5/USBUART.c **** /*******************************************************************************
2434:Generated_Source\PSoC5/USBUART.c **** * Function Name: USBUART_RWUEnabled
2435:Generated_Source\PSoC5/USBUART.c **** ****************************************************************************//**
2436:Generated_Source\PSoC5/USBUART.c **** *
2437:Generated_Source\PSoC5/USBUART.c **** *  This function returns the current remote wakeup status.
2438:Generated_Source\PSoC5/USBUART.c **** *  If the device supports remote wakeup, the application should use this
2439:Generated_Source\PSoC5/USBUART.c **** *  function to determine if remote wakeup was enabled by the host. When the
2440:Generated_Source\PSoC5/USBUART.c **** *  device is suspended and it determines the conditions to initiate a remote
2441:Generated_Source\PSoC5/USBUART.c **** *  wakeup are met, the application should use the USBFS_Force() function to
2442:Generated_Source\PSoC5/USBUART.c **** *  force the appropriate J and K states onto the USB bus, signaling a remote
2443:Generated_Source\PSoC5/USBUART.c **** *  wakeup.
2444:Generated_Source\PSoC5/USBUART.c **** *
2445:Generated_Source\PSoC5/USBUART.c **** *
ARM GAS  C:\Users\Keshuai\AppData\Local\Temp\ccTp3FAZ.s 			page 73


2446:Generated_Source\PSoC5/USBUART.c **** * \return
2447:Generated_Source\PSoC5/USBUART.c **** *  Returns non-zero value if remote wakeup is enabled and zero otherwise.
2448:Generated_Source\PSoC5/USBUART.c **** *
2449:Generated_Source\PSoC5/USBUART.c **** * \globalvars
2450:Generated_Source\PSoC5/USBUART.c **** *  USBUART_deviceStatus - checked to determine remote status
2451:Generated_Source\PSoC5/USBUART.c **** *
2452:Generated_Source\PSoC5/USBUART.c **** *******************************************************************************/
2453:Generated_Source\PSoC5/USBUART.c **** uint8 USBUART_RWUEnabled(void) 
2454:Generated_Source\PSoC5/USBUART.c **** {
 1652              		.loc 1 2454 0
 1653              		.cfi_startproc
 1654              		@ args = 0, pretend = 0, frame = 8
 1655              		@ frame_needed = 1, uses_anonymous_args = 0
 1656              		@ link register save eliminated.
 1657 0000 80B4     		push	{r7}
 1658              		.cfi_def_cfa_offset 4
 1659              		.cfi_offset 7, -4
 1660 0002 83B0     		sub	sp, sp, #12
 1661              		.cfi_def_cfa_offset 16
 1662 0004 00AF     		add	r7, sp, #0
 1663              		.cfi_def_cfa_register 7
2455:Generated_Source\PSoC5/USBUART.c ****     uint8 result = USBUART_FALSE;
 1664              		.loc 1 2455 0
 1665 0006 0023     		movs	r3, #0
 1666 0008 FB71     		strb	r3, [r7, #7]
2456:Generated_Source\PSoC5/USBUART.c **** 
2457:Generated_Source\PSoC5/USBUART.c ****     if (0u != (USBUART_deviceStatus & USBUART_DEVICE_STATUS_REMOTE_WAKEUP))
 1667              		.loc 1 2457 0
 1668 000a 084B     		ldr	r3, .L96
 1669 000c 1B78     		ldrb	r3, [r3]
 1670 000e DBB2     		uxtb	r3, r3
 1671 0010 03F00203 		and	r3, r3, #2
 1672 0014 002B     		cmp	r3, #0
 1673 0016 01D0     		beq	.L94
2458:Generated_Source\PSoC5/USBUART.c ****     {
2459:Generated_Source\PSoC5/USBUART.c ****         result = USBUART_TRUE;
 1674              		.loc 1 2459 0
 1675 0018 0123     		movs	r3, #1
 1676 001a FB71     		strb	r3, [r7, #7]
 1677              	.L94:
2460:Generated_Source\PSoC5/USBUART.c ****     }
2461:Generated_Source\PSoC5/USBUART.c **** 
2462:Generated_Source\PSoC5/USBUART.c ****     return (result);
 1678              		.loc 1 2462 0
 1679 001c FB79     		ldrb	r3, [r7, #7]	@ zero_extendqisi2
2463:Generated_Source\PSoC5/USBUART.c **** }
 1680              		.loc 1 2463 0
 1681 001e 1846     		mov	r0, r3
 1682 0020 0C37     		adds	r7, r7, #12
 1683              		.cfi_def_cfa_offset 4
 1684 0022 BD46     		mov	sp, r7
 1685              		.cfi_def_cfa_register 13
 1686              		@ sp needed
 1687 0024 5DF8047B 		ldr	r7, [sp], #4
 1688              		.cfi_restore 7
 1689              		.cfi_def_cfa_offset 0
 1690 0028 7047     		bx	lr
ARM GAS  C:\Users\Keshuai\AppData\Local\Temp\ccTp3FAZ.s 			page 74


 1691              	.L97:
 1692 002a 00BF     		.align	2
 1693              	.L96:
 1694 002c 00000000 		.word	USBUART_deviceStatus
 1695              		.cfi_endproc
 1696              	.LFE18:
 1697              		.size	USBUART_RWUEnabled, .-USBUART_RWUEnabled
 1698              		.section	.text.USBUART_GetDeviceAddress,"ax",%progbits
 1699              		.align	2
 1700              		.global	USBUART_GetDeviceAddress
 1701              		.thumb
 1702              		.thumb_func
 1703              		.type	USBUART_GetDeviceAddress, %function
 1704              	USBUART_GetDeviceAddress:
 1705              	.LFB19:
2464:Generated_Source\PSoC5/USBUART.c **** 
2465:Generated_Source\PSoC5/USBUART.c **** 
2466:Generated_Source\PSoC5/USBUART.c **** /*******************************************************************************
2467:Generated_Source\PSoC5/USBUART.c **** * Function Name: USBUART_GetDeviceAddress
2468:Generated_Source\PSoC5/USBUART.c **** ****************************************************************************//**
2469:Generated_Source\PSoC5/USBUART.c **** *
2470:Generated_Source\PSoC5/USBUART.c **** *  This function returns the currently assigned address for the USB device.
2471:Generated_Source\PSoC5/USBUART.c **** *
2472:Generated_Source\PSoC5/USBUART.c **** * \return
2473:Generated_Source\PSoC5/USBUART.c **** *  Returns the currently assigned address.
2474:Generated_Source\PSoC5/USBUART.c **** *  Returns 0 if the device has not yet been assigned an address.
2475:Generated_Source\PSoC5/USBUART.c **** *
2476:Generated_Source\PSoC5/USBUART.c **** *******************************************************************************/
2477:Generated_Source\PSoC5/USBUART.c **** uint8 USBUART_GetDeviceAddress(void) 
2478:Generated_Source\PSoC5/USBUART.c **** {
 1706              		.loc 1 2478 0
 1707              		.cfi_startproc
 1708              		@ args = 0, pretend = 0, frame = 0
 1709              		@ frame_needed = 1, uses_anonymous_args = 0
 1710              		@ link register save eliminated.
 1711 0000 80B4     		push	{r7}
 1712              		.cfi_def_cfa_offset 4
 1713              		.cfi_offset 7, -4
 1714 0002 00AF     		add	r7, sp, #0
 1715              		.cfi_def_cfa_register 7
2479:Generated_Source\PSoC5/USBUART.c ****     return (uint8)(USBUART_CR0_REG & USBUART_CR0_DEVICE_ADDRESS_MASK);
 1716              		.loc 1 2479 0
 1717 0004 054B     		ldr	r3, .L100
 1718 0006 1B78     		ldrb	r3, [r3]
 1719 0008 DBB2     		uxtb	r3, r3
 1720 000a 03F07F03 		and	r3, r3, #127
 1721 000e DBB2     		uxtb	r3, r3
2480:Generated_Source\PSoC5/USBUART.c **** }
 1722              		.loc 1 2480 0
 1723 0010 1846     		mov	r0, r3
 1724 0012 BD46     		mov	sp, r7
 1725              		.cfi_def_cfa_register 13
 1726              		@ sp needed
 1727 0014 5DF8047B 		ldr	r7, [sp], #4
 1728              		.cfi_restore 7
 1729              		.cfi_def_cfa_offset 0
 1730 0018 7047     		bx	lr
ARM GAS  C:\Users\Keshuai\AppData\Local\Temp\ccTp3FAZ.s 			page 75


 1731              	.L101:
 1732 001a 00BF     		.align	2
 1733              	.L100:
 1734 001c 08600040 		.word	1073766408
 1735              		.cfi_endproc
 1736              	.LFE19:
 1737              		.size	USBUART_GetDeviceAddress, .-USBUART_GetDeviceAddress
 1738              		.section	.text.USBUART_EnableSofInt,"ax",%progbits
 1739              		.align	2
 1740              		.global	USBUART_EnableSofInt
 1741              		.thumb
 1742              		.thumb_func
 1743              		.type	USBUART_EnableSofInt, %function
 1744              	USBUART_EnableSofInt:
 1745              	.LFB20:
2481:Generated_Source\PSoC5/USBUART.c **** 
2482:Generated_Source\PSoC5/USBUART.c **** 
2483:Generated_Source\PSoC5/USBUART.c **** /*******************************************************************************
2484:Generated_Source\PSoC5/USBUART.c **** * Function Name: USBUART_EnableSofInt
2485:Generated_Source\PSoC5/USBUART.c **** ****************************************************************************//**
2486:Generated_Source\PSoC5/USBUART.c **** *
2487:Generated_Source\PSoC5/USBUART.c **** *  This function enables interrupt generation when a Start-of-Frame (SOF)
2488:Generated_Source\PSoC5/USBUART.c **** *  packet is received from the host.
2489:Generated_Source\PSoC5/USBUART.c **** *
2490:Generated_Source\PSoC5/USBUART.c **** *******************************************************************************/
2491:Generated_Source\PSoC5/USBUART.c **** void USBUART_EnableSofInt(void) 
2492:Generated_Source\PSoC5/USBUART.c **** {
 1746              		.loc 1 2492 0
 1747              		.cfi_startproc
 1748              		@ args = 0, pretend = 0, frame = 0
 1749              		@ frame_needed = 1, uses_anonymous_args = 0
 1750              		@ link register save eliminated.
 1751 0000 80B4     		push	{r7}
 1752              		.cfi_def_cfa_offset 4
 1753              		.cfi_offset 7, -4
 1754 0002 00AF     		add	r7, sp, #0
 1755              		.cfi_def_cfa_register 7
2493:Generated_Source\PSoC5/USBUART.c **** #if (CY_PSOC4)
2494:Generated_Source\PSoC5/USBUART.c ****     /* Enable SOF interrupt interrupt source. */
2495:Generated_Source\PSoC5/USBUART.c ****     USBUART_INTR_SIE_MASK_REG |= (uint32) USBUART_INTR_SIE_SOF_INTR;
2496:Generated_Source\PSoC5/USBUART.c **** #else
2497:Generated_Source\PSoC5/USBUART.c ****     /* Enable SOF interrupt if it is present. */
2498:Generated_Source\PSoC5/USBUART.c ****     #if (USBUART_SOF_ISR_ACTIVE)
2499:Generated_Source\PSoC5/USBUART.c ****         CyIntEnable(USBUART_SOF_VECT_NUM);
 1756              		.loc 1 2499 0
 1757 0004 034B     		ldr	r3, .L103
 1758 0006 4FF40012 		mov	r2, #2097152
 1759 000a 1A60     		str	r2, [r3]
2500:Generated_Source\PSoC5/USBUART.c ****     #endif /* (USBUART_SOF_ISR_ACTIVE) */
2501:Generated_Source\PSoC5/USBUART.c **** #endif /* (CY_PSOC4) */
2502:Generated_Source\PSoC5/USBUART.c **** }
 1760              		.loc 1 2502 0
 1761 000c BD46     		mov	sp, r7
 1762              		.cfi_def_cfa_register 13
 1763              		@ sp needed
 1764 000e 5DF8047B 		ldr	r7, [sp], #4
 1765              		.cfi_restore 7
ARM GAS  C:\Users\Keshuai\AppData\Local\Temp\ccTp3FAZ.s 			page 76


 1766              		.cfi_def_cfa_offset 0
 1767 0012 7047     		bx	lr
 1768              	.L104:
 1769              		.align	2
 1770              	.L103:
 1771 0014 00E100E0 		.word	-536813312
 1772              		.cfi_endproc
 1773              	.LFE20:
 1774              		.size	USBUART_EnableSofInt, .-USBUART_EnableSofInt
 1775              		.section	.text.USBUART_DisableSofInt,"ax",%progbits
 1776              		.align	2
 1777              		.global	USBUART_DisableSofInt
 1778              		.thumb
 1779              		.thumb_func
 1780              		.type	USBUART_DisableSofInt, %function
 1781              	USBUART_DisableSofInt:
 1782              	.LFB21:
2503:Generated_Source\PSoC5/USBUART.c **** 
2504:Generated_Source\PSoC5/USBUART.c **** 
2505:Generated_Source\PSoC5/USBUART.c **** /*******************************************************************************
2506:Generated_Source\PSoC5/USBUART.c **** * Function Name: USBUART_DisableSofInt
2507:Generated_Source\PSoC5/USBUART.c **** ****************************************************************************//**
2508:Generated_Source\PSoC5/USBUART.c **** *
2509:Generated_Source\PSoC5/USBUART.c **** *  This function disables interrupt generation when a Start-of-Frame (SOF)
2510:Generated_Source\PSoC5/USBUART.c **** *  packet is received from the host.
2511:Generated_Source\PSoC5/USBUART.c **** *
2512:Generated_Source\PSoC5/USBUART.c **** *******************************************************************************/
2513:Generated_Source\PSoC5/USBUART.c **** void USBUART_DisableSofInt(void) 
2514:Generated_Source\PSoC5/USBUART.c **** {
 1783              		.loc 1 2514 0
 1784              		.cfi_startproc
 1785              		@ args = 0, pretend = 0, frame = 0
 1786              		@ frame_needed = 1, uses_anonymous_args = 0
 1787              		@ link register save eliminated.
 1788 0000 80B4     		push	{r7}
 1789              		.cfi_def_cfa_offset 4
 1790              		.cfi_offset 7, -4
 1791 0002 00AF     		add	r7, sp, #0
 1792              		.cfi_def_cfa_register 7
2515:Generated_Source\PSoC5/USBUART.c **** #if (CY_PSOC4)
2516:Generated_Source\PSoC5/USBUART.c ****     /* Disable SOF interrupt interrupt source. */
2517:Generated_Source\PSoC5/USBUART.c ****     USBUART_INTR_SIE_MASK_REG &= (uint32) ~USBUART_INTR_SIE_SOF_INTR;
2518:Generated_Source\PSoC5/USBUART.c **** #else
2519:Generated_Source\PSoC5/USBUART.c ****     /* Disable SOF interrupt if it is present. */
2520:Generated_Source\PSoC5/USBUART.c ****     #if (USBUART_SOF_ISR_ACTIVE)
2521:Generated_Source\PSoC5/USBUART.c ****         CyIntDisable(USBUART_SOF_VECT_NUM);
 1793              		.loc 1 2521 0
 1794 0004 034B     		ldr	r3, .L106
 1795 0006 4FF40012 		mov	r2, #2097152
 1796 000a 1A60     		str	r2, [r3]
2522:Generated_Source\PSoC5/USBUART.c ****     #endif /* (USBUART_SOF_ISR_ACTIVE) */
2523:Generated_Source\PSoC5/USBUART.c **** #endif /* (CY_PSOC4) */
2524:Generated_Source\PSoC5/USBUART.c **** }
 1797              		.loc 1 2524 0
 1798 000c BD46     		mov	sp, r7
 1799              		.cfi_def_cfa_register 13
 1800              		@ sp needed
ARM GAS  C:\Users\Keshuai\AppData\Local\Temp\ccTp3FAZ.s 			page 77


 1801 000e 5DF8047B 		ldr	r7, [sp], #4
 1802              		.cfi_restore 7
 1803              		.cfi_def_cfa_offset 0
 1804 0012 7047     		bx	lr
 1805              	.L107:
 1806              		.align	2
 1807              	.L106:
 1808 0014 80E100E0 		.word	-536813184
 1809              		.cfi_endproc
 1810              	.LFE21:
 1811              		.size	USBUART_DisableSofInt, .-USBUART_DisableSofInt
 1812              		.text
 1813              	.Letext0:
 1814              		.file 2 "Generated_Source\\PSoC5\\cytypes.h"
 1815              		.file 3 "Generated_Source\\PSoC5\\USBUART.h"
 1816              		.file 4 "Generated_Source\\PSoC5\\USBUART_pvt.h"
 1817              		.section	.debug_info,"",%progbits
 1818              	.Ldebug_info0:
 1819 0000 37070000 		.4byte	0x737
 1820 0004 0400     		.2byte	0x4
 1821 0006 00000000 		.4byte	.Ldebug_abbrev0
 1822 000a 04       		.byte	0x4
 1823 000b 01       		.uleb128 0x1
 1824 000c 85030000 		.4byte	.LASF92
 1825 0010 01       		.byte	0x1
 1826 0011 09030000 		.4byte	.LASF93
 1827 0015 77000000 		.4byte	.LASF94
 1828 0019 00000000 		.4byte	.Ldebug_ranges0+0
 1829 001d 00000000 		.4byte	0
 1830 0021 00000000 		.4byte	.Ldebug_line0
 1831 0025 02       		.uleb128 0x2
 1832 0026 01       		.byte	0x1
 1833 0027 06       		.byte	0x6
 1834 0028 35010000 		.4byte	.LASF0
 1835 002c 02       		.uleb128 0x2
 1836 002d 01       		.byte	0x1
 1837 002e 08       		.byte	0x8
 1838 002f 70040000 		.4byte	.LASF1
 1839 0033 02       		.uleb128 0x2
 1840 0034 02       		.byte	0x2
 1841 0035 05       		.byte	0x5
 1842 0036 7E040000 		.4byte	.LASF2
 1843 003a 02       		.uleb128 0x2
 1844 003b 02       		.byte	0x2
 1845 003c 07       		.byte	0x7
 1846 003d 8C020000 		.4byte	.LASF3
 1847 0041 02       		.uleb128 0x2
 1848 0042 04       		.byte	0x4
 1849 0043 05       		.byte	0x5
 1850 0044 9D010000 		.4byte	.LASF4
 1851 0048 02       		.uleb128 0x2
 1852 0049 04       		.byte	0x4
 1853 004a 07       		.byte	0x7
 1854 004b 7A020000 		.4byte	.LASF5
 1855 004f 02       		.uleb128 0x2
 1856 0050 08       		.byte	0x8
 1857 0051 05       		.byte	0x5
ARM GAS  C:\Users\Keshuai\AppData\Local\Temp\ccTp3FAZ.s 			page 78


 1858 0052 27010000 		.4byte	.LASF6
 1859 0056 02       		.uleb128 0x2
 1860 0057 08       		.byte	0x8
 1861 0058 07       		.byte	0x7
 1862 0059 D1000000 		.4byte	.LASF7
 1863 005d 03       		.uleb128 0x3
 1864 005e 04       		.byte	0x4
 1865 005f 05       		.byte	0x5
 1866 0060 696E7400 		.ascii	"int\000"
 1867 0064 02       		.uleb128 0x2
 1868 0065 04       		.byte	0x4
 1869 0066 07       		.byte	0x7
 1870 0067 6D020000 		.4byte	.LASF8
 1871 006b 04       		.uleb128 0x4
 1872 006c A6010000 		.4byte	.LASF9
 1873 0070 02       		.byte	0x2
 1874 0071 9201     		.2byte	0x192
 1875 0073 2C000000 		.4byte	0x2c
 1876 0077 04       		.uleb128 0x4
 1877 0078 00000000 		.4byte	.LASF10
 1878 007c 02       		.byte	0x2
 1879 007d 9301     		.2byte	0x193
 1880 007f 3A000000 		.4byte	0x3a
 1881 0083 04       		.uleb128 0x4
 1882 0084 3B020000 		.4byte	.LASF11
 1883 0088 02       		.byte	0x2
 1884 0089 9401     		.2byte	0x194
 1885 008b 48000000 		.4byte	0x48
 1886 008f 02       		.uleb128 0x2
 1887 0090 04       		.byte	0x4
 1888 0091 04       		.byte	0x4
 1889 0092 2F040000 		.4byte	.LASF12
 1890 0096 02       		.uleb128 0x2
 1891 0097 08       		.byte	0x8
 1892 0098 04       		.byte	0x4
 1893 0099 CE010000 		.4byte	.LASF13
 1894 009d 02       		.uleb128 0x2
 1895 009e 01       		.byte	0x1
 1896 009f 08       		.byte	0x8
 1897 00a0 E1040000 		.4byte	.LASF14
 1898 00a4 04       		.uleb128 0x4
 1899 00a5 52040000 		.4byte	.LASF15
 1900 00a9 02       		.byte	0x2
 1901 00aa 3C02     		.2byte	0x23c
 1902 00ac B0000000 		.4byte	0xb0
 1903 00b0 05       		.uleb128 0x5
 1904 00b1 6B000000 		.4byte	0x6b
 1905 00b5 04       		.uleb128 0x4
 1906 00b6 ED020000 		.4byte	.LASF16
 1907 00ba 02       		.byte	0x2
 1908 00bb 3E02     		.2byte	0x23e
 1909 00bd C1000000 		.4byte	0xc1
 1910 00c1 05       		.uleb128 0x5
 1911 00c2 83000000 		.4byte	0x83
 1912 00c6 02       		.uleb128 0x2
 1913 00c7 04       		.byte	0x4
 1914 00c8 07       		.byte	0x7
ARM GAS  C:\Users\Keshuai\AppData\Local\Temp\ccTp3FAZ.s 			page 79


 1915 00c9 61030000 		.4byte	.LASF17
 1916 00cd 06       		.uleb128 0x6
 1917 00ce 0C       		.byte	0xc
 1918 00cf 03       		.byte	0x3
 1919 00d0 95       		.byte	0x95
 1920 00d1 42010000 		.4byte	0x142
 1921 00d5 07       		.uleb128 0x7
 1922 00d6 7E030000 		.4byte	.LASF18
 1923 00da 03       		.byte	0x3
 1924 00db 97       		.byte	0x97
 1925 00dc 6B000000 		.4byte	0x6b
 1926 00e0 00       		.byte	0
 1927 00e1 07       		.uleb128 0x7
 1928 00e2 47040000 		.4byte	.LASF19
 1929 00e6 03       		.byte	0x3
 1930 00e7 98       		.byte	0x98
 1931 00e8 6B000000 		.4byte	0x6b
 1932 00ec 01       		.byte	0x1
 1933 00ed 07       		.uleb128 0x7
 1934 00ee 40030000 		.4byte	.LASF20
 1935 00f2 03       		.byte	0x3
 1936 00f3 99       		.byte	0x99
 1937 00f4 6B000000 		.4byte	0x6b
 1938 00f8 02       		.byte	0x2
 1939 00f9 07       		.uleb128 0x7
 1940 00fa AC010000 		.4byte	.LASF21
 1941 00fe 03       		.byte	0x3
 1942 00ff 9A       		.byte	0x9a
 1943 0100 6B000000 		.4byte	0x6b
 1944 0104 03       		.byte	0x3
 1945 0105 07       		.uleb128 0x7
 1946 0106 E8000000 		.4byte	.LASF22
 1947 010a 03       		.byte	0x3
 1948 010b 9B       		.byte	0x9b
 1949 010c 6B000000 		.4byte	0x6b
 1950 0110 04       		.byte	0x4
 1951 0111 07       		.uleb128 0x7
 1952 0112 48020000 		.4byte	.LASF23
 1953 0116 03       		.byte	0x3
 1954 0117 9C       		.byte	0x9c
 1955 0118 6B000000 		.4byte	0x6b
 1956 011c 05       		.byte	0x5
 1957 011d 07       		.uleb128 0x7
 1958 011e 0D050000 		.4byte	.LASF24
 1959 0122 03       		.byte	0x3
 1960 0123 9D       		.byte	0x9d
 1961 0124 77000000 		.4byte	0x77
 1962 0128 06       		.byte	0x6
 1963 0129 07       		.uleb128 0x7
 1964 012a EB040000 		.4byte	.LASF25
 1965 012e 03       		.byte	0x3
 1966 012f 9E       		.byte	0x9e
 1967 0130 77000000 		.4byte	0x77
 1968 0134 08       		.byte	0x8
 1969 0135 07       		.uleb128 0x7
 1970 0136 DC020000 		.4byte	.LASF26
 1971 013a 03       		.byte	0x3
ARM GAS  C:\Users\Keshuai\AppData\Local\Temp\ccTp3FAZ.s 			page 80


 1972 013b 9F       		.byte	0x9f
 1973 013c 6B000000 		.4byte	0x6b
 1974 0140 0A       		.byte	0xa
 1975 0141 00       		.byte	0
 1976 0142 08       		.uleb128 0x8
 1977 0143 F6040000 		.4byte	.LASF27
 1978 0147 03       		.byte	0x3
 1979 0148 A0       		.byte	0xa0
 1980 0149 CD000000 		.4byte	0xcd
 1981 014d 06       		.uleb128 0x6
 1982 014e 10       		.byte	0x10
 1983 014f 03       		.byte	0x3
 1984 0150 DC       		.byte	0xdc
 1985 0151 86010000 		.4byte	0x186
 1986 0155 07       		.uleb128 0x7
 1987 0156 1B040000 		.4byte	.LASF28
 1988 015a 03       		.byte	0x3
 1989 015b DE       		.byte	0xde
 1990 015c 6B000000 		.4byte	0x6b
 1991 0160 00       		.byte	0
 1992 0161 07       		.uleb128 0x7
 1993 0162 22040000 		.4byte	.LASF29
 1994 0166 03       		.byte	0x3
 1995 0167 DF       		.byte	0xdf
 1996 0168 6B000000 		.4byte	0x6b
 1997 016c 01       		.byte	0x1
 1998 016d 07       		.uleb128 0x7
 1999 016e 29040000 		.4byte	.LASF30
 2000 0172 03       		.byte	0x3
 2001 0173 E0       		.byte	0xe0
 2002 0174 6B000000 		.4byte	0x6b
 2003 0178 02       		.byte	0x2
 2004 0179 09       		.uleb128 0x9
 2005 017a 67617000 		.ascii	"gap\000"
 2006 017e 03       		.byte	0x3
 2007 017f E1       		.byte	0xe1
 2008 0180 86010000 		.4byte	0x186
 2009 0184 03       		.byte	0x3
 2010 0185 00       		.byte	0
 2011 0186 0A       		.uleb128 0xa
 2012 0187 6B000000 		.4byte	0x6b
 2013 018b 96010000 		.4byte	0x196
 2014 018f 0B       		.uleb128 0xb
 2015 0190 C6000000 		.4byte	0xc6
 2016 0194 0C       		.byte	0xc
 2017 0195 00       		.byte	0
 2018 0196 08       		.uleb128 0x8
 2019 0197 BD040000 		.4byte	.LASF31
 2020 019b 03       		.byte	0x3
 2021 019c E2       		.byte	0xe2
 2022 019d 4D010000 		.4byte	0x14d
 2023 01a1 06       		.uleb128 0x6
 2024 01a2 10       		.byte	0x10
 2025 01a3 03       		.byte	0x3
 2026 01a4 EE       		.byte	0xee
 2027 01a5 22020000 		.4byte	0x222
 2028 01a9 07       		.uleb128 0x7
ARM GAS  C:\Users\Keshuai\AppData\Local\Temp\ccTp3FAZ.s 			page 81


 2029 01aa ED000000 		.4byte	.LASF32
 2030 01ae 03       		.byte	0x3
 2031 01af F0       		.byte	0xf0
 2032 01b0 6B000000 		.4byte	0x6b
 2033 01b4 00       		.byte	0
 2034 01b5 07       		.uleb128 0x7
 2035 01b6 9C050000 		.4byte	.LASF33
 2036 01ba 03       		.byte	0x3
 2037 01bb F1       		.byte	0xf1
 2038 01bc 6B000000 		.4byte	0x6b
 2039 01c0 01       		.byte	0x1
 2040 01c1 07       		.uleb128 0x7
 2041 01c2 0E020000 		.4byte	.LASF34
 2042 01c6 03       		.byte	0x3
 2043 01c7 F2       		.byte	0xf2
 2044 01c8 6B000000 		.4byte	0x6b
 2045 01cc 02       		.byte	0x2
 2046 01cd 07       		.uleb128 0x7
 2047 01ce 4F020000 		.4byte	.LASF35
 2048 01d2 03       		.byte	0x3
 2049 01d3 F3       		.byte	0xf3
 2050 01d4 6B000000 		.4byte	0x6b
 2051 01d8 03       		.byte	0x3
 2052 01d9 07       		.uleb128 0x7
 2053 01da C9010000 		.4byte	.LASF36
 2054 01de 03       		.byte	0x3
 2055 01df F4       		.byte	0xf4
 2056 01e0 6B000000 		.4byte	0x6b
 2057 01e4 04       		.byte	0x4
 2058 01e5 07       		.uleb128 0x7
 2059 01e6 B5040000 		.4byte	.LASF37
 2060 01ea 03       		.byte	0x3
 2061 01eb F5       		.byte	0xf5
 2062 01ec 6B000000 		.4byte	0x6b
 2063 01f0 05       		.byte	0x5
 2064 01f1 07       		.uleb128 0x7
 2065 01f2 9B040000 		.4byte	.LASF38
 2066 01f6 03       		.byte	0x3
 2067 01f7 F6       		.byte	0xf6
 2068 01f8 6B000000 		.4byte	0x6b
 2069 01fc 06       		.byte	0x6
 2070 01fd 07       		.uleb128 0x7
 2071 01fe 13040000 		.4byte	.LASF39
 2072 0202 03       		.byte	0x3
 2073 0203 F7       		.byte	0xf7
 2074 0204 6B000000 		.4byte	0x6b
 2075 0208 07       		.byte	0x7
 2076 0209 07       		.uleb128 0x7
 2077 020a 4C050000 		.4byte	.LASF40
 2078 020e 03       		.byte	0x3
 2079 020f F8       		.byte	0xf8
 2080 0210 6B000000 		.4byte	0x6b
 2081 0214 08       		.byte	0x8
 2082 0215 09       		.uleb128 0x9
 2083 0216 67617000 		.ascii	"gap\000"
 2084 021a 03       		.byte	0x3
 2085 021b F9       		.byte	0xf9
ARM GAS  C:\Users\Keshuai\AppData\Local\Temp\ccTp3FAZ.s 			page 82


 2086 021c 22020000 		.4byte	0x222
 2087 0220 09       		.byte	0x9
 2088 0221 00       		.byte	0
 2089 0222 0A       		.uleb128 0xa
 2090 0223 6B000000 		.4byte	0x6b
 2091 0227 32020000 		.4byte	0x232
 2092 022b 0B       		.uleb128 0xb
 2093 022c C6000000 		.4byte	0xc6
 2094 0230 06       		.byte	0x6
 2095 0231 00       		.byte	0
 2096 0232 08       		.uleb128 0x8
 2097 0233 2A030000 		.4byte	.LASF41
 2098 0237 03       		.byte	0x3
 2099 0238 FA       		.byte	0xfa
 2100 0239 A1010000 		.4byte	0x1a1
 2101 023d 0C       		.uleb128 0xc
 2102 023e 90       		.byte	0x90
 2103 023f 03       		.byte	0x3
 2104 0240 1601     		.2byte	0x116
 2105 0242 54020000 		.4byte	0x254
 2106 0246 0D       		.uleb128 0xd
 2107 0247 6A030000 		.4byte	.LASF42
 2108 024b 03       		.byte	0x3
 2109 024c 1801     		.2byte	0x118
 2110 024e 54020000 		.4byte	0x254
 2111 0252 00       		.byte	0
 2112 0253 00       		.byte	0
 2113 0254 0A       		.uleb128 0xa
 2114 0255 96010000 		.4byte	0x196
 2115 0259 64020000 		.4byte	0x264
 2116 025d 0B       		.uleb128 0xb
 2117 025e C6000000 		.4byte	0xc6
 2118 0262 08       		.byte	0x8
 2119 0263 00       		.byte	0
 2120 0264 04       		.uleb128 0x4
 2121 0265 70010000 		.4byte	.LASF43
 2122 0269 03       		.byte	0x3
 2123 026a 1901     		.2byte	0x119
 2124 026c 3D020000 		.4byte	0x23d
 2125 0270 0C       		.uleb128 0xc
 2126 0271 90       		.byte	0x90
 2127 0272 03       		.byte	0x3
 2128 0273 1C01     		.2byte	0x11c
 2129 0275 87020000 		.4byte	0x287
 2130 0279 0D       		.uleb128 0xd
 2131 027a D6020000 		.4byte	.LASF44
 2132 027e 03       		.byte	0x3
 2133 027f 1E01     		.2byte	0x11e
 2134 0281 87020000 		.4byte	0x287
 2135 0285 00       		.byte	0
 2136 0286 00       		.byte	0
 2137 0287 0A       		.uleb128 0xa
 2138 0288 32020000 		.4byte	0x232
 2139 028c 97020000 		.4byte	0x297
 2140 0290 0B       		.uleb128 0xb
 2141 0291 C6000000 		.4byte	0xc6
 2142 0295 08       		.byte	0x8
ARM GAS  C:\Users\Keshuai\AppData\Local\Temp\ccTp3FAZ.s 			page 83


 2143 0296 00       		.byte	0
 2144 0297 04       		.uleb128 0x4
 2145 0298 4A030000 		.4byte	.LASF45
 2146 029c 03       		.byte	0x3
 2147 029d 1F01     		.2byte	0x11f
 2148 029f 70020000 		.4byte	0x270
 2149 02a3 0E       		.uleb128 0xe
 2150 02a4 9F020000 		.4byte	.LASF48
 2151 02a8 01       		.byte	0x1
 2152 02a9 BA       		.byte	0xba
 2153 02aa 00000000 		.4byte	.LFB0
 2154 02ae 38000000 		.4byte	.LFE0-.LFB0
 2155 02b2 01       		.uleb128 0x1
 2156 02b3 9C       		.byte	0x9c
 2157 02b4 D5020000 		.4byte	0x2d5
 2158 02b8 0F       		.uleb128 0xf
 2159 02b9 07010000 		.4byte	.LASF46
 2160 02bd 01       		.byte	0x1
 2161 02be BA       		.byte	0xba
 2162 02bf 6B000000 		.4byte	0x6b
 2163 02c3 02       		.uleb128 0x2
 2164 02c4 91       		.byte	0x91
 2165 02c5 77       		.sleb128 -9
 2166 02c6 0F       		.uleb128 0xf
 2167 02c7 E6040000 		.4byte	.LASF47
 2168 02cb 01       		.byte	0x1
 2169 02cc BA       		.byte	0xba
 2170 02cd 6B000000 		.4byte	0x6b
 2171 02d1 02       		.uleb128 0x2
 2172 02d2 91       		.byte	0x91
 2173 02d3 76       		.sleb128 -10
 2174 02d4 00       		.byte	0
 2175 02d5 0E       		.uleb128 0xe
 2176 02d6 C9020000 		.4byte	.LASF49
 2177 02da 01       		.byte	0x1
 2178 02db D3       		.byte	0xd3
 2179 02dc 00000000 		.4byte	.LFB1
 2180 02e0 8C010000 		.4byte	.LFE1-.LFB1
 2181 02e4 01       		.uleb128 0x1
 2182 02e5 9C       		.byte	0x9c
 2183 02e6 F9020000 		.4byte	0x2f9
 2184 02ea 10       		.uleb128 0x10
 2185 02eb 3B050000 		.4byte	.LASF51
 2186 02ef 01       		.byte	0x1
 2187 02f0 FA       		.byte	0xfa
 2188 02f1 6B000000 		.4byte	0x6b
 2189 02f5 02       		.uleb128 0x2
 2190 02f6 91       		.byte	0x91
 2191 02f7 77       		.sleb128 -9
 2192 02f8 00       		.byte	0
 2193 02f9 11       		.uleb128 0x11
 2194 02fa 51050000 		.4byte	.LASF50
 2195 02fe 01       		.byte	0x1
 2196 02ff CC01     		.2byte	0x1cc
 2197 0301 00000000 		.4byte	.LFB2
 2198 0305 18010000 		.4byte	.LFE2-.LFB2
 2199 0309 01       		.uleb128 0x1
ARM GAS  C:\Users\Keshuai\AppData\Local\Temp\ccTp3FAZ.s 			page 84


 2200 030a 9C       		.byte	0x9c
 2201 030b 3B030000 		.4byte	0x33b
 2202 030f 12       		.uleb128 0x12
 2203 0310 07010000 		.4byte	.LASF46
 2204 0314 01       		.byte	0x1
 2205 0315 CC01     		.2byte	0x1cc
 2206 0317 6B000000 		.4byte	0x6b
 2207 031b 02       		.uleb128 0x2
 2208 031c 91       		.byte	0x91
 2209 031d 6F       		.sleb128 -17
 2210 031e 12       		.uleb128 0x12
 2211 031f E6040000 		.4byte	.LASF47
 2212 0323 01       		.byte	0x1
 2213 0324 CC01     		.2byte	0x1cc
 2214 0326 6B000000 		.4byte	0x6b
 2215 032a 02       		.uleb128 0x2
 2216 032b 91       		.byte	0x91
 2217 032c 6E       		.sleb128 -18
 2218 032d 13       		.uleb128 0x13
 2219 032e 6900     		.ascii	"i\000"
 2220 0330 01       		.byte	0x1
 2221 0331 D301     		.2byte	0x1d3
 2222 0333 6B000000 		.4byte	0x6b
 2223 0337 02       		.uleb128 0x2
 2224 0338 91       		.byte	0x91
 2225 0339 77       		.sleb128 -9
 2226 033a 00       		.byte	0
 2227 033b 14       		.uleb128 0x14
 2228 033c A4050000 		.4byte	.LASF52
 2229 0340 01       		.byte	0x1
 2230 0341 9F02     		.2byte	0x29f
 2231 0343 00000000 		.4byte	.LFB3
 2232 0347 88000000 		.4byte	.LFE3-.LFB3
 2233 034b 01       		.uleb128 0x1
 2234 034c 9C       		.byte	0x9c
 2235 034d 5F030000 		.4byte	0x35f
 2236 0351 13       		.uleb128 0x13
 2237 0352 6900     		.ascii	"i\000"
 2238 0354 01       		.byte	0x1
 2239 0355 A502     		.2byte	0x2a5
 2240 0357 6B000000 		.4byte	0x6b
 2241 035b 02       		.uleb128 0x2
 2242 035c 91       		.byte	0x91
 2243 035d 77       		.sleb128 -9
 2244 035e 00       		.byte	0
 2245 035f 11       		.uleb128 0x11
 2246 0360 2F000000 		.4byte	.LASF53
 2247 0364 01       		.byte	0x1
 2248 0365 D902     		.2byte	0x2d9
 2249 0367 00000000 		.4byte	.LFB4
 2250 036b 04010000 		.4byte	.LFE4-.LFB4
 2251 036f 01       		.uleb128 0x1
 2252 0370 9C       		.byte	0x9c
 2253 0371 85030000 		.4byte	0x385
 2254 0375 15       		.uleb128 0x15
 2255 0376 3B050000 		.4byte	.LASF51
 2256 037a 01       		.byte	0x1
ARM GAS  C:\Users\Keshuai\AppData\Local\Temp\ccTp3FAZ.s 			page 85


 2257 037b DB02     		.2byte	0x2db
 2258 037d 6B000000 		.4byte	0x6b
 2259 0381 02       		.uleb128 0x2
 2260 0382 91       		.byte	0x91
 2261 0383 77       		.sleb128 -9
 2262 0384 00       		.byte	0
 2263 0385 16       		.uleb128 0x16
 2264 0386 87010000 		.4byte	.LASF55
 2265 038a 01       		.byte	0x1
 2266 038b 5103     		.2byte	0x351
 2267 038d 6B000000 		.4byte	0x6b
 2268 0391 00000000 		.4byte	.LFB5
 2269 0395 38000000 		.4byte	.LFE5-.LFB5
 2270 0399 01       		.uleb128 0x1
 2271 039a 9C       		.byte	0x9c
 2272 039b AF030000 		.4byte	0x3af
 2273 039f 15       		.uleb128 0x15
 2274 03a0 E6020000 		.4byte	.LASF54
 2275 03a4 01       		.byte	0x1
 2276 03a5 5303     		.2byte	0x353
 2277 03a7 6B000000 		.4byte	0x6b
 2278 03ab 02       		.uleb128 0x2
 2279 03ac 91       		.byte	0x91
 2280 03ad 77       		.sleb128 -9
 2281 03ae 00       		.byte	0
 2282 03af 17       		.uleb128 0x17
 2283 03b0 0E010000 		.4byte	.LASF76
 2284 03b4 01       		.byte	0x1
 2285 03b5 6803     		.2byte	0x368
 2286 03b7 6B000000 		.4byte	0x6b
 2287 03bb 00000000 		.4byte	.LFB6
 2288 03bf 18000000 		.4byte	.LFE6-.LFB6
 2289 03c3 01       		.uleb128 0x1
 2290 03c4 9C       		.byte	0x9c
 2291 03c5 16       		.uleb128 0x16
 2292 03c6 7D050000 		.4byte	.LASF56
 2293 03ca 01       		.byte	0x1
 2294 03cb 8203     		.2byte	0x382
 2295 03cd 6B000000 		.4byte	0x6b
 2296 03d1 00000000 		.4byte	.LFB7
 2297 03d5 34000000 		.4byte	.LFE7-.LFB7
 2298 03d9 01       		.uleb128 0x1
 2299 03da 9C       		.byte	0x9c
 2300 03db EF030000 		.4byte	0x3ef
 2301 03df 13       		.uleb128 0x13
 2302 03e0 72657300 		.ascii	"res\000"
 2303 03e4 01       		.byte	0x1
 2304 03e5 8403     		.2byte	0x384
 2305 03e7 6B000000 		.4byte	0x6b
 2306 03eb 02       		.uleb128 0x2
 2307 03ec 91       		.byte	0x91
 2308 03ed 77       		.sleb128 -9
 2309 03ee 00       		.byte	0
 2310 03ef 16       		.uleb128 0x16
 2311 03f0 AD020000 		.4byte	.LASF57
 2312 03f4 01       		.byte	0x1
 2313 03f5 9F03     		.2byte	0x39f
ARM GAS  C:\Users\Keshuai\AppData\Local\Temp\ccTp3FAZ.s 			page 86


 2314 03f7 6B000000 		.4byte	0x6b
 2315 03fb 00000000 		.4byte	.LFB8
 2316 03ff 24000000 		.4byte	.LFE8-.LFB8
 2317 0403 01       		.uleb128 0x1
 2318 0404 9C       		.byte	0x9c
 2319 0405 19040000 		.4byte	0x419
 2320 0409 12       		.uleb128 0x12
 2321 040a 18050000 		.4byte	.LASF58
 2322 040e 01       		.byte	0x1
 2323 040f 9F03     		.2byte	0x39f
 2324 0411 6B000000 		.4byte	0x6b
 2325 0415 02       		.uleb128 0x2
 2326 0416 91       		.byte	0x91
 2327 0417 77       		.sleb128 -9
 2328 0418 00       		.byte	0
 2329 0419 16       		.uleb128 0x16
 2330 041a 88040000 		.4byte	.LASF59
 2331 041e 01       		.byte	0x1
 2332 041f BF03     		.2byte	0x3bf
 2333 0421 6B000000 		.4byte	0x6b
 2334 0425 00000000 		.4byte	.LFB9
 2335 0429 2C000000 		.4byte	.LFE9-.LFB9
 2336 042d 01       		.uleb128 0x1
 2337 042e 9C       		.byte	0x9c
 2338 042f 43040000 		.4byte	0x443
 2339 0433 12       		.uleb128 0x12
 2340 0434 FE000000 		.4byte	.LASF60
 2341 0438 01       		.byte	0x1
 2342 0439 BF03     		.2byte	0x3bf
 2343 043b 6B000000 		.4byte	0x6b
 2344 043f 02       		.uleb128 0x2
 2345 0440 91       		.byte	0x91
 2346 0441 77       		.sleb128 -9
 2347 0442 00       		.byte	0
 2348 0443 16       		.uleb128 0x16
 2349 0444 28050000 		.4byte	.LASF61
 2350 0448 01       		.byte	0x1
 2351 0449 D603     		.2byte	0x3d6
 2352 044b 77000000 		.4byte	0x77
 2353 044f 00000000 		.4byte	.LFB10
 2354 0453 60000000 		.4byte	.LFE10-.LFB10
 2355 0457 01       		.uleb128 0x1
 2356 0458 9C       		.byte	0x9c
 2357 0459 7C040000 		.4byte	0x47c
 2358 045d 12       		.uleb128 0x12
 2359 045e FE000000 		.4byte	.LASF60
 2360 0462 01       		.byte	0x1
 2361 0463 D603     		.2byte	0x3d6
 2362 0465 6B000000 		.4byte	0x6b
 2363 0469 02       		.uleb128 0x2
 2364 046a 91       		.byte	0x91
 2365 046b 6F       		.sleb128 -17
 2366 046c 15       		.uleb128 0x15
 2367 046d 6B010000 		.4byte	.LASF62
 2368 0471 01       		.byte	0x1
 2369 0472 D803     		.2byte	0x3d8
 2370 0474 77000000 		.4byte	0x77
ARM GAS  C:\Users\Keshuai\AppData\Local\Temp\ccTp3FAZ.s 			page 87


 2371 0478 02       		.uleb128 0x2
 2372 0479 91       		.byte	0x91
 2373 047a 76       		.sleb128 -10
 2374 047b 00       		.byte	0
 2375 047c 14       		.uleb128 0x14
 2376 047d 66000000 		.4byte	.LASF63
 2377 0481 01       		.byte	0x1
 2378 0482 3E05     		.2byte	0x53e
 2379 0484 00000000 		.4byte	.LFB11
 2380 0488 F8000000 		.4byte	.LFE11-.LFB11
 2381 048c 01       		.uleb128 0x1
 2382 048d 9C       		.byte	0x9c
 2383 048e D7040000 		.4byte	0x4d7
 2384 0492 12       		.uleb128 0x12
 2385 0493 FE000000 		.4byte	.LASF60
 2386 0497 01       		.byte	0x1
 2387 0498 3E05     		.2byte	0x53e
 2388 049a 6B000000 		.4byte	0x6b
 2389 049e 02       		.uleb128 0x2
 2390 049f 91       		.byte	0x91
 2391 04a0 67       		.sleb128 -25
 2392 04a1 12       		.uleb128 0x12
 2393 04a2 42020000 		.4byte	.LASF64
 2394 04a6 01       		.byte	0x1
 2395 04a7 3E05     		.2byte	0x53e
 2396 04a9 D7040000 		.4byte	0x4d7
 2397 04ad 02       		.uleb128 0x2
 2398 04ae 91       		.byte	0x91
 2399 04af 60       		.sleb128 -32
 2400 04b0 12       		.uleb128 0x12
 2401 04b1 DA040000 		.4byte	.LASF65
 2402 04b5 01       		.byte	0x1
 2403 04b6 3E05     		.2byte	0x53e
 2404 04b8 77000000 		.4byte	0x77
 2405 04bc 02       		.uleb128 0x2
 2406 04bd 91       		.byte	0x91
 2407 04be 64       		.sleb128 -28
 2408 04bf 18       		.uleb128 0x18
 2409 04c0 8E000000 		.4byte	.LBB2
 2410 04c4 28000000 		.4byte	.LBE2-.LBB2
 2411 04c8 13       		.uleb128 0x13
 2412 04c9 6900     		.ascii	"i\000"
 2413 04cb 01       		.byte	0x1
 2414 04cc 5305     		.2byte	0x553
 2415 04ce 77000000 		.4byte	0x77
 2416 04d2 02       		.uleb128 0x2
 2417 04d3 91       		.byte	0x91
 2418 04d4 6E       		.sleb128 -18
 2419 04d5 00       		.byte	0
 2420 04d6 00       		.byte	0
 2421 04d7 19       		.uleb128 0x19
 2422 04d8 04       		.byte	0x4
 2423 04d9 DD040000 		.4byte	0x4dd
 2424 04dd 1A       		.uleb128 0x1a
 2425 04de 6B000000 		.4byte	0x6b
 2426 04e2 1B       		.uleb128 0x1b
 2427 04e3 35040000 		.4byte	.LASF66
ARM GAS  C:\Users\Keshuai\AppData\Local\Temp\ccTp3FAZ.s 			page 88


 2428 04e7 01       		.byte	0x1
 2429 04e8 7506     		.2byte	0x675
 2430 04ea 77000000 		.4byte	0x77
 2431 04ee 00000000 		.4byte	.LFB12
 2432 04f2 8C000000 		.4byte	.LFE12-.LFB12
 2433 04f6 01       		.uleb128 0x1
 2434 04f7 9C       		.byte	0x9c
 2435 04f8 41050000 		.4byte	0x541
 2436 04fc 12       		.uleb128 0x12
 2437 04fd FE000000 		.4byte	.LASF60
 2438 0501 01       		.byte	0x1
 2439 0502 7506     		.2byte	0x675
 2440 0504 6B000000 		.4byte	0x6b
 2441 0508 02       		.uleb128 0x2
 2442 0509 91       		.byte	0x91
 2443 050a 6F       		.sleb128 -17
 2444 050b 12       		.uleb128 0x12
 2445 050c 42020000 		.4byte	.LASF64
 2446 0510 01       		.byte	0x1
 2447 0511 7506     		.2byte	0x675
 2448 0513 41050000 		.4byte	0x541
 2449 0517 02       		.uleb128 0x2
 2450 0518 91       		.byte	0x91
 2451 0519 68       		.sleb128 -24
 2452 051a 12       		.uleb128 0x12
 2453 051b DA040000 		.4byte	.LASF65
 2454 051f 01       		.byte	0x1
 2455 0520 7506     		.2byte	0x675
 2456 0522 77000000 		.4byte	0x77
 2457 0526 02       		.uleb128 0x2
 2458 0527 91       		.byte	0x91
 2459 0528 6C       		.sleb128 -20
 2460 0529 18       		.uleb128 0x18
 2461 052a 44000000 		.4byte	.LBB3
 2462 052e 2A000000 		.4byte	.LBE3-.LBB3
 2463 0532 13       		.uleb128 0x13
 2464 0533 6900     		.ascii	"i\000"
 2465 0535 01       		.byte	0x1
 2466 0536 8206     		.2byte	0x682
 2467 0538 77000000 		.4byte	0x77
 2468 053c 02       		.uleb128 0x2
 2469 053d 91       		.byte	0x91
 2470 053e 76       		.sleb128 -10
 2471 053f 00       		.byte	0
 2472 0540 00       		.byte	0
 2473 0541 19       		.uleb128 0x19
 2474 0542 04       		.byte	0x4
 2475 0543 6B000000 		.4byte	0x6b
 2476 0547 14       		.uleb128 0x14
 2477 0548 41010000 		.4byte	.LASF67
 2478 054c 01       		.byte	0x1
 2479 054d E408     		.2byte	0x8e4
 2480 054f 00000000 		.4byte	.LFB13
 2481 0553 54000000 		.4byte	.LFE13-.LFB13
 2482 0557 01       		.uleb128 0x1
 2483 0558 9C       		.byte	0x9c
 2484 0559 6D050000 		.4byte	0x56d
ARM GAS  C:\Users\Keshuai\AppData\Local\Temp\ccTp3FAZ.s 			page 89


 2485 055d 12       		.uleb128 0x12
 2486 055e FE000000 		.4byte	.LASF60
 2487 0562 01       		.byte	0x1
 2488 0563 E408     		.2byte	0x8e4
 2489 0565 6B000000 		.4byte	0x6b
 2490 0569 02       		.uleb128 0x2
 2491 056a 91       		.byte	0x91
 2492 056b 77       		.sleb128 -9
 2493 056c 00       		.byte	0
 2494 056d 14       		.uleb128 0x14
 2495 056e A0040000 		.4byte	.LASF68
 2496 0572 01       		.byte	0x1
 2497 0573 FC08     		.2byte	0x8fc
 2498 0575 00000000 		.4byte	.LFB14
 2499 0579 30000000 		.4byte	.LFE14-.LFB14
 2500 057d 01       		.uleb128 0x1
 2501 057e 9C       		.byte	0x9c
 2502 057f 93050000 		.4byte	0x593
 2503 0583 12       		.uleb128 0x12
 2504 0584 FE000000 		.4byte	.LASF60
 2505 0588 01       		.byte	0x1
 2506 0589 FC08     		.2byte	0x8fc
 2507 058b 6B000000 		.4byte	0x6b
 2508 058f 02       		.uleb128 0x2
 2509 0590 91       		.byte	0x91
 2510 0591 77       		.sleb128 -9
 2511 0592 00       		.byte	0
 2512 0593 14       		.uleb128 0x14
 2513 0594 70030000 		.4byte	.LASF69
 2514 0598 01       		.byte	0x1
 2515 0599 1A09     		.2byte	0x91a
 2516 059b 00000000 		.4byte	.LFB15
 2517 059f 20000000 		.4byte	.LFE15-.LFB15
 2518 05a3 01       		.uleb128 0x1
 2519 05a4 9C       		.byte	0x9c
 2520 05a5 B9050000 		.4byte	0x5b9
 2521 05a9 12       		.uleb128 0x12
 2522 05aa D3040000 		.4byte	.LASF70
 2523 05ae 01       		.byte	0x1
 2524 05af 1A09     		.2byte	0x91a
 2525 05b1 6B000000 		.4byte	0x6b
 2526 05b5 02       		.uleb128 0x2
 2527 05b6 91       		.byte	0x91
 2528 05b7 77       		.sleb128 -9
 2529 05b8 00       		.byte	0
 2530 05b9 16       		.uleb128 0x16
 2531 05ba 55010000 		.4byte	.LASF71
 2532 05be 01       		.byte	0x1
 2533 05bf 3309     		.2byte	0x933
 2534 05c1 6B000000 		.4byte	0x6b
 2535 05c5 00000000 		.4byte	.LFB16
 2536 05c9 40000000 		.4byte	.LFE16-.LFB16
 2537 05cd 01       		.uleb128 0x1
 2538 05ce 9C       		.byte	0x9c
 2539 05cf F1050000 		.4byte	0x5f1
 2540 05d3 12       		.uleb128 0x12
 2541 05d4 FE000000 		.4byte	.LASF60
ARM GAS  C:\Users\Keshuai\AppData\Local\Temp\ccTp3FAZ.s 			page 90


 2542 05d8 01       		.byte	0x1
 2543 05d9 3309     		.2byte	0x933
 2544 05db 6B000000 		.4byte	0x6b
 2545 05df 02       		.uleb128 0x2
 2546 05e0 91       		.byte	0x91
 2547 05e1 6F       		.sleb128 -17
 2548 05e2 13       		.uleb128 0x13
 2549 05e3 637200   		.ascii	"cr\000"
 2550 05e6 01       		.byte	0x1
 2551 05e7 3509     		.2byte	0x935
 2552 05e9 6B000000 		.4byte	0x6b
 2553 05ed 02       		.uleb128 0x2
 2554 05ee 91       		.byte	0x91
 2555 05ef 77       		.sleb128 -9
 2556 05f0 00       		.byte	0
 2557 05f1 14       		.uleb128 0x14
 2558 05f2 F7010000 		.4byte	.LASF72
 2559 05f6 01       		.byte	0x1
 2560 05f7 5C09     		.2byte	0x95c
 2561 05f9 00000000 		.4byte	.LFB17
 2562 05fd 40000000 		.4byte	.LFE17-.LFB17
 2563 0601 01       		.uleb128 0x1
 2564 0602 9C       		.byte	0x9c
 2565 0603 17060000 		.4byte	0x617
 2566 0607 12       		.uleb128 0x12
 2567 0608 D5010000 		.4byte	.LASF73
 2568 060c 01       		.byte	0x1
 2569 060d 5C09     		.2byte	0x95c
 2570 060f 6B000000 		.4byte	0x6b
 2571 0613 02       		.uleb128 0x2
 2572 0614 91       		.byte	0x91
 2573 0615 77       		.sleb128 -9
 2574 0616 00       		.byte	0
 2575 0617 16       		.uleb128 0x16
 2576 0618 3C000000 		.4byte	.LASF74
 2577 061c 01       		.byte	0x1
 2578 061d 9509     		.2byte	0x995
 2579 061f 6B000000 		.4byte	0x6b
 2580 0623 00000000 		.4byte	.LFB18
 2581 0627 30000000 		.4byte	.LFE18-.LFB18
 2582 062b 01       		.uleb128 0x1
 2583 062c 9C       		.byte	0x9c
 2584 062d 41060000 		.4byte	0x641
 2585 0631 15       		.uleb128 0x15
 2586 0632 04060000 		.4byte	.LASF75
 2587 0636 01       		.byte	0x1
 2588 0637 9709     		.2byte	0x997
 2589 0639 6B000000 		.4byte	0x6b
 2590 063d 02       		.uleb128 0x2
 2591 063e 91       		.byte	0x91
 2592 063f 77       		.sleb128 -9
 2593 0640 00       		.byte	0
 2594 0641 17       		.uleb128 0x17
 2595 0642 16000000 		.4byte	.LASF77
 2596 0646 01       		.byte	0x1
 2597 0647 AD09     		.2byte	0x9ad
 2598 0649 6B000000 		.4byte	0x6b
ARM GAS  C:\Users\Keshuai\AppData\Local\Temp\ccTp3FAZ.s 			page 91


 2599 064d 00000000 		.4byte	.LFB19
 2600 0651 20000000 		.4byte	.LFE19-.LFB19
 2601 0655 01       		.uleb128 0x1
 2602 0656 9C       		.byte	0x9c
 2603 0657 1C       		.uleb128 0x1c
 2604 0658 D2050000 		.4byte	.LASF78
 2605 065c 01       		.byte	0x1
 2606 065d BB09     		.2byte	0x9bb
 2607 065f 00000000 		.4byte	.LFB20
 2608 0663 18000000 		.4byte	.LFE20-.LFB20
 2609 0667 01       		.uleb128 0x1
 2610 0668 9C       		.byte	0x9c
 2611 0669 1C       		.uleb128 0x1c
 2612 066a E1010000 		.4byte	.LASF79
 2613 066e 01       		.byte	0x1
 2614 066f D109     		.2byte	0x9d1
 2615 0671 00000000 		.4byte	.LFB21
 2616 0675 18000000 		.4byte	.LFE21-.LFB21
 2617 0679 01       		.uleb128 0x1
 2618 067a 9C       		.byte	0x9c
 2619 067b 1D       		.uleb128 0x1d
 2620 067c 13020000 		.4byte	.LASF80
 2621 0680 01       		.byte	0x1
 2622 0681 28       		.byte	0x28
 2623 0682 6B000000 		.4byte	0x6b
 2624 0686 05       		.uleb128 0x5
 2625 0687 03       		.byte	0x3
 2626 0688 00000000 		.4byte	USBUART_initVar
 2627 068c 1E       		.uleb128 0x1e
 2628 068d 07000000 		.4byte	.LASF81
 2629 0691 03       		.byte	0x3
 2630 0692 DA02     		.2byte	0x2da
 2631 0694 B0000000 		.4byte	0xb0
 2632 0698 1E       		.uleb128 0x1e
 2633 0699 BC050000 		.4byte	.LASF82
 2634 069d 03       		.byte	0x3
 2635 069e DB02     		.2byte	0x2db
 2636 06a0 B0000000 		.4byte	0xb0
 2637 06a4 1E       		.uleb128 0x1e
 2638 06a5 67050000 		.4byte	.LASF83
 2639 06a9 03       		.byte	0x3
 2640 06aa DC02     		.2byte	0x2dc
 2641 06ac B0000000 		.4byte	0xb0
 2642 06b0 1E       		.uleb128 0x1e
 2643 06b1 E7050000 		.4byte	.LASF84
 2644 06b5 03       		.byte	0x3
 2645 06b6 DD02     		.2byte	0x2dd
 2646 06b8 B0000000 		.4byte	0xb0
 2647 06bc 1E       		.uleb128 0x1e
 2648 06bd 58020000 		.4byte	.LASF85
 2649 06c1 03       		.byte	0x3
 2650 06c2 DE02     		.2byte	0x2de
 2651 06c4 B0000000 		.4byte	0xb0
 2652 06c8 0A       		.uleb128 0xa
 2653 06c9 6B000000 		.4byte	0x6b
 2654 06cd D8060000 		.4byte	0x6d8
 2655 06d1 0B       		.uleb128 0xb
ARM GAS  C:\Users\Keshuai\AppData\Local\Temp\ccTp3FAZ.s 			page 92


 2656 06d2 C6000000 		.4byte	0xc6
 2657 06d6 00       		.byte	0
 2658 06d7 00       		.byte	0
 2659 06d8 1E       		.uleb128 0x1e
 2660 06d9 B5010000 		.4byte	.LASF86
 2661 06dd 03       		.byte	0x3
 2662 06de E702     		.2byte	0x2e7
 2663 06e0 E4060000 		.4byte	0x6e4
 2664 06e4 05       		.uleb128 0x5
 2665 06e5 C8060000 		.4byte	0x6c8
 2666 06e9 1F       		.uleb128 0x1f
 2667 06ea 23020000 		.4byte	.LASF87
 2668 06ee 04       		.byte	0x4
 2669 06ef 7D       		.byte	0x7d
 2670 06f0 B0000000 		.4byte	0xb0
 2671 06f4 1F       		.uleb128 0x1f
 2672 06f5 57040000 		.4byte	.LASF88
 2673 06f9 04       		.byte	0x4
 2674 06fa 7E       		.byte	0x7e
 2675 06fb FF060000 		.4byte	0x6ff
 2676 06ff 05       		.uleb128 0x5
 2677 0700 C8060000 		.4byte	0x6c8
 2678 0704 1F       		.uleb128 0x1f
 2679 0705 F3020000 		.4byte	.LASF89
 2680 0709 04       		.byte	0x4
 2681 070a 80       		.byte	0x80
 2682 070b B0000000 		.4byte	0xb0
 2683 070f 0A       		.uleb128 0xa
 2684 0710 42010000 		.4byte	0x142
 2685 0714 1F070000 		.4byte	0x71f
 2686 0718 0B       		.uleb128 0xb
 2687 0719 C6000000 		.4byte	0xc6
 2688 071d 08       		.byte	0x8
 2689 071e 00       		.byte	0
 2690 071f 1F       		.uleb128 0x1f
 2691 0720 F3000000 		.4byte	.LASF90
 2692 0724 04       		.byte	0x4
 2693 0725 84       		.byte	0x84
 2694 0726 2A070000 		.4byte	0x72a
 2695 072a 05       		.uleb128 0x5
 2696 072b 0F070000 		.4byte	0x70f
 2697 072f 1F       		.uleb128 0x1f
 2698 0730 4F000000 		.4byte	.LASF91
 2699 0734 04       		.byte	0x4
 2700 0735 A6       		.byte	0xa6
 2701 0736 B0000000 		.4byte	0xb0
 2702 073a 00       		.byte	0
 2703              		.section	.debug_abbrev,"",%progbits
 2704              	.Ldebug_abbrev0:
 2705 0000 01       		.uleb128 0x1
 2706 0001 11       		.uleb128 0x11
 2707 0002 01       		.byte	0x1
 2708 0003 25       		.uleb128 0x25
 2709 0004 0E       		.uleb128 0xe
 2710 0005 13       		.uleb128 0x13
 2711 0006 0B       		.uleb128 0xb
 2712 0007 03       		.uleb128 0x3
ARM GAS  C:\Users\Keshuai\AppData\Local\Temp\ccTp3FAZ.s 			page 93


 2713 0008 0E       		.uleb128 0xe
 2714 0009 1B       		.uleb128 0x1b
 2715 000a 0E       		.uleb128 0xe
 2716 000b 55       		.uleb128 0x55
 2717 000c 17       		.uleb128 0x17
 2718 000d 11       		.uleb128 0x11
 2719 000e 01       		.uleb128 0x1
 2720 000f 10       		.uleb128 0x10
 2721 0010 17       		.uleb128 0x17
 2722 0011 00       		.byte	0
 2723 0012 00       		.byte	0
 2724 0013 02       		.uleb128 0x2
 2725 0014 24       		.uleb128 0x24
 2726 0015 00       		.byte	0
 2727 0016 0B       		.uleb128 0xb
 2728 0017 0B       		.uleb128 0xb
 2729 0018 3E       		.uleb128 0x3e
 2730 0019 0B       		.uleb128 0xb
 2731 001a 03       		.uleb128 0x3
 2732 001b 0E       		.uleb128 0xe
 2733 001c 00       		.byte	0
 2734 001d 00       		.byte	0
 2735 001e 03       		.uleb128 0x3
 2736 001f 24       		.uleb128 0x24
 2737 0020 00       		.byte	0
 2738 0021 0B       		.uleb128 0xb
 2739 0022 0B       		.uleb128 0xb
 2740 0023 3E       		.uleb128 0x3e
 2741 0024 0B       		.uleb128 0xb
 2742 0025 03       		.uleb128 0x3
 2743 0026 08       		.uleb128 0x8
 2744 0027 00       		.byte	0
 2745 0028 00       		.byte	0
 2746 0029 04       		.uleb128 0x4
 2747 002a 16       		.uleb128 0x16
 2748 002b 00       		.byte	0
 2749 002c 03       		.uleb128 0x3
 2750 002d 0E       		.uleb128 0xe
 2751 002e 3A       		.uleb128 0x3a
 2752 002f 0B       		.uleb128 0xb
 2753 0030 3B       		.uleb128 0x3b
 2754 0031 05       		.uleb128 0x5
 2755 0032 49       		.uleb128 0x49
 2756 0033 13       		.uleb128 0x13
 2757 0034 00       		.byte	0
 2758 0035 00       		.byte	0
 2759 0036 05       		.uleb128 0x5
 2760 0037 35       		.uleb128 0x35
 2761 0038 00       		.byte	0
 2762 0039 49       		.uleb128 0x49
 2763 003a 13       		.uleb128 0x13
 2764 003b 00       		.byte	0
 2765 003c 00       		.byte	0
 2766 003d 06       		.uleb128 0x6
 2767 003e 13       		.uleb128 0x13
 2768 003f 01       		.byte	0x1
 2769 0040 0B       		.uleb128 0xb
ARM GAS  C:\Users\Keshuai\AppData\Local\Temp\ccTp3FAZ.s 			page 94


 2770 0041 0B       		.uleb128 0xb
 2771 0042 3A       		.uleb128 0x3a
 2772 0043 0B       		.uleb128 0xb
 2773 0044 3B       		.uleb128 0x3b
 2774 0045 0B       		.uleb128 0xb
 2775 0046 01       		.uleb128 0x1
 2776 0047 13       		.uleb128 0x13
 2777 0048 00       		.byte	0
 2778 0049 00       		.byte	0
 2779 004a 07       		.uleb128 0x7
 2780 004b 0D       		.uleb128 0xd
 2781 004c 00       		.byte	0
 2782 004d 03       		.uleb128 0x3
 2783 004e 0E       		.uleb128 0xe
 2784 004f 3A       		.uleb128 0x3a
 2785 0050 0B       		.uleb128 0xb
 2786 0051 3B       		.uleb128 0x3b
 2787 0052 0B       		.uleb128 0xb
 2788 0053 49       		.uleb128 0x49
 2789 0054 13       		.uleb128 0x13
 2790 0055 38       		.uleb128 0x38
 2791 0056 0B       		.uleb128 0xb
 2792 0057 00       		.byte	0
 2793 0058 00       		.byte	0
 2794 0059 08       		.uleb128 0x8
 2795 005a 16       		.uleb128 0x16
 2796 005b 00       		.byte	0
 2797 005c 03       		.uleb128 0x3
 2798 005d 0E       		.uleb128 0xe
 2799 005e 3A       		.uleb128 0x3a
 2800 005f 0B       		.uleb128 0xb
 2801 0060 3B       		.uleb128 0x3b
 2802 0061 0B       		.uleb128 0xb
 2803 0062 49       		.uleb128 0x49
 2804 0063 13       		.uleb128 0x13
 2805 0064 00       		.byte	0
 2806 0065 00       		.byte	0
 2807 0066 09       		.uleb128 0x9
 2808 0067 0D       		.uleb128 0xd
 2809 0068 00       		.byte	0
 2810 0069 03       		.uleb128 0x3
 2811 006a 08       		.uleb128 0x8
 2812 006b 3A       		.uleb128 0x3a
 2813 006c 0B       		.uleb128 0xb
 2814 006d 3B       		.uleb128 0x3b
 2815 006e 0B       		.uleb128 0xb
 2816 006f 49       		.uleb128 0x49
 2817 0070 13       		.uleb128 0x13
 2818 0071 38       		.uleb128 0x38
 2819 0072 0B       		.uleb128 0xb
 2820 0073 00       		.byte	0
 2821 0074 00       		.byte	0
 2822 0075 0A       		.uleb128 0xa
 2823 0076 01       		.uleb128 0x1
 2824 0077 01       		.byte	0x1
 2825 0078 49       		.uleb128 0x49
 2826 0079 13       		.uleb128 0x13
ARM GAS  C:\Users\Keshuai\AppData\Local\Temp\ccTp3FAZ.s 			page 95


 2827 007a 01       		.uleb128 0x1
 2828 007b 13       		.uleb128 0x13
 2829 007c 00       		.byte	0
 2830 007d 00       		.byte	0
 2831 007e 0B       		.uleb128 0xb
 2832 007f 21       		.uleb128 0x21
 2833 0080 00       		.byte	0
 2834 0081 49       		.uleb128 0x49
 2835 0082 13       		.uleb128 0x13
 2836 0083 2F       		.uleb128 0x2f
 2837 0084 0B       		.uleb128 0xb
 2838 0085 00       		.byte	0
 2839 0086 00       		.byte	0
 2840 0087 0C       		.uleb128 0xc
 2841 0088 13       		.uleb128 0x13
 2842 0089 01       		.byte	0x1
 2843 008a 0B       		.uleb128 0xb
 2844 008b 0B       		.uleb128 0xb
 2845 008c 3A       		.uleb128 0x3a
 2846 008d 0B       		.uleb128 0xb
 2847 008e 3B       		.uleb128 0x3b
 2848 008f 05       		.uleb128 0x5
 2849 0090 01       		.uleb128 0x1
 2850 0091 13       		.uleb128 0x13
 2851 0092 00       		.byte	0
 2852 0093 00       		.byte	0
 2853 0094 0D       		.uleb128 0xd
 2854 0095 0D       		.uleb128 0xd
 2855 0096 00       		.byte	0
 2856 0097 03       		.uleb128 0x3
 2857 0098 0E       		.uleb128 0xe
 2858 0099 3A       		.uleb128 0x3a
 2859 009a 0B       		.uleb128 0xb
 2860 009b 3B       		.uleb128 0x3b
 2861 009c 05       		.uleb128 0x5
 2862 009d 49       		.uleb128 0x49
 2863 009e 13       		.uleb128 0x13
 2864 009f 38       		.uleb128 0x38
 2865 00a0 0B       		.uleb128 0xb
 2866 00a1 00       		.byte	0
 2867 00a2 00       		.byte	0
 2868 00a3 0E       		.uleb128 0xe
 2869 00a4 2E       		.uleb128 0x2e
 2870 00a5 01       		.byte	0x1
 2871 00a6 3F       		.uleb128 0x3f
 2872 00a7 19       		.uleb128 0x19
 2873 00a8 03       		.uleb128 0x3
 2874 00a9 0E       		.uleb128 0xe
 2875 00aa 3A       		.uleb128 0x3a
 2876 00ab 0B       		.uleb128 0xb
 2877 00ac 3B       		.uleb128 0x3b
 2878 00ad 0B       		.uleb128 0xb
 2879 00ae 27       		.uleb128 0x27
 2880 00af 19       		.uleb128 0x19
 2881 00b0 11       		.uleb128 0x11
 2882 00b1 01       		.uleb128 0x1
 2883 00b2 12       		.uleb128 0x12
ARM GAS  C:\Users\Keshuai\AppData\Local\Temp\ccTp3FAZ.s 			page 96


 2884 00b3 06       		.uleb128 0x6
 2885 00b4 40       		.uleb128 0x40
 2886 00b5 18       		.uleb128 0x18
 2887 00b6 9642     		.uleb128 0x2116
 2888 00b8 19       		.uleb128 0x19
 2889 00b9 01       		.uleb128 0x1
 2890 00ba 13       		.uleb128 0x13
 2891 00bb 00       		.byte	0
 2892 00bc 00       		.byte	0
 2893 00bd 0F       		.uleb128 0xf
 2894 00be 05       		.uleb128 0x5
 2895 00bf 00       		.byte	0
 2896 00c0 03       		.uleb128 0x3
 2897 00c1 0E       		.uleb128 0xe
 2898 00c2 3A       		.uleb128 0x3a
 2899 00c3 0B       		.uleb128 0xb
 2900 00c4 3B       		.uleb128 0x3b
 2901 00c5 0B       		.uleb128 0xb
 2902 00c6 49       		.uleb128 0x49
 2903 00c7 13       		.uleb128 0x13
 2904 00c8 02       		.uleb128 0x2
 2905 00c9 18       		.uleb128 0x18
 2906 00ca 00       		.byte	0
 2907 00cb 00       		.byte	0
 2908 00cc 10       		.uleb128 0x10
 2909 00cd 34       		.uleb128 0x34
 2910 00ce 00       		.byte	0
 2911 00cf 03       		.uleb128 0x3
 2912 00d0 0E       		.uleb128 0xe
 2913 00d1 3A       		.uleb128 0x3a
 2914 00d2 0B       		.uleb128 0xb
 2915 00d3 3B       		.uleb128 0x3b
 2916 00d4 0B       		.uleb128 0xb
 2917 00d5 49       		.uleb128 0x49
 2918 00d6 13       		.uleb128 0x13
 2919 00d7 02       		.uleb128 0x2
 2920 00d8 18       		.uleb128 0x18
 2921 00d9 00       		.byte	0
 2922 00da 00       		.byte	0
 2923 00db 11       		.uleb128 0x11
 2924 00dc 2E       		.uleb128 0x2e
 2925 00dd 01       		.byte	0x1
 2926 00de 3F       		.uleb128 0x3f
 2927 00df 19       		.uleb128 0x19
 2928 00e0 03       		.uleb128 0x3
 2929 00e1 0E       		.uleb128 0xe
 2930 00e2 3A       		.uleb128 0x3a
 2931 00e3 0B       		.uleb128 0xb
 2932 00e4 3B       		.uleb128 0x3b
 2933 00e5 05       		.uleb128 0x5
 2934 00e6 27       		.uleb128 0x27
 2935 00e7 19       		.uleb128 0x19
 2936 00e8 11       		.uleb128 0x11
 2937 00e9 01       		.uleb128 0x1
 2938 00ea 12       		.uleb128 0x12
 2939 00eb 06       		.uleb128 0x6
 2940 00ec 40       		.uleb128 0x40
ARM GAS  C:\Users\Keshuai\AppData\Local\Temp\ccTp3FAZ.s 			page 97


 2941 00ed 18       		.uleb128 0x18
 2942 00ee 9642     		.uleb128 0x2116
 2943 00f0 19       		.uleb128 0x19
 2944 00f1 01       		.uleb128 0x1
 2945 00f2 13       		.uleb128 0x13
 2946 00f3 00       		.byte	0
 2947 00f4 00       		.byte	0
 2948 00f5 12       		.uleb128 0x12
 2949 00f6 05       		.uleb128 0x5
 2950 00f7 00       		.byte	0
 2951 00f8 03       		.uleb128 0x3
 2952 00f9 0E       		.uleb128 0xe
 2953 00fa 3A       		.uleb128 0x3a
 2954 00fb 0B       		.uleb128 0xb
 2955 00fc 3B       		.uleb128 0x3b
 2956 00fd 05       		.uleb128 0x5
 2957 00fe 49       		.uleb128 0x49
 2958 00ff 13       		.uleb128 0x13
 2959 0100 02       		.uleb128 0x2
 2960 0101 18       		.uleb128 0x18
 2961 0102 00       		.byte	0
 2962 0103 00       		.byte	0
 2963 0104 13       		.uleb128 0x13
 2964 0105 34       		.uleb128 0x34
 2965 0106 00       		.byte	0
 2966 0107 03       		.uleb128 0x3
 2967 0108 08       		.uleb128 0x8
 2968 0109 3A       		.uleb128 0x3a
 2969 010a 0B       		.uleb128 0xb
 2970 010b 3B       		.uleb128 0x3b
 2971 010c 05       		.uleb128 0x5
 2972 010d 49       		.uleb128 0x49
 2973 010e 13       		.uleb128 0x13
 2974 010f 02       		.uleb128 0x2
 2975 0110 18       		.uleb128 0x18
 2976 0111 00       		.byte	0
 2977 0112 00       		.byte	0
 2978 0113 14       		.uleb128 0x14
 2979 0114 2E       		.uleb128 0x2e
 2980 0115 01       		.byte	0x1
 2981 0116 3F       		.uleb128 0x3f
 2982 0117 19       		.uleb128 0x19
 2983 0118 03       		.uleb128 0x3
 2984 0119 0E       		.uleb128 0xe
 2985 011a 3A       		.uleb128 0x3a
 2986 011b 0B       		.uleb128 0xb
 2987 011c 3B       		.uleb128 0x3b
 2988 011d 05       		.uleb128 0x5
 2989 011e 27       		.uleb128 0x27
 2990 011f 19       		.uleb128 0x19
 2991 0120 11       		.uleb128 0x11
 2992 0121 01       		.uleb128 0x1
 2993 0122 12       		.uleb128 0x12
 2994 0123 06       		.uleb128 0x6
 2995 0124 40       		.uleb128 0x40
 2996 0125 18       		.uleb128 0x18
 2997 0126 9742     		.uleb128 0x2117
ARM GAS  C:\Users\Keshuai\AppData\Local\Temp\ccTp3FAZ.s 			page 98


 2998 0128 19       		.uleb128 0x19
 2999 0129 01       		.uleb128 0x1
 3000 012a 13       		.uleb128 0x13
 3001 012b 00       		.byte	0
 3002 012c 00       		.byte	0
 3003 012d 15       		.uleb128 0x15
 3004 012e 34       		.uleb128 0x34
 3005 012f 00       		.byte	0
 3006 0130 03       		.uleb128 0x3
 3007 0131 0E       		.uleb128 0xe
 3008 0132 3A       		.uleb128 0x3a
 3009 0133 0B       		.uleb128 0xb
 3010 0134 3B       		.uleb128 0x3b
 3011 0135 05       		.uleb128 0x5
 3012 0136 49       		.uleb128 0x49
 3013 0137 13       		.uleb128 0x13
 3014 0138 02       		.uleb128 0x2
 3015 0139 18       		.uleb128 0x18
 3016 013a 00       		.byte	0
 3017 013b 00       		.byte	0
 3018 013c 16       		.uleb128 0x16
 3019 013d 2E       		.uleb128 0x2e
 3020 013e 01       		.byte	0x1
 3021 013f 3F       		.uleb128 0x3f
 3022 0140 19       		.uleb128 0x19
 3023 0141 03       		.uleb128 0x3
 3024 0142 0E       		.uleb128 0xe
 3025 0143 3A       		.uleb128 0x3a
 3026 0144 0B       		.uleb128 0xb
 3027 0145 3B       		.uleb128 0x3b
 3028 0146 05       		.uleb128 0x5
 3029 0147 27       		.uleb128 0x27
 3030 0148 19       		.uleb128 0x19
 3031 0149 49       		.uleb128 0x49
 3032 014a 13       		.uleb128 0x13
 3033 014b 11       		.uleb128 0x11
 3034 014c 01       		.uleb128 0x1
 3035 014d 12       		.uleb128 0x12
 3036 014e 06       		.uleb128 0x6
 3037 014f 40       		.uleb128 0x40
 3038 0150 18       		.uleb128 0x18
 3039 0151 9742     		.uleb128 0x2117
 3040 0153 19       		.uleb128 0x19
 3041 0154 01       		.uleb128 0x1
 3042 0155 13       		.uleb128 0x13
 3043 0156 00       		.byte	0
 3044 0157 00       		.byte	0
 3045 0158 17       		.uleb128 0x17
 3046 0159 2E       		.uleb128 0x2e
 3047 015a 00       		.byte	0
 3048 015b 3F       		.uleb128 0x3f
 3049 015c 19       		.uleb128 0x19
 3050 015d 03       		.uleb128 0x3
 3051 015e 0E       		.uleb128 0xe
 3052 015f 3A       		.uleb128 0x3a
 3053 0160 0B       		.uleb128 0xb
 3054 0161 3B       		.uleb128 0x3b
ARM GAS  C:\Users\Keshuai\AppData\Local\Temp\ccTp3FAZ.s 			page 99


 3055 0162 05       		.uleb128 0x5
 3056 0163 27       		.uleb128 0x27
 3057 0164 19       		.uleb128 0x19
 3058 0165 49       		.uleb128 0x49
 3059 0166 13       		.uleb128 0x13
 3060 0167 11       		.uleb128 0x11
 3061 0168 01       		.uleb128 0x1
 3062 0169 12       		.uleb128 0x12
 3063 016a 06       		.uleb128 0x6
 3064 016b 40       		.uleb128 0x40
 3065 016c 18       		.uleb128 0x18
 3066 016d 9742     		.uleb128 0x2117
 3067 016f 19       		.uleb128 0x19
 3068 0170 00       		.byte	0
 3069 0171 00       		.byte	0
 3070 0172 18       		.uleb128 0x18
 3071 0173 0B       		.uleb128 0xb
 3072 0174 01       		.byte	0x1
 3073 0175 11       		.uleb128 0x11
 3074 0176 01       		.uleb128 0x1
 3075 0177 12       		.uleb128 0x12
 3076 0178 06       		.uleb128 0x6
 3077 0179 00       		.byte	0
 3078 017a 00       		.byte	0
 3079 017b 19       		.uleb128 0x19
 3080 017c 0F       		.uleb128 0xf
 3081 017d 00       		.byte	0
 3082 017e 0B       		.uleb128 0xb
 3083 017f 0B       		.uleb128 0xb
 3084 0180 49       		.uleb128 0x49
 3085 0181 13       		.uleb128 0x13
 3086 0182 00       		.byte	0
 3087 0183 00       		.byte	0
 3088 0184 1A       		.uleb128 0x1a
 3089 0185 26       		.uleb128 0x26
 3090 0186 00       		.byte	0
 3091 0187 49       		.uleb128 0x49
 3092 0188 13       		.uleb128 0x13
 3093 0189 00       		.byte	0
 3094 018a 00       		.byte	0
 3095 018b 1B       		.uleb128 0x1b
 3096 018c 2E       		.uleb128 0x2e
 3097 018d 01       		.byte	0x1
 3098 018e 3F       		.uleb128 0x3f
 3099 018f 19       		.uleb128 0x19
 3100 0190 03       		.uleb128 0x3
 3101 0191 0E       		.uleb128 0xe
 3102 0192 3A       		.uleb128 0x3a
 3103 0193 0B       		.uleb128 0xb
 3104 0194 3B       		.uleb128 0x3b
 3105 0195 05       		.uleb128 0x5
 3106 0196 27       		.uleb128 0x27
 3107 0197 19       		.uleb128 0x19
 3108 0198 49       		.uleb128 0x49
 3109 0199 13       		.uleb128 0x13
 3110 019a 11       		.uleb128 0x11
 3111 019b 01       		.uleb128 0x1
ARM GAS  C:\Users\Keshuai\AppData\Local\Temp\ccTp3FAZ.s 			page 100


 3112 019c 12       		.uleb128 0x12
 3113 019d 06       		.uleb128 0x6
 3114 019e 40       		.uleb128 0x40
 3115 019f 18       		.uleb128 0x18
 3116 01a0 9642     		.uleb128 0x2116
 3117 01a2 19       		.uleb128 0x19
 3118 01a3 01       		.uleb128 0x1
 3119 01a4 13       		.uleb128 0x13
 3120 01a5 00       		.byte	0
 3121 01a6 00       		.byte	0
 3122 01a7 1C       		.uleb128 0x1c
 3123 01a8 2E       		.uleb128 0x2e
 3124 01a9 00       		.byte	0
 3125 01aa 3F       		.uleb128 0x3f
 3126 01ab 19       		.uleb128 0x19
 3127 01ac 03       		.uleb128 0x3
 3128 01ad 0E       		.uleb128 0xe
 3129 01ae 3A       		.uleb128 0x3a
 3130 01af 0B       		.uleb128 0xb
 3131 01b0 3B       		.uleb128 0x3b
 3132 01b1 05       		.uleb128 0x5
 3133 01b2 27       		.uleb128 0x27
 3134 01b3 19       		.uleb128 0x19
 3135 01b4 11       		.uleb128 0x11
 3136 01b5 01       		.uleb128 0x1
 3137 01b6 12       		.uleb128 0x12
 3138 01b7 06       		.uleb128 0x6
 3139 01b8 40       		.uleb128 0x40
 3140 01b9 18       		.uleb128 0x18
 3141 01ba 9742     		.uleb128 0x2117
 3142 01bc 19       		.uleb128 0x19
 3143 01bd 00       		.byte	0
 3144 01be 00       		.byte	0
 3145 01bf 1D       		.uleb128 0x1d
 3146 01c0 34       		.uleb128 0x34
 3147 01c1 00       		.byte	0
 3148 01c2 03       		.uleb128 0x3
 3149 01c3 0E       		.uleb128 0xe
 3150 01c4 3A       		.uleb128 0x3a
 3151 01c5 0B       		.uleb128 0xb
 3152 01c6 3B       		.uleb128 0x3b
 3153 01c7 0B       		.uleb128 0xb
 3154 01c8 49       		.uleb128 0x49
 3155 01c9 13       		.uleb128 0x13
 3156 01ca 3F       		.uleb128 0x3f
 3157 01cb 19       		.uleb128 0x19
 3158 01cc 02       		.uleb128 0x2
 3159 01cd 18       		.uleb128 0x18
 3160 01ce 00       		.byte	0
 3161 01cf 00       		.byte	0
 3162 01d0 1E       		.uleb128 0x1e
 3163 01d1 34       		.uleb128 0x34
 3164 01d2 00       		.byte	0
 3165 01d3 03       		.uleb128 0x3
 3166 01d4 0E       		.uleb128 0xe
 3167 01d5 3A       		.uleb128 0x3a
 3168 01d6 0B       		.uleb128 0xb
ARM GAS  C:\Users\Keshuai\AppData\Local\Temp\ccTp3FAZ.s 			page 101


 3169 01d7 3B       		.uleb128 0x3b
 3170 01d8 05       		.uleb128 0x5
 3171 01d9 49       		.uleb128 0x49
 3172 01da 13       		.uleb128 0x13
 3173 01db 3F       		.uleb128 0x3f
 3174 01dc 19       		.uleb128 0x19
 3175 01dd 3C       		.uleb128 0x3c
 3176 01de 19       		.uleb128 0x19
 3177 01df 00       		.byte	0
 3178 01e0 00       		.byte	0
 3179 01e1 1F       		.uleb128 0x1f
 3180 01e2 34       		.uleb128 0x34
 3181 01e3 00       		.byte	0
 3182 01e4 03       		.uleb128 0x3
 3183 01e5 0E       		.uleb128 0xe
 3184 01e6 3A       		.uleb128 0x3a
 3185 01e7 0B       		.uleb128 0xb
 3186 01e8 3B       		.uleb128 0x3b
 3187 01e9 0B       		.uleb128 0xb
 3188 01ea 49       		.uleb128 0x49
 3189 01eb 13       		.uleb128 0x13
 3190 01ec 3F       		.uleb128 0x3f
 3191 01ed 19       		.uleb128 0x19
 3192 01ee 3C       		.uleb128 0x3c
 3193 01ef 19       		.uleb128 0x19
 3194 01f0 00       		.byte	0
 3195 01f1 00       		.byte	0
 3196 01f2 00       		.byte	0
 3197              		.section	.debug_aranges,"",%progbits
 3198 0000 C4000000 		.4byte	0xc4
 3199 0004 0200     		.2byte	0x2
 3200 0006 00000000 		.4byte	.Ldebug_info0
 3201 000a 04       		.byte	0x4
 3202 000b 00       		.byte	0
 3203 000c 0000     		.2byte	0
 3204 000e 0000     		.2byte	0
 3205 0010 00000000 		.4byte	.LFB0
 3206 0014 38000000 		.4byte	.LFE0-.LFB0
 3207 0018 00000000 		.4byte	.LFB1
 3208 001c 8C010000 		.4byte	.LFE1-.LFB1
 3209 0020 00000000 		.4byte	.LFB2
 3210 0024 18010000 		.4byte	.LFE2-.LFB2
 3211 0028 00000000 		.4byte	.LFB3
 3212 002c 88000000 		.4byte	.LFE3-.LFB3
 3213 0030 00000000 		.4byte	.LFB4
 3214 0034 04010000 		.4byte	.LFE4-.LFB4
 3215 0038 00000000 		.4byte	.LFB5
 3216 003c 38000000 		.4byte	.LFE5-.LFB5
 3217 0040 00000000 		.4byte	.LFB6
 3218 0044 18000000 		.4byte	.LFE6-.LFB6
 3219 0048 00000000 		.4byte	.LFB7
 3220 004c 34000000 		.4byte	.LFE7-.LFB7
 3221 0050 00000000 		.4byte	.LFB8
 3222 0054 24000000 		.4byte	.LFE8-.LFB8
 3223 0058 00000000 		.4byte	.LFB9
 3224 005c 2C000000 		.4byte	.LFE9-.LFB9
 3225 0060 00000000 		.4byte	.LFB10
ARM GAS  C:\Users\Keshuai\AppData\Local\Temp\ccTp3FAZ.s 			page 102


 3226 0064 60000000 		.4byte	.LFE10-.LFB10
 3227 0068 00000000 		.4byte	.LFB11
 3228 006c F8000000 		.4byte	.LFE11-.LFB11
 3229 0070 00000000 		.4byte	.LFB12
 3230 0074 8C000000 		.4byte	.LFE12-.LFB12
 3231 0078 00000000 		.4byte	.LFB13
 3232 007c 54000000 		.4byte	.LFE13-.LFB13
 3233 0080 00000000 		.4byte	.LFB14
 3234 0084 30000000 		.4byte	.LFE14-.LFB14
 3235 0088 00000000 		.4byte	.LFB15
 3236 008c 20000000 		.4byte	.LFE15-.LFB15
 3237 0090 00000000 		.4byte	.LFB16
 3238 0094 40000000 		.4byte	.LFE16-.LFB16
 3239 0098 00000000 		.4byte	.LFB17
 3240 009c 40000000 		.4byte	.LFE17-.LFB17
 3241 00a0 00000000 		.4byte	.LFB18
 3242 00a4 30000000 		.4byte	.LFE18-.LFB18
 3243 00a8 00000000 		.4byte	.LFB19
 3244 00ac 20000000 		.4byte	.LFE19-.LFB19
 3245 00b0 00000000 		.4byte	.LFB20
 3246 00b4 18000000 		.4byte	.LFE20-.LFB20
 3247 00b8 00000000 		.4byte	.LFB21
 3248 00bc 18000000 		.4byte	.LFE21-.LFB21
 3249 00c0 00000000 		.4byte	0
 3250 00c4 00000000 		.4byte	0
 3251              		.section	.debug_ranges,"",%progbits
 3252              	.Ldebug_ranges0:
 3253 0000 00000000 		.4byte	.LFB0
 3254 0004 38000000 		.4byte	.LFE0
 3255 0008 00000000 		.4byte	.LFB1
 3256 000c 8C010000 		.4byte	.LFE1
 3257 0010 00000000 		.4byte	.LFB2
 3258 0014 18010000 		.4byte	.LFE2
 3259 0018 00000000 		.4byte	.LFB3
 3260 001c 88000000 		.4byte	.LFE3
 3261 0020 00000000 		.4byte	.LFB4
 3262 0024 04010000 		.4byte	.LFE4
 3263 0028 00000000 		.4byte	.LFB5
 3264 002c 38000000 		.4byte	.LFE5
 3265 0030 00000000 		.4byte	.LFB6
 3266 0034 18000000 		.4byte	.LFE6
 3267 0038 00000000 		.4byte	.LFB7
 3268 003c 34000000 		.4byte	.LFE7
 3269 0040 00000000 		.4byte	.LFB8
 3270 0044 24000000 		.4byte	.LFE8
 3271 0048 00000000 		.4byte	.LFB9
 3272 004c 2C000000 		.4byte	.LFE9
 3273 0050 00000000 		.4byte	.LFB10
 3274 0054 60000000 		.4byte	.LFE10
 3275 0058 00000000 		.4byte	.LFB11
 3276 005c F8000000 		.4byte	.LFE11
 3277 0060 00000000 		.4byte	.LFB12
 3278 0064 8C000000 		.4byte	.LFE12
 3279 0068 00000000 		.4byte	.LFB13
 3280 006c 54000000 		.4byte	.LFE13
 3281 0070 00000000 		.4byte	.LFB14
 3282 0074 30000000 		.4byte	.LFE14
ARM GAS  C:\Users\Keshuai\AppData\Local\Temp\ccTp3FAZ.s 			page 103


 3283 0078 00000000 		.4byte	.LFB15
 3284 007c 20000000 		.4byte	.LFE15
 3285 0080 00000000 		.4byte	.LFB16
 3286 0084 40000000 		.4byte	.LFE16
 3287 0088 00000000 		.4byte	.LFB17
 3288 008c 40000000 		.4byte	.LFE17
 3289 0090 00000000 		.4byte	.LFB18
 3290 0094 30000000 		.4byte	.LFE18
 3291 0098 00000000 		.4byte	.LFB19
 3292 009c 20000000 		.4byte	.LFE19
 3293 00a0 00000000 		.4byte	.LFB20
 3294 00a4 18000000 		.4byte	.LFE20
 3295 00a8 00000000 		.4byte	.LFB21
 3296 00ac 18000000 		.4byte	.LFE21
 3297 00b0 00000000 		.4byte	0
 3298 00b4 00000000 		.4byte	0
 3299              		.section	.debug_line,"",%progbits
 3300              	.Ldebug_line0:
 3301 0000 23030000 		.section	.debug_str,"MS",%progbits,1
 3301      02006200 
 3301      00000201 
 3301      FB0E0D00 
 3301      01010101 
 3302              	.LASF10:
 3303 0000 75696E74 		.ascii	"uint16\000"
 3303      313600
 3304              	.LASF81:
 3305 0007 55534255 		.ascii	"USBUART_device\000"
 3305      4152545F 
 3305      64657669 
 3305      636500
 3306              	.LASF77:
 3307 0016 55534255 		.ascii	"USBUART_GetDeviceAddress\000"
 3307      4152545F 
 3307      47657444 
 3307      65766963 
 3307      65416464 
 3308              	.LASF53:
 3309 002f 55534255 		.ascii	"USBUART_Stop\000"
 3309      4152545F 
 3309      53746F70 
 3309      00
 3310              	.LASF74:
 3311 003c 55534255 		.ascii	"USBUART_RWUEnabled\000"
 3311      4152545F 
 3311      52575545 
 3311      6E61626C 
 3311      656400
 3312              	.LASF91:
 3313 004f 55534255 		.ascii	"USBUART_lastPacketSize\000"
 3313      4152545F 
 3313      6C617374 
 3313      5061636B 
 3313      65745369 
 3314              	.LASF63:
 3315 0066 55534255 		.ascii	"USBUART_LoadInEP\000"
 3315      4152545F 
ARM GAS  C:\Users\Keshuai\AppData\Local\Temp\ccTp3FAZ.s 			page 104


 3315      4C6F6164 
 3315      496E4550 
 3315      00
 3316              	.LASF94:
 3317 0077 433A5C55 		.ascii	"C:\\Users\\Keshuai\\Documents\\PSoC Creator\\ADC_Si"
 3317      73657273 
 3317      5C4B6573 
 3317      68756169 
 3317      5C446F63 
 3318 00a5 6E676C65 		.ascii	"ngleEndedMode01\\ADC_SingleEndedMode02.cydsn\000"
 3318      456E6465 
 3318      644D6F64 
 3318      6530315C 
 3318      4144435F 
 3319              	.LASF7:
 3320 00d1 6C6F6E67 		.ascii	"long long unsigned int\000"
 3320      206C6F6E 
 3320      6720756E 
 3320      7369676E 
 3320      65642069 
 3321              	.LASF22:
 3322 00e8 61646472 		.ascii	"addr\000"
 3322      00
 3323              	.LASF32:
 3324 00ed 65704366 		.ascii	"epCfg\000"
 3324      6700
 3325              	.LASF90:
 3326 00f3 55534255 		.ascii	"USBUART_EP\000"
 3326      4152545F 
 3326      455000
 3327              	.LASF60:
 3328 00fe 65704E75 		.ascii	"epNumber\000"
 3328      6D626572 
 3328      00
 3329              	.LASF46:
 3330 0107 64657669 		.ascii	"device\000"
 3330      636500
 3331              	.LASF76:
 3332 010e 55534255 		.ascii	"USBUART_GetConfiguration\000"
 3332      4152545F 
 3332      47657443 
 3332      6F6E6669 
 3332      67757261 
 3333              	.LASF6:
 3334 0127 6C6F6E67 		.ascii	"long long int\000"
 3334      206C6F6E 
 3334      6720696E 
 3334      7400
 3335              	.LASF0:
 3336 0135 7369676E 		.ascii	"signed char\000"
 3336      65642063 
 3336      68617200 
 3337              	.LASF67:
 3338 0141 55534255 		.ascii	"USBUART_EnableOutEP\000"
 3338      4152545F 
 3338      456E6162 
 3338      6C654F75 
ARM GAS  C:\Users\Keshuai\AppData\Local\Temp\ccTp3FAZ.s 			page 105


 3338      74455000 
 3339              	.LASF71:
 3340 0155 55534255 		.ascii	"USBUART_GetEPAckState\000"
 3340      4152545F 
 3340      47657445 
 3340      5041636B 
 3340      53746174 
 3341              	.LASF62:
 3342 016b 636E7472 		.ascii	"cntr\000"
 3342      00
 3343              	.LASF43:
 3344 0170 55534255 		.ascii	"USBUART_sie_eps_struct\000"
 3344      4152545F 
 3344      7369655F 
 3344      6570735F 
 3344      73747275 
 3345              	.LASF55:
 3346 0187 55534255 		.ascii	"USBUART_CheckActivity\000"
 3346      4152545F 
 3346      43686563 
 3346      6B416374 
 3346      69766974 
 3347              	.LASF4:
 3348 019d 6C6F6E67 		.ascii	"long int\000"
 3348      20696E74 
 3348      00
 3349              	.LASF9:
 3350 01a6 75696E74 		.ascii	"uint8\000"
 3350      3800
 3351              	.LASF21:
 3352 01ac 6570546F 		.ascii	"epToggle\000"
 3352      67676C65 
 3352      00
 3353              	.LASF86:
 3354 01b5 55534255 		.ascii	"USBUART_hidProtocol\000"
 3354      4152545F 
 3354      68696450 
 3354      726F746F 
 3354      636F6C00 
 3355              	.LASF36:
 3356 01c9 72775761 		.ascii	"rwWa\000"
 3356      00
 3357              	.LASF13:
 3358 01ce 646F7562 		.ascii	"double\000"
 3358      6C6500
 3359              	.LASF73:
 3360 01d5 706F7765 		.ascii	"powerStatus\000"
 3360      72537461 
 3360      74757300 
 3361              	.LASF79:
 3362 01e1 55534255 		.ascii	"USBUART_DisableSofInt\000"
 3362      4152545F 
 3362      44697361 
 3362      626C6553 
 3362      6F66496E 
 3363              	.LASF72:
 3364 01f7 55534255 		.ascii	"USBUART_SetPowerStatus\000"
ARM GAS  C:\Users\Keshuai\AppData\Local\Temp\ccTp3FAZ.s 			page 106


 3364      4152545F 
 3364      53657450 
 3364      6F776572 
 3364      53746174 
 3365              	.LASF34:
 3366 020e 65705372 		.ascii	"epSr\000"
 3366      00
 3367              	.LASF80:
 3368 0213 55534255 		.ascii	"USBUART_initVar\000"
 3368      4152545F 
 3368      696E6974 
 3368      56617200 
 3369              	.LASF87:
 3370 0223 55534255 		.ascii	"USBUART_interfaceNumber\000"
 3370      4152545F 
 3370      696E7465 
 3370      72666163 
 3370      654E756D 
 3371              	.LASF11:
 3372 023b 75696E74 		.ascii	"uint32\000"
 3372      333200
 3373              	.LASF64:
 3374 0242 70446174 		.ascii	"pData\000"
 3374      6100
 3375              	.LASF23:
 3376 0248 65704D6F 		.ascii	"epMode\000"
 3376      646500
 3377              	.LASF35:
 3378 024f 72657365 		.ascii	"reserved\000"
 3378      72766564 
 3378      00
 3379              	.LASF85:
 3380 0258 55534255 		.ascii	"USBUART_deviceStatus\000"
 3380      4152545F 
 3380      64657669 
 3380      63655374 
 3380      61747573 
 3381              	.LASF8:
 3382 026d 756E7369 		.ascii	"unsigned int\000"
 3382      676E6564 
 3382      20696E74 
 3382      00
 3383              	.LASF5:
 3384 027a 6C6F6E67 		.ascii	"long unsigned int\000"
 3384      20756E73 
 3384      69676E65 
 3384      6420696E 
 3384      7400
 3385              	.LASF3:
 3386 028c 73686F72 		.ascii	"short unsigned int\000"
 3386      7420756E 
 3386      7369676E 
 3386      65642069 
 3386      6E7400
 3387              	.LASF48:
 3388 029f 55534255 		.ascii	"USBUART_Start\000"
 3388      4152545F 
ARM GAS  C:\Users\Keshuai\AppData\Local\Temp\ccTp3FAZ.s 			page 107


 3388      53746172 
 3388      7400
 3389              	.LASF57:
 3390 02ad 55534255 		.ascii	"USBUART_GetInterfaceSetting\000"
 3390      4152545F 
 3390      47657449 
 3390      6E746572 
 3390      66616365 
 3391              	.LASF49:
 3392 02c9 55534255 		.ascii	"USBUART_Init\000"
 3392      4152545F 
 3392      496E6974 
 3392      00
 3393              	.LASF44:
 3394 02d6 61726245 		.ascii	"arbEp\000"
 3394      7000
 3395              	.LASF26:
 3396 02dc 696E7465 		.ascii	"interface\000"
 3396      72666163 
 3396      6500
 3397              	.LASF54:
 3398 02e6 63723152 		.ascii	"cr1Reg\000"
 3398      656700
 3399              	.LASF16:
 3400 02ed 72656733 		.ascii	"reg32\000"
 3400      3200
 3401              	.LASF89:
 3402 02f3 55534255 		.ascii	"USBUART_deviceAddress\000"
 3402      4152545F 
 3402      64657669 
 3402      63654164 
 3402      64726573 
 3403              	.LASF93:
 3404 0309 47656E65 		.ascii	"Generated_Source\\PSoC5\\USBUART.c\000"
 3404      72617465 
 3404      645F536F 
 3404      75726365 
 3404      5C50536F 
 3405              	.LASF41:
 3406 032a 55534255 		.ascii	"USBUART_arb_ep_struct\000"
 3406      4152545F 
 3406      6172625F 
 3406      65705F73 
 3406      74727563 
 3407              	.LASF20:
 3408 0340 68774570 		.ascii	"hwEpState\000"
 3408      53746174 
 3408      6500
 3409              	.LASF45:
 3410 034a 55534255 		.ascii	"USBUART_arb_eps_struct\000"
 3410      4152545F 
 3410      6172625F 
 3410      6570735F 
 3410      73747275 
 3411              	.LASF17:
 3412 0361 73697A65 		.ascii	"sizetype\000"
 3412      74797065 
ARM GAS  C:\Users\Keshuai\AppData\Local\Temp\ccTp3FAZ.s 			page 108


 3412      00
 3413              	.LASF42:
 3414 036a 73696545 		.ascii	"sieEp\000"
 3414      7000
 3415              	.LASF69:
 3416 0370 55534255 		.ascii	"USBUART_Force\000"
 3416      4152545F 
 3416      466F7263 
 3416      6500
 3417              	.LASF18:
 3418 037e 61747472 		.ascii	"attrib\000"
 3418      696200
 3419              	.LASF92:
 3420 0385 474E5520 		.ascii	"GNU C 4.9.3 20150303 (release) [ARM/embedded-4_9-br"
 3420      4320342E 
 3420      392E3320 
 3420      32303135 
 3420      30333033 
 3421 03b8 616E6368 		.ascii	"anch revision 221220] -mcpu=cortex-m3 -mthumb -g -O"
 3421      20726576 
 3421      6973696F 
 3421      6E203232 
 3421      31323230 
 3422 03eb 30202D66 		.ascii	"0 -ffunction-sections -ffat-lto-objects\000"
 3422      66756E63 
 3422      74696F6E 
 3422      2D736563 
 3422      74696F6E 
 3423              	.LASF39:
 3424 0413 72775261 		.ascii	"rwRaMsb\000"
 3424      4D736200 
 3425              	.LASF28:
 3426 041b 6570436E 		.ascii	"epCnt0\000"
 3426      743000
 3427              	.LASF29:
 3428 0422 6570436E 		.ascii	"epCnt1\000"
 3428      743100
 3429              	.LASF30:
 3430 0429 65704372 		.ascii	"epCr0\000"
 3430      3000
 3431              	.LASF12:
 3432 042f 666C6F61 		.ascii	"float\000"
 3432      7400
 3433              	.LASF66:
 3434 0435 55534255 		.ascii	"USBUART_ReadOutEP\000"
 3434      4152545F 
 3434      52656164 
 3434      4F757445 
 3434      5000
 3435              	.LASF19:
 3436 0447 61706945 		.ascii	"apiEpState\000"
 3436      70537461 
 3436      746500
 3437              	.LASF15:
 3438 0452 72656738 		.ascii	"reg8\000"
 3438      00
 3439              	.LASF88:
ARM GAS  C:\Users\Keshuai\AppData\Local\Temp\ccTp3FAZ.s 			page 109


 3440 0457 55534255 		.ascii	"USBUART_interfaceSetting\000"
 3440      4152545F 
 3440      696E7465 
 3440      72666163 
 3440      65536574 
 3441              	.LASF1:
 3442 0470 756E7369 		.ascii	"unsigned char\000"
 3442      676E6564 
 3442      20636861 
 3442      7200
 3443              	.LASF2:
 3444 047e 73686F72 		.ascii	"short int\000"
 3444      7420696E 
 3444      7400
 3445              	.LASF59:
 3446 0488 55534255 		.ascii	"USBUART_GetEPState\000"
 3446      4152545F 
 3446      47657445 
 3446      50537461 
 3446      746500
 3447              	.LASF38:
 3448 049b 72775261 		.ascii	"rwRa\000"
 3448      00
 3449              	.LASF68:
 3450 04a0 55534255 		.ascii	"USBUART_DisableOutEP\000"
 3450      4152545F 
 3450      44697361 
 3450      626C654F 
 3450      75744550 
 3451              	.LASF37:
 3452 04b5 72775761 		.ascii	"rwWaMsb\000"
 3452      4D736200 
 3453              	.LASF31:
 3454 04bd 55534255 		.ascii	"USBUART_sie_ep_struct\000"
 3454      4152545F 
 3454      7369655F 
 3454      65705F73 
 3454      74727563 
 3455              	.LASF70:
 3456 04d3 62537461 		.ascii	"bState\000"
 3456      746500
 3457              	.LASF65:
 3458 04da 6C656E67 		.ascii	"length\000"
 3458      746800
 3459              	.LASF14:
 3460 04e1 63686172 		.ascii	"char\000"
 3460      00
 3461              	.LASF47:
 3462 04e6 6D6F6465 		.ascii	"mode\000"
 3462      00
 3463              	.LASF25:
 3464 04eb 62756666 		.ascii	"bufferSize\000"
 3464      65725369 
 3464      7A6500
 3465              	.LASF27:
 3466 04f6 545F5553 		.ascii	"T_USBUART_EP_CTL_BLOCK\000"
 3466      42554152 
ARM GAS  C:\Users\Keshuai\AppData\Local\Temp\ccTp3FAZ.s 			page 110


 3466      545F4550 
 3466      5F43544C 
 3466      5F424C4F 
 3467              	.LASF24:
 3468 050d 62756666 		.ascii	"buffOffset\000"
 3468      4F666673 
 3468      657400
 3469              	.LASF58:
 3470 0518 696E7465 		.ascii	"interfaceNumber\000"
 3470      72666163 
 3470      654E756D 
 3470      62657200 
 3471              	.LASF61:
 3472 0528 55534255 		.ascii	"USBUART_GetEPCount\000"
 3472      4152545F 
 3472      47657445 
 3472      50436F75 
 3472      6E7400
 3473              	.LASF51:
 3474 053b 656E6162 		.ascii	"enableInterrupts\000"
 3474      6C65496E 
 3474      74657272 
 3474      75707473 
 3474      00
 3475              	.LASF40:
 3476 054c 72774472 		.ascii	"rwDr\000"
 3476      00
 3477              	.LASF50:
 3478 0551 55534255 		.ascii	"USBUART_InitComponent\000"
 3478      4152545F 
 3478      496E6974 
 3478      436F6D70 
 3478      6F6E656E 
 3479              	.LASF83:
 3480 0567 55534255 		.ascii	"USBUART_configuration\000"
 3480      4152545F 
 3480      636F6E66 
 3480      69677572 
 3480      6174696F 
 3481              	.LASF56:
 3482 057d 55534255 		.ascii	"USBUART_IsConfigurationChanged\000"
 3482      4152545F 
 3482      4973436F 
 3482      6E666967 
 3482      75726174 
 3483              	.LASF33:
 3484 059c 6570496E 		.ascii	"epIntEn\000"
 3484      74456E00 
 3485              	.LASF52:
 3486 05a4 55534255 		.ascii	"USBUART_ReInitComponent\000"
 3486      4152545F 
 3486      5265496E 
 3486      6974436F 
 3486      6D706F6E 
 3487              	.LASF82:
 3488 05bc 55534255 		.ascii	"USBUART_transferState\000"
 3488      4152545F 
ARM GAS  C:\Users\Keshuai\AppData\Local\Temp\ccTp3FAZ.s 			page 111


 3488      7472616E 
 3488      73666572 
 3488      53746174 
 3489              	.LASF78:
 3490 05d2 55534255 		.ascii	"USBUART_EnableSofInt\000"
 3490      4152545F 
 3490      456E6162 
 3490      6C65536F 
 3490      66496E74 
 3491              	.LASF84:
 3492 05e7 55534255 		.ascii	"USBUART_configurationChanged\000"
 3492      4152545F 
 3492      636F6E66 
 3492      69677572 
 3492      6174696F 
 3493              	.LASF75:
 3494 0604 72657375 		.ascii	"result\000"
 3494      6C7400
 3495              		.ident	"GCC: (GNU Tools for ARM Embedded Processors) 4.9.3 20150303 (release) [ARM/embedded-4_9-br
