ARM GAS  C:\Users\Keshuai\AppData\Local\Temp\ccOGDZDR.s 			page 1


   1              		.syntax unified
   2              		.cpu cortex-m3
   3              		.fpu softvfp
   4              		.eabi_attribute 20, 1
   5              		.eabi_attribute 21, 1
   6              		.eabi_attribute 23, 3
   7              		.eabi_attribute 24, 1
   8              		.eabi_attribute 25, 1
   9              		.eabi_attribute 26, 1
  10              		.eabi_attribute 30, 6
  11              		.eabi_attribute 34, 1
  12              		.eabi_attribute 18, 4
  13              		.thumb
  14              		.file	"USBUART_episr.c"
  15              		.text
  16              	.Ltext0:
  17              		.cfi_sections	.debug_frame
  18              		.section	.text.USBUART_EP_3_ISR,"ax",%progbits
  19              		.align	2
  20              		.global	USBUART_EP_3_ISR
  21              		.thumb
  22              		.thumb_func
  23              		.type	USBUART_EP_3_ISR, %function
  24              	USBUART_EP_3_ISR:
  25              	.LFB0:
  26              		.file 1 "Generated_Source\\PSoC5\\USBUART_episr.c"
   1:Generated_Source\PSoC5/USBUART_episr.c **** /***************************************************************************//**
   2:Generated_Source\PSoC5/USBUART_episr.c **** * \file USBUART_episr.c
   3:Generated_Source\PSoC5/USBUART_episr.c **** * \version 3.10
   4:Generated_Source\PSoC5/USBUART_episr.c **** *
   5:Generated_Source\PSoC5/USBUART_episr.c **** * \brief
   6:Generated_Source\PSoC5/USBUART_episr.c **** *  This file contains the Data endpoint Interrupt Service Routines.
   7:Generated_Source\PSoC5/USBUART_episr.c **** *
   8:Generated_Source\PSoC5/USBUART_episr.c **** ********************************************************************************
   9:Generated_Source\PSoC5/USBUART_episr.c **** * \copyright
  10:Generated_Source\PSoC5/USBUART_episr.c **** * Copyright 2008-2016, Cypress Semiconductor Corporation.  All rights reserved.
  11:Generated_Source\PSoC5/USBUART_episr.c **** * You may use this file only in accordance with the license, terms, conditions,
  12:Generated_Source\PSoC5/USBUART_episr.c **** * disclaimers, and limitations in the end user license agreement accompanying
  13:Generated_Source\PSoC5/USBUART_episr.c **** * the software package with which this file was provided.
  14:Generated_Source\PSoC5/USBUART_episr.c **** *******************************************************************************/
  15:Generated_Source\PSoC5/USBUART_episr.c **** 
  16:Generated_Source\PSoC5/USBUART_episr.c **** #include "USBUART_pvt.h"
  17:Generated_Source\PSoC5/USBUART_episr.c **** #include "USBUART_cydmac.h"
  18:Generated_Source\PSoC5/USBUART_episr.c **** #include "cyapicallbacks.h"
  19:Generated_Source\PSoC5/USBUART_episr.c **** 
  20:Generated_Source\PSoC5/USBUART_episr.c **** 
  21:Generated_Source\PSoC5/USBUART_episr.c **** /***************************************
  22:Generated_Source\PSoC5/USBUART_episr.c **** * Custom Declarations
  23:Generated_Source\PSoC5/USBUART_episr.c **** ***************************************/
  24:Generated_Source\PSoC5/USBUART_episr.c **** /* `#START CUSTOM_DECLARATIONS` Place your declaration here */
  25:Generated_Source\PSoC5/USBUART_episr.c **** 
  26:Generated_Source\PSoC5/USBUART_episr.c **** /* `#END` */
  27:Generated_Source\PSoC5/USBUART_episr.c **** 
  28:Generated_Source\PSoC5/USBUART_episr.c **** 
  29:Generated_Source\PSoC5/USBUART_episr.c **** #if (USBUART_EP1_ISR_ACTIVE)
  30:Generated_Source\PSoC5/USBUART_episr.c ****     /******************************************************************************
  31:Generated_Source\PSoC5/USBUART_episr.c ****     * Function Name: USBUART_EP_1_ISR
ARM GAS  C:\Users\Keshuai\AppData\Local\Temp\ccOGDZDR.s 			page 2


  32:Generated_Source\PSoC5/USBUART_episr.c ****     ***************************************************************************//**
  33:Generated_Source\PSoC5/USBUART_episr.c ****     *
  34:Generated_Source\PSoC5/USBUART_episr.c ****     *  Endpoint 1 Interrupt Service Routine
  35:Generated_Source\PSoC5/USBUART_episr.c ****     *
  36:Generated_Source\PSoC5/USBUART_episr.c ****     ******************************************************************************/
  37:Generated_Source\PSoC5/USBUART_episr.c ****     CY_ISR(USBUART_EP_1_ISR)
  38:Generated_Source\PSoC5/USBUART_episr.c ****     {
  39:Generated_Source\PSoC5/USBUART_episr.c **** 
  40:Generated_Source\PSoC5/USBUART_episr.c ****     #ifdef USBUART_EP_1_ISR_ENTRY_CALLBACK
  41:Generated_Source\PSoC5/USBUART_episr.c ****         USBUART_EP_1_ISR_EntryCallback();
  42:Generated_Source\PSoC5/USBUART_episr.c ****     #endif /* (USBUART_EP_1_ISR_ENTRY_CALLBACK) */
  43:Generated_Source\PSoC5/USBUART_episr.c **** 
  44:Generated_Source\PSoC5/USBUART_episr.c ****         /* `#START EP1_USER_CODE` Place your code here */
  45:Generated_Source\PSoC5/USBUART_episr.c **** 
  46:Generated_Source\PSoC5/USBUART_episr.c ****         /* `#END` */
  47:Generated_Source\PSoC5/USBUART_episr.c **** 
  48:Generated_Source\PSoC5/USBUART_episr.c ****     #if (CY_PSOC3 && defined(USBUART_ENABLE_MIDI_STREAMING) && \
  49:Generated_Source\PSoC5/USBUART_episr.c ****         !defined(USBUART_MAIN_SERVICE_MIDI_OUT) && USBUART_ISR_SERVICE_MIDI_OUT)
  50:Generated_Source\PSoC5/USBUART_episr.c ****         {
  51:Generated_Source\PSoC5/USBUART_episr.c ****             uint8 intEn = EA;
  52:Generated_Source\PSoC5/USBUART_episr.c ****             CyGlobalIntEnable;  /* Enable nested interrupts. */
  53:Generated_Source\PSoC5/USBUART_episr.c ****     #endif /* (CY_PSOC3 && USBUART_ISR_SERVICE_MIDI_OUT) */
  54:Generated_Source\PSoC5/USBUART_episr.c ****     
  55:Generated_Source\PSoC5/USBUART_episr.c ****         USBUART_ClearSieEpInterruptSource(USBUART_SIE_INT_EP1_INTR);
  56:Generated_Source\PSoC5/USBUART_episr.c ****             
  57:Generated_Source\PSoC5/USBUART_episr.c ****         /* Notifies user that transfer IN or OUT transfer is completed.
  58:Generated_Source\PSoC5/USBUART_episr.c ****         * IN endpoint: endpoint buffer can be reloaded, Host is read data.
  59:Generated_Source\PSoC5/USBUART_episr.c ****         * OUT endpoint: data is ready to be read from endpoint buffer. 
  60:Generated_Source\PSoC5/USBUART_episr.c ****         */
  61:Generated_Source\PSoC5/USBUART_episr.c ****     #if (CY_PSOC4 && USBUART_EP_MANAGEMENT_DMA_AUTO)
  62:Generated_Source\PSoC5/USBUART_episr.c ****         if (0u != (USBUART_EP[USBUART_EP1].addr & USBUART_DIR_IN))
  63:Generated_Source\PSoC5/USBUART_episr.c ****     #endif /* (CY_PSOC4 && USBUART_EP_MANAGEMENT_DMA_AUTO) */
  64:Generated_Source\PSoC5/USBUART_episr.c ****         {
  65:Generated_Source\PSoC5/USBUART_episr.c ****             /* Read CR0 register to clear SIE lock. */
  66:Generated_Source\PSoC5/USBUART_episr.c ****             (void) USBUART_SIE_EP_BASE.sieEp[USBUART_EP1].epCr0;
  67:Generated_Source\PSoC5/USBUART_episr.c ****             
  68:Generated_Source\PSoC5/USBUART_episr.c ****             /* Toggle all endpoint types except ISOC. */
  69:Generated_Source\PSoC5/USBUART_episr.c ****             if (USBUART_GET_EP_TYPE(USBUART_EP1) != USBUART_EP_TYPE_ISOC)
  70:Generated_Source\PSoC5/USBUART_episr.c ****             {
  71:Generated_Source\PSoC5/USBUART_episr.c ****                 USBUART_EP[USBUART_EP1].epToggle ^= USBUART_EPX_CNT_DATA_TOGGLE;
  72:Generated_Source\PSoC5/USBUART_episr.c ****             }
  73:Generated_Source\PSoC5/USBUART_episr.c **** 
  74:Generated_Source\PSoC5/USBUART_episr.c ****             /* EP_MANAGEMENT_DMA_AUTO (Ticket ID# 214187): For OUT endpoint this event is used to n
  75:Generated_Source\PSoC5/USBUART_episr.c ****             * user that DMA has completed copying data from OUT endpoint which is not completely tr
  76:Generated_Source\PSoC5/USBUART_episr.c ****             * Because last chunk of data is being copied.
  77:Generated_Source\PSoC5/USBUART_episr.c ****             * For CY_PSOC 3/5LP: it is acceptable as DMA is really fast.
  78:Generated_Source\PSoC5/USBUART_episr.c ****             * For CY_PSOC4: this event is set in Arbiter interrupt (source is DMA_TERMIN).
  79:Generated_Source\PSoC5/USBUART_episr.c ****             */
  80:Generated_Source\PSoC5/USBUART_episr.c ****             USBUART_EP[USBUART_EP1].apiEpState = USBUART_EVENT_PENDING;
  81:Generated_Source\PSoC5/USBUART_episr.c ****         }
  82:Generated_Source\PSoC5/USBUART_episr.c **** 
  83:Generated_Source\PSoC5/USBUART_episr.c ****     #if (!(CY_PSOC4 && USBUART_EP_MANAGEMENT_DMA_AUTO))
  84:Generated_Source\PSoC5/USBUART_episr.c ****         #if (defined(USBUART_ENABLE_MIDI_STREAMING) && \
  85:Generated_Source\PSoC5/USBUART_episr.c ****             !defined(USBUART_MAIN_SERVICE_MIDI_OUT) && USBUART_ISR_SERVICE_MIDI_OUT)
  86:Generated_Source\PSoC5/USBUART_episr.c ****             if (USBUART_midi_out_ep == USBUART_EP1)
  87:Generated_Source\PSoC5/USBUART_episr.c ****             {
  88:Generated_Source\PSoC5/USBUART_episr.c ****                 USBUART_MIDI_OUT_Service();
ARM GAS  C:\Users\Keshuai\AppData\Local\Temp\ccOGDZDR.s 			page 3


  89:Generated_Source\PSoC5/USBUART_episr.c ****             }
  90:Generated_Source\PSoC5/USBUART_episr.c ****         #endif /* (USBUART_ISR_SERVICE_MIDI_OUT) */
  91:Generated_Source\PSoC5/USBUART_episr.c ****     #endif /* (!(CY_PSOC4 && USBUART_EP_MANAGEMENT_DMA_AUTO)) */
  92:Generated_Source\PSoC5/USBUART_episr.c ****     
  93:Generated_Source\PSoC5/USBUART_episr.c ****         /* `#START EP1_END_USER_CODE` Place your code here */
  94:Generated_Source\PSoC5/USBUART_episr.c **** 
  95:Generated_Source\PSoC5/USBUART_episr.c ****         /* `#END` */
  96:Generated_Source\PSoC5/USBUART_episr.c **** 
  97:Generated_Source\PSoC5/USBUART_episr.c ****     #ifdef USBUART_EP_1_ISR_EXIT_CALLBACK
  98:Generated_Source\PSoC5/USBUART_episr.c ****         USBUART_EP_1_ISR_ExitCallback();
  99:Generated_Source\PSoC5/USBUART_episr.c ****     #endif /* (USBUART_EP_1_ISR_EXIT_CALLBACK) */
 100:Generated_Source\PSoC5/USBUART_episr.c **** 
 101:Generated_Source\PSoC5/USBUART_episr.c ****     #if (CY_PSOC3 && defined(USBUART_ENABLE_MIDI_STREAMING) && \
 102:Generated_Source\PSoC5/USBUART_episr.c ****         !defined(USBUART_MAIN_SERVICE_MIDI_OUT) && USBUART_ISR_SERVICE_MIDI_OUT)
 103:Generated_Source\PSoC5/USBUART_episr.c ****         
 104:Generated_Source\PSoC5/USBUART_episr.c ****             EA = intEn; /* Restore nested interrupt configuration. */
 105:Generated_Source\PSoC5/USBUART_episr.c ****         }
 106:Generated_Source\PSoC5/USBUART_episr.c ****     #endif /* (CY_PSOC3 && USBUART_ISR_SERVICE_MIDI_OUT) */
 107:Generated_Source\PSoC5/USBUART_episr.c ****     }
 108:Generated_Source\PSoC5/USBUART_episr.c **** 
 109:Generated_Source\PSoC5/USBUART_episr.c **** #endif /* (USBUART_EP1_ISR_ACTIVE) */
 110:Generated_Source\PSoC5/USBUART_episr.c **** 
 111:Generated_Source\PSoC5/USBUART_episr.c **** 
 112:Generated_Source\PSoC5/USBUART_episr.c **** #if (USBUART_EP2_ISR_ACTIVE)
 113:Generated_Source\PSoC5/USBUART_episr.c ****     /*******************************************************************************
 114:Generated_Source\PSoC5/USBUART_episr.c ****     * Function Name: USBUART_EP_2_ISR
 115:Generated_Source\PSoC5/USBUART_episr.c ****     ****************************************************************************//**
 116:Generated_Source\PSoC5/USBUART_episr.c ****     *
 117:Generated_Source\PSoC5/USBUART_episr.c ****     *  Endpoint 2 Interrupt Service Routine.
 118:Generated_Source\PSoC5/USBUART_episr.c ****     *
 119:Generated_Source\PSoC5/USBUART_episr.c ****     *******************************************************************************/
 120:Generated_Source\PSoC5/USBUART_episr.c ****     CY_ISR(USBUART_EP_2_ISR)
 121:Generated_Source\PSoC5/USBUART_episr.c ****     {
 122:Generated_Source\PSoC5/USBUART_episr.c ****     #ifdef USBUART_EP_2_ISR_ENTRY_CALLBACK
 123:Generated_Source\PSoC5/USBUART_episr.c ****         USBUART_EP_2_ISR_EntryCallback();
 124:Generated_Source\PSoC5/USBUART_episr.c ****     #endif /* (USBUART_EP_2_ISR_ENTRY_CALLBACK) */
 125:Generated_Source\PSoC5/USBUART_episr.c **** 
 126:Generated_Source\PSoC5/USBUART_episr.c ****         /* `#START EP2_USER_CODE` Place your code here */
 127:Generated_Source\PSoC5/USBUART_episr.c **** 
 128:Generated_Source\PSoC5/USBUART_episr.c ****         /* `#END` */
 129:Generated_Source\PSoC5/USBUART_episr.c **** 
 130:Generated_Source\PSoC5/USBUART_episr.c ****     #if (CY_PSOC3 && defined(USBUART_ENABLE_MIDI_STREAMING) && \
 131:Generated_Source\PSoC5/USBUART_episr.c ****         !defined(USBUART_MAIN_SERVICE_MIDI_OUT) && USBUART_ISR_SERVICE_MIDI_OUT)
 132:Generated_Source\PSoC5/USBUART_episr.c ****         {
 133:Generated_Source\PSoC5/USBUART_episr.c ****             uint8 intEn = EA;
 134:Generated_Source\PSoC5/USBUART_episr.c ****             CyGlobalIntEnable;  /* Enable nested interrupts. */
 135:Generated_Source\PSoC5/USBUART_episr.c ****     #endif /* (CY_PSOC3 && USBUART_ISR_SERVICE_MIDI_OUT) */
 136:Generated_Source\PSoC5/USBUART_episr.c **** 
 137:Generated_Source\PSoC5/USBUART_episr.c ****         USBUART_ClearSieEpInterruptSource(USBUART_SIE_INT_EP2_INTR);
 138:Generated_Source\PSoC5/USBUART_episr.c **** 
 139:Generated_Source\PSoC5/USBUART_episr.c ****         /* Notifies user that transfer IN or OUT transfer is completed.
 140:Generated_Source\PSoC5/USBUART_episr.c ****         * IN endpoint: endpoint buffer can be reloaded, Host is read data.
 141:Generated_Source\PSoC5/USBUART_episr.c ****         * OUT endpoint: data is ready to be read from endpoint buffer. 
 142:Generated_Source\PSoC5/USBUART_episr.c ****         */
 143:Generated_Source\PSoC5/USBUART_episr.c ****     #if (CY_PSOC4 && USBUART_EP_MANAGEMENT_DMA_AUTO)
 144:Generated_Source\PSoC5/USBUART_episr.c ****         if (0u != (USBUART_EP[USBUART_EP2].addr & USBUART_DIR_IN))
 145:Generated_Source\PSoC5/USBUART_episr.c ****     #endif /* (CY_PSOC4 && USBUART_EP_MANAGEMENT_DMA_AUTO) */
ARM GAS  C:\Users\Keshuai\AppData\Local\Temp\ccOGDZDR.s 			page 4


 146:Generated_Source\PSoC5/USBUART_episr.c ****         {            
 147:Generated_Source\PSoC5/USBUART_episr.c ****             /* Read CR0 register to clear SIE lock. */
 148:Generated_Source\PSoC5/USBUART_episr.c ****             (void) USBUART_SIE_EP_BASE.sieEp[USBUART_EP2].epCr0;
 149:Generated_Source\PSoC5/USBUART_episr.c ****             
 150:Generated_Source\PSoC5/USBUART_episr.c ****             /* Toggle all endpoint types except ISOC. */
 151:Generated_Source\PSoC5/USBUART_episr.c ****             if (USBUART_GET_EP_TYPE(USBUART_EP2) != USBUART_EP_TYPE_ISOC)
 152:Generated_Source\PSoC5/USBUART_episr.c ****             {
 153:Generated_Source\PSoC5/USBUART_episr.c ****                 USBUART_EP[USBUART_EP2].epToggle ^= USBUART_EPX_CNT_DATA_TOGGLE;
 154:Generated_Source\PSoC5/USBUART_episr.c ****             }
 155:Generated_Source\PSoC5/USBUART_episr.c **** 
 156:Generated_Source\PSoC5/USBUART_episr.c ****             /* EP_MANAGEMENT_DMA_AUTO (Ticket ID# 214187): For OUT endpoint this event is used to n
 157:Generated_Source\PSoC5/USBUART_episr.c ****             * user that DMA has completed copying data from OUT endpoint which is not completely tr
 158:Generated_Source\PSoC5/USBUART_episr.c ****             * Because last chunk of data is being copied.
 159:Generated_Source\PSoC5/USBUART_episr.c ****             * For CY_PSOC 3/5LP: it is acceptable as DMA is really fast.
 160:Generated_Source\PSoC5/USBUART_episr.c ****             * For CY_PSOC4: this event is set in Arbiter interrupt (source is DMA_TERMIN).
 161:Generated_Source\PSoC5/USBUART_episr.c ****             */
 162:Generated_Source\PSoC5/USBUART_episr.c ****             USBUART_EP[USBUART_EP2].apiEpState = USBUART_EVENT_PENDING;
 163:Generated_Source\PSoC5/USBUART_episr.c ****         }
 164:Generated_Source\PSoC5/USBUART_episr.c **** 
 165:Generated_Source\PSoC5/USBUART_episr.c ****     #if (!(CY_PSOC4 && USBUART_EP_MANAGEMENT_DMA_AUTO))
 166:Generated_Source\PSoC5/USBUART_episr.c ****         #if (defined(USBUART_ENABLE_MIDI_STREAMING) && \
 167:Generated_Source\PSoC5/USBUART_episr.c ****             !defined(USBUART_MAIN_SERVICE_MIDI_OUT) && USBUART_ISR_SERVICE_MIDI_OUT)
 168:Generated_Source\PSoC5/USBUART_episr.c ****             if (USBUART_midi_out_ep == USBUART_EP2)
 169:Generated_Source\PSoC5/USBUART_episr.c ****             {
 170:Generated_Source\PSoC5/USBUART_episr.c ****                 USBUART_MIDI_OUT_Service();
 171:Generated_Source\PSoC5/USBUART_episr.c ****             }
 172:Generated_Source\PSoC5/USBUART_episr.c ****         #endif /* (USBUART_ISR_SERVICE_MIDI_OUT) */
 173:Generated_Source\PSoC5/USBUART_episr.c ****     #endif /* (!(CY_PSOC4 && USBUART_EP_MANAGEMENT_DMA_AUTO)) */        
 174:Generated_Source\PSoC5/USBUART_episr.c ****     
 175:Generated_Source\PSoC5/USBUART_episr.c ****         /* `#START EP2_END_USER_CODE` Place your code here */
 176:Generated_Source\PSoC5/USBUART_episr.c **** 
 177:Generated_Source\PSoC5/USBUART_episr.c ****         /* `#END` */
 178:Generated_Source\PSoC5/USBUART_episr.c **** 
 179:Generated_Source\PSoC5/USBUART_episr.c ****     #ifdef USBUART_EP_2_ISR_EXIT_CALLBACK
 180:Generated_Source\PSoC5/USBUART_episr.c ****         USBUART_EP_2_ISR_ExitCallback();
 181:Generated_Source\PSoC5/USBUART_episr.c ****     #endif /* (USBUART_EP_2_ISR_EXIT_CALLBACK) */
 182:Generated_Source\PSoC5/USBUART_episr.c **** 
 183:Generated_Source\PSoC5/USBUART_episr.c ****     #if (CY_PSOC3 && defined(USBUART_ENABLE_MIDI_STREAMING) && \
 184:Generated_Source\PSoC5/USBUART_episr.c ****         !defined(USBUART_MAIN_SERVICE_MIDI_OUT) && USBUART_ISR_SERVICE_MIDI_OUT)
 185:Generated_Source\PSoC5/USBUART_episr.c ****         
 186:Generated_Source\PSoC5/USBUART_episr.c ****             EA = intEn; /* Restore nested interrupt configuration. */
 187:Generated_Source\PSoC5/USBUART_episr.c ****         }
 188:Generated_Source\PSoC5/USBUART_episr.c ****     #endif /* (CY_PSOC3 && USBUART_ISR_SERVICE_MIDI_OUT) */
 189:Generated_Source\PSoC5/USBUART_episr.c ****     }
 190:Generated_Source\PSoC5/USBUART_episr.c **** #endif /* (USBUART_EP2_ISR_ACTIVE) */
 191:Generated_Source\PSoC5/USBUART_episr.c **** 
 192:Generated_Source\PSoC5/USBUART_episr.c **** 
 193:Generated_Source\PSoC5/USBUART_episr.c **** #if (USBUART_EP3_ISR_ACTIVE)
 194:Generated_Source\PSoC5/USBUART_episr.c ****     /*******************************************************************************
 195:Generated_Source\PSoC5/USBUART_episr.c ****     * Function Name: USBUART_EP_3_ISR
 196:Generated_Source\PSoC5/USBUART_episr.c ****     ****************************************************************************//**
 197:Generated_Source\PSoC5/USBUART_episr.c ****     *
 198:Generated_Source\PSoC5/USBUART_episr.c ****     *  Endpoint 3 Interrupt Service Routine.
 199:Generated_Source\PSoC5/USBUART_episr.c ****     *
 200:Generated_Source\PSoC5/USBUART_episr.c ****     *******************************************************************************/
 201:Generated_Source\PSoC5/USBUART_episr.c ****     CY_ISR(USBUART_EP_3_ISR)
 202:Generated_Source\PSoC5/USBUART_episr.c ****     {
ARM GAS  C:\Users\Keshuai\AppData\Local\Temp\ccOGDZDR.s 			page 5


  27              		.loc 1 202 0
  28              		.cfi_startproc
  29              		@ args = 0, pretend = 0, frame = 0
  30              		@ frame_needed = 1, uses_anonymous_args = 0
  31              		@ link register save eliminated.
  32 0000 80B4     		push	{r7}
  33              		.cfi_def_cfa_offset 4
  34              		.cfi_offset 7, -4
  35 0002 00AF     		add	r7, sp, #0
  36              		.cfi_def_cfa_register 7
 203:Generated_Source\PSoC5/USBUART_episr.c ****     #ifdef USBUART_EP_3_ISR_ENTRY_CALLBACK
 204:Generated_Source\PSoC5/USBUART_episr.c ****         USBUART_EP_3_ISR_EntryCallback();
 205:Generated_Source\PSoC5/USBUART_episr.c ****     #endif /* (USBUART_EP_3_ISR_ENTRY_CALLBACK) */
 206:Generated_Source\PSoC5/USBUART_episr.c **** 
 207:Generated_Source\PSoC5/USBUART_episr.c ****         /* `#START EP3_USER_CODE` Place your code here */
 208:Generated_Source\PSoC5/USBUART_episr.c **** 
 209:Generated_Source\PSoC5/USBUART_episr.c ****         /* `#END` */
 210:Generated_Source\PSoC5/USBUART_episr.c **** 
 211:Generated_Source\PSoC5/USBUART_episr.c ****     #if (CY_PSOC3 && defined(USBUART_ENABLE_MIDI_STREAMING) && \
 212:Generated_Source\PSoC5/USBUART_episr.c ****         !defined(USBUART_MAIN_SERVICE_MIDI_OUT) && USBUART_ISR_SERVICE_MIDI_OUT)
 213:Generated_Source\PSoC5/USBUART_episr.c ****         {
 214:Generated_Source\PSoC5/USBUART_episr.c ****             uint8 intEn = EA;
 215:Generated_Source\PSoC5/USBUART_episr.c ****             CyGlobalIntEnable;  /* Enable nested interrupts. */
 216:Generated_Source\PSoC5/USBUART_episr.c ****     #endif /* (CY_PSOC3 && USBUART_ISR_SERVICE_MIDI_OUT) */
 217:Generated_Source\PSoC5/USBUART_episr.c **** 
 218:Generated_Source\PSoC5/USBUART_episr.c ****         USBUART_ClearSieEpInterruptSource(USBUART_SIE_INT_EP3_INTR);    
  37              		.loc 1 218 0
  38 0004 104B     		ldr	r3, .L3
  39 0006 0422     		movs	r2, #4
  40 0008 1A70     		strb	r2, [r3]
 219:Generated_Source\PSoC5/USBUART_episr.c **** 
 220:Generated_Source\PSoC5/USBUART_episr.c ****         /* Notifies user that transfer IN or OUT transfer is completed.
 221:Generated_Source\PSoC5/USBUART_episr.c ****         * IN endpoint: endpoint buffer can be reloaded, Host is read data.
 222:Generated_Source\PSoC5/USBUART_episr.c ****         * OUT endpoint: data is ready to be read from endpoint buffer. 
 223:Generated_Source\PSoC5/USBUART_episr.c ****         */
 224:Generated_Source\PSoC5/USBUART_episr.c ****     #if (CY_PSOC4 && USBUART_EP_MANAGEMENT_DMA_AUTO)
 225:Generated_Source\PSoC5/USBUART_episr.c ****         if (0u != (USBUART_EP[USBUART_EP3].addr & USBUART_DIR_IN))
 226:Generated_Source\PSoC5/USBUART_episr.c ****     #endif /* (USBUART_EP_MANAGEMENT_DMA_AUTO) */
 227:Generated_Source\PSoC5/USBUART_episr.c ****         {            
 228:Generated_Source\PSoC5/USBUART_episr.c ****             /* Read CR0 register to clear SIE lock. */
 229:Generated_Source\PSoC5/USBUART_episr.c ****             (void) USBUART_SIE_EP_BASE.sieEp[USBUART_EP3].epCr0;
  41              		.loc 1 229 0
  42 000a 104B     		ldr	r3, .L3+4
  43 000c 93F83230 		ldrb	r3, [r3, #50]
 230:Generated_Source\PSoC5/USBUART_episr.c **** 
 231:Generated_Source\PSoC5/USBUART_episr.c ****             /* Toggle all endpoint types except ISOC. */
 232:Generated_Source\PSoC5/USBUART_episr.c ****             if (USBUART_GET_EP_TYPE(USBUART_EP3) != USBUART_EP_TYPE_ISOC)
  44              		.loc 1 232 0
  45 0010 0F4B     		ldr	r3, .L3+8
  46 0012 93F82430 		ldrb	r3, [r3, #36]
  47 0016 DBB2     		uxtb	r3, r3
  48 0018 03F00303 		and	r3, r3, #3
  49 001c 012B     		cmp	r3, #1
  50 001e 0AD0     		beq	.L2
 233:Generated_Source\PSoC5/USBUART_episr.c ****             {
 234:Generated_Source\PSoC5/USBUART_episr.c ****                 USBUART_EP[USBUART_EP3].epToggle ^= USBUART_EPX_CNT_DATA_TOGGLE;
  51              		.loc 1 234 0
ARM GAS  C:\Users\Keshuai\AppData\Local\Temp\ccOGDZDR.s 			page 6


  52 0020 0B4B     		ldr	r3, .L3+8
  53 0022 93F82730 		ldrb	r3, [r3, #39]
  54 0026 DBB2     		uxtb	r3, r3
  55 0028 83F07F03 		eor	r3, r3, #127
  56 002c DB43     		mvns	r3, r3
  57 002e DAB2     		uxtb	r2, r3
  58 0030 074B     		ldr	r3, .L3+8
  59 0032 83F82720 		strb	r2, [r3, #39]
  60              	.L2:
 235:Generated_Source\PSoC5/USBUART_episr.c ****             }
 236:Generated_Source\PSoC5/USBUART_episr.c **** 
 237:Generated_Source\PSoC5/USBUART_episr.c ****             /* EP_MANAGEMENT_DMA_AUTO (Ticket ID# 214187): For OUT endpoint this event is used to n
 238:Generated_Source\PSoC5/USBUART_episr.c ****             * user that DMA has completed copying data from OUT endpoint which is not completely tr
 239:Generated_Source\PSoC5/USBUART_episr.c ****             * Because last chunk of data is being copied.
 240:Generated_Source\PSoC5/USBUART_episr.c ****             * For CY_PSOC 3/5LP: it is acceptable as DMA is really fast.
 241:Generated_Source\PSoC5/USBUART_episr.c ****             * For CY_PSOC4: this event is set in Arbiter interrupt (source is DMA_TERMIN).
 242:Generated_Source\PSoC5/USBUART_episr.c ****             */
 243:Generated_Source\PSoC5/USBUART_episr.c ****             USBUART_EP[USBUART_EP3].apiEpState = USBUART_EVENT_PENDING;
  61              		.loc 1 243 0
  62 0036 064B     		ldr	r3, .L3+8
  63 0038 0122     		movs	r2, #1
  64 003a 83F82520 		strb	r2, [r3, #37]
 244:Generated_Source\PSoC5/USBUART_episr.c ****         }
 245:Generated_Source\PSoC5/USBUART_episr.c **** 
 246:Generated_Source\PSoC5/USBUART_episr.c ****     #if (!(CY_PSOC4 && USBUART_EP_MANAGEMENT_DMA_AUTO))
 247:Generated_Source\PSoC5/USBUART_episr.c ****         #if (defined(USBUART_ENABLE_MIDI_STREAMING) && \
 248:Generated_Source\PSoC5/USBUART_episr.c ****             !defined(USBUART_MAIN_SERVICE_MIDI_OUT) && USBUART_ISR_SERVICE_MIDI_OUT)
 249:Generated_Source\PSoC5/USBUART_episr.c ****             if (USBUART_midi_out_ep == USBUART_EP3)
 250:Generated_Source\PSoC5/USBUART_episr.c ****             {
 251:Generated_Source\PSoC5/USBUART_episr.c ****                 USBUART_MIDI_OUT_Service();
 252:Generated_Source\PSoC5/USBUART_episr.c ****             }
 253:Generated_Source\PSoC5/USBUART_episr.c ****         #endif /* (USBUART_ISR_SERVICE_MIDI_OUT) */
 254:Generated_Source\PSoC5/USBUART_episr.c ****     #endif /* (!(CY_PSOC4 && USBUART_EP_MANAGEMENT_DMA_AUTO)) */        
 255:Generated_Source\PSoC5/USBUART_episr.c **** 
 256:Generated_Source\PSoC5/USBUART_episr.c ****         /* `#START EP3_END_USER_CODE` Place your code here */
 257:Generated_Source\PSoC5/USBUART_episr.c **** 
 258:Generated_Source\PSoC5/USBUART_episr.c ****         /* `#END` */
 259:Generated_Source\PSoC5/USBUART_episr.c **** 
 260:Generated_Source\PSoC5/USBUART_episr.c ****     #ifdef USBUART_EP_3_ISR_EXIT_CALLBACK
 261:Generated_Source\PSoC5/USBUART_episr.c ****         USBUART_EP_3_ISR_ExitCallback();
 262:Generated_Source\PSoC5/USBUART_episr.c ****     #endif /* (USBUART_EP_3_ISR_EXIT_CALLBACK) */
 263:Generated_Source\PSoC5/USBUART_episr.c **** 
 264:Generated_Source\PSoC5/USBUART_episr.c ****     #if (CY_PSOC3 && defined(USBUART_ENABLE_MIDI_STREAMING) && \
 265:Generated_Source\PSoC5/USBUART_episr.c ****         !defined(USBUART_MAIN_SERVICE_MIDI_OUT) && USBUART_ISR_SERVICE_MIDI_OUT)
 266:Generated_Source\PSoC5/USBUART_episr.c ****         
 267:Generated_Source\PSoC5/USBUART_episr.c ****             EA = intEn; /* Restore nested interrupt configuration. */
 268:Generated_Source\PSoC5/USBUART_episr.c ****         }
 269:Generated_Source\PSoC5/USBUART_episr.c ****     #endif /* (CY_PSOC3 && USBUART_ISR_SERVICE_MIDI_OUT) */
 270:Generated_Source\PSoC5/USBUART_episr.c ****     }
  65              		.loc 1 270 0
  66 003e BD46     		mov	sp, r7
  67              		.cfi_def_cfa_register 13
  68              		@ sp needed
  69 0040 5DF8047B 		ldr	r7, [sp], #4
  70              		.cfi_restore 7
  71              		.cfi_def_cfa_offset 0
  72 0044 7047     		bx	lr
ARM GAS  C:\Users\Keshuai\AppData\Local\Temp\ccOGDZDR.s 			page 7


  73              	.L4:
  74 0046 00BF     		.align	2
  75              	.L3:
  76 0048 0B600040 		.word	1073766411
  77 004c FC5F0040 		.word	1073766396
  78 0050 00000000 		.word	USBUART_EP
  79              		.cfi_endproc
  80              	.LFE0:
  81              		.size	USBUART_EP_3_ISR, .-USBUART_EP_3_ISR
  82              		.section	.text.USBUART_EP_4_ISR,"ax",%progbits
  83              		.align	2
  84              		.global	USBUART_EP_4_ISR
  85              		.thumb
  86              		.thumb_func
  87              		.type	USBUART_EP_4_ISR, %function
  88              	USBUART_EP_4_ISR:
  89              	.LFB1:
 271:Generated_Source\PSoC5/USBUART_episr.c **** #endif /* (USBUART_EP3_ISR_ACTIVE) */
 272:Generated_Source\PSoC5/USBUART_episr.c **** 
 273:Generated_Source\PSoC5/USBUART_episr.c **** 
 274:Generated_Source\PSoC5/USBUART_episr.c **** #if (USBUART_EP4_ISR_ACTIVE)
 275:Generated_Source\PSoC5/USBUART_episr.c ****     /*******************************************************************************
 276:Generated_Source\PSoC5/USBUART_episr.c ****     * Function Name: USBUART_EP_4_ISR
 277:Generated_Source\PSoC5/USBUART_episr.c ****     ****************************************************************************//**
 278:Generated_Source\PSoC5/USBUART_episr.c ****     *
 279:Generated_Source\PSoC5/USBUART_episr.c ****     *  Endpoint 4 Interrupt Service Routine.
 280:Generated_Source\PSoC5/USBUART_episr.c ****     *
 281:Generated_Source\PSoC5/USBUART_episr.c ****     *******************************************************************************/
 282:Generated_Source\PSoC5/USBUART_episr.c ****     CY_ISR(USBUART_EP_4_ISR)
 283:Generated_Source\PSoC5/USBUART_episr.c ****     {
  90              		.loc 1 283 0
  91              		.cfi_startproc
  92              		@ args = 0, pretend = 0, frame = 0
  93              		@ frame_needed = 1, uses_anonymous_args = 0
  94              		@ link register save eliminated.
  95 0000 80B4     		push	{r7}
  96              		.cfi_def_cfa_offset 4
  97              		.cfi_offset 7, -4
  98 0002 00AF     		add	r7, sp, #0
  99              		.cfi_def_cfa_register 7
 284:Generated_Source\PSoC5/USBUART_episr.c ****     #ifdef USBUART_EP_4_ISR_ENTRY_CALLBACK
 285:Generated_Source\PSoC5/USBUART_episr.c ****         USBUART_EP_4_ISR_EntryCallback();
 286:Generated_Source\PSoC5/USBUART_episr.c ****     #endif /* (USBUART_EP_4_ISR_ENTRY_CALLBACK) */
 287:Generated_Source\PSoC5/USBUART_episr.c **** 
 288:Generated_Source\PSoC5/USBUART_episr.c ****         /* `#START EP4_USER_CODE` Place your code here */
 289:Generated_Source\PSoC5/USBUART_episr.c **** 
 290:Generated_Source\PSoC5/USBUART_episr.c ****         /* `#END` */
 291:Generated_Source\PSoC5/USBUART_episr.c **** 
 292:Generated_Source\PSoC5/USBUART_episr.c ****     #if (CY_PSOC3 && defined(USBUART_ENABLE_MIDI_STREAMING) && \
 293:Generated_Source\PSoC5/USBUART_episr.c ****         !defined(USBUART_MAIN_SERVICE_MIDI_OUT) && USBUART_ISR_SERVICE_MIDI_OUT)
 294:Generated_Source\PSoC5/USBUART_episr.c ****         {
 295:Generated_Source\PSoC5/USBUART_episr.c ****             uint8 intEn = EA;
 296:Generated_Source\PSoC5/USBUART_episr.c ****             CyGlobalIntEnable;  /* Enable nested interrupts. */
 297:Generated_Source\PSoC5/USBUART_episr.c ****     #endif /* (CY_PSOC3 && USBUART_ISR_SERVICE_MIDI_OUT) */
 298:Generated_Source\PSoC5/USBUART_episr.c **** 
 299:Generated_Source\PSoC5/USBUART_episr.c ****         USBUART_ClearSieEpInterruptSource(USBUART_SIE_INT_EP4_INTR);
 100              		.loc 1 299 0
ARM GAS  C:\Users\Keshuai\AppData\Local\Temp\ccOGDZDR.s 			page 8


 101 0004 104B     		ldr	r3, .L7
 102 0006 0822     		movs	r2, #8
 103 0008 1A70     		strb	r2, [r3]
 300:Generated_Source\PSoC5/USBUART_episr.c ****         
 301:Generated_Source\PSoC5/USBUART_episr.c ****         /* Notifies user that transfer IN or OUT transfer is completed.
 302:Generated_Source\PSoC5/USBUART_episr.c ****         * IN endpoint: endpoint buffer can be reloaded, Host is read data.
 303:Generated_Source\PSoC5/USBUART_episr.c ****         * OUT endpoint: data is ready to read from endpoint buffer. 
 304:Generated_Source\PSoC5/USBUART_episr.c ****         */
 305:Generated_Source\PSoC5/USBUART_episr.c ****     #if (CY_PSOC4 && USBUART_EP_MANAGEMENT_DMA_AUTO)
 306:Generated_Source\PSoC5/USBUART_episr.c ****         if (0u != (USBUART_EP[USBUART_EP4].addr & USBUART_DIR_IN))
 307:Generated_Source\PSoC5/USBUART_episr.c ****     #endif /* (USBUART_EP_MANAGEMENT_DMA_AUTO) */
 308:Generated_Source\PSoC5/USBUART_episr.c ****         {
 309:Generated_Source\PSoC5/USBUART_episr.c ****             /* Read CR0 register to clear SIE lock. */
 310:Generated_Source\PSoC5/USBUART_episr.c ****             (void) USBUART_SIE_EP_BASE.sieEp[USBUART_EP4].epCr0;
 104              		.loc 1 310 0
 105 000a 104B     		ldr	r3, .L7+4
 106 000c 93F84230 		ldrb	r3, [r3, #66]
 311:Generated_Source\PSoC5/USBUART_episr.c **** 
 312:Generated_Source\PSoC5/USBUART_episr.c ****             /* Toggle all endpoint types except ISOC. */
 313:Generated_Source\PSoC5/USBUART_episr.c ****             if (USBUART_GET_EP_TYPE(USBUART_EP4) != USBUART_EP_TYPE_ISOC)
 107              		.loc 1 313 0
 108 0010 0F4B     		ldr	r3, .L7+8
 109 0012 93F83030 		ldrb	r3, [r3, #48]
 110 0016 DBB2     		uxtb	r3, r3
 111 0018 03F00303 		and	r3, r3, #3
 112 001c 012B     		cmp	r3, #1
 113 001e 0AD0     		beq	.L6
 314:Generated_Source\PSoC5/USBUART_episr.c ****             {
 315:Generated_Source\PSoC5/USBUART_episr.c ****                 USBUART_EP[USBUART_EP4].epToggle ^= USBUART_EPX_CNT_DATA_TOGGLE;
 114              		.loc 1 315 0
 115 0020 0B4B     		ldr	r3, .L7+8
 116 0022 93F83330 		ldrb	r3, [r3, #51]
 117 0026 DBB2     		uxtb	r3, r3
 118 0028 83F07F03 		eor	r3, r3, #127
 119 002c DB43     		mvns	r3, r3
 120 002e DAB2     		uxtb	r2, r3
 121 0030 074B     		ldr	r3, .L7+8
 122 0032 83F83320 		strb	r2, [r3, #51]
 123              	.L6:
 316:Generated_Source\PSoC5/USBUART_episr.c ****             }
 317:Generated_Source\PSoC5/USBUART_episr.c **** 
 318:Generated_Source\PSoC5/USBUART_episr.c ****             /* EP_MANAGEMENT_DMA_AUTO (Ticket ID# 214187): For OUT endpoint this event is used to n
 319:Generated_Source\PSoC5/USBUART_episr.c ****             * user that DMA has completed copying data from OUT endpoint which is not completely tr
 320:Generated_Source\PSoC5/USBUART_episr.c ****             * Because last chunk of data is being copied.
 321:Generated_Source\PSoC5/USBUART_episr.c ****             * For CY_PSOC 3/5LP: it is acceptable as DMA is really fast.
 322:Generated_Source\PSoC5/USBUART_episr.c ****             * For CY_PSOC4: this event is set in Arbiter interrupt (source is DMA_TERMIN).
 323:Generated_Source\PSoC5/USBUART_episr.c ****             */
 324:Generated_Source\PSoC5/USBUART_episr.c ****             USBUART_EP[USBUART_EP4].apiEpState = USBUART_EVENT_PENDING;
 124              		.loc 1 324 0
 125 0036 064B     		ldr	r3, .L7+8
 126 0038 0122     		movs	r2, #1
 127 003a 83F83120 		strb	r2, [r3, #49]
 325:Generated_Source\PSoC5/USBUART_episr.c ****         }
 326:Generated_Source\PSoC5/USBUART_episr.c **** 
 327:Generated_Source\PSoC5/USBUART_episr.c ****     #if (!(CY_PSOC4 && USBUART_EP_MANAGEMENT_DMA_AUTO))
 328:Generated_Source\PSoC5/USBUART_episr.c ****         #if (defined(USBUART_ENABLE_MIDI_STREAMING) && \
 329:Generated_Source\PSoC5/USBUART_episr.c ****             !defined(USBUART_MAIN_SERVICE_MIDI_OUT) && USBUART_ISR_SERVICE_MIDI_OUT)
ARM GAS  C:\Users\Keshuai\AppData\Local\Temp\ccOGDZDR.s 			page 9


 330:Generated_Source\PSoC5/USBUART_episr.c ****             if(USBUART_midi_out_ep == USBUART_EP4)
 331:Generated_Source\PSoC5/USBUART_episr.c ****             {
 332:Generated_Source\PSoC5/USBUART_episr.c ****                 USBUART_MIDI_OUT_Service();
 333:Generated_Source\PSoC5/USBUART_episr.c ****             }
 334:Generated_Source\PSoC5/USBUART_episr.c ****         #endif /* (USBUART_ISR_SERVICE_MIDI_OUT) */
 335:Generated_Source\PSoC5/USBUART_episr.c ****     #endif /* (!(CY_PSOC4 && USBUART_EP_MANAGEMENT_DMA_AUTO)) */        
 336:Generated_Source\PSoC5/USBUART_episr.c **** 
 337:Generated_Source\PSoC5/USBUART_episr.c ****         /* `#START EP4_END_USER_CODE` Place your code here */
 338:Generated_Source\PSoC5/USBUART_episr.c **** 
 339:Generated_Source\PSoC5/USBUART_episr.c ****         /* `#END` */
 340:Generated_Source\PSoC5/USBUART_episr.c **** 
 341:Generated_Source\PSoC5/USBUART_episr.c ****     #ifdef USBUART_EP_4_ISR_EXIT_CALLBACK
 342:Generated_Source\PSoC5/USBUART_episr.c ****         USBUART_EP_4_ISR_ExitCallback();
 343:Generated_Source\PSoC5/USBUART_episr.c ****     #endif /* (USBUART_EP_4_ISR_EXIT_CALLBACK) */
 344:Generated_Source\PSoC5/USBUART_episr.c **** 
 345:Generated_Source\PSoC5/USBUART_episr.c ****     #if (CY_PSOC3 && defined(USBUART_ENABLE_MIDI_STREAMING) && \
 346:Generated_Source\PSoC5/USBUART_episr.c ****         !defined(USBUART_MAIN_SERVICE_MIDI_OUT) && USBUART_ISR_SERVICE_MIDI_OUT)
 347:Generated_Source\PSoC5/USBUART_episr.c ****         
 348:Generated_Source\PSoC5/USBUART_episr.c ****             EA = intEn; /* Restore nested interrupt configuration. */
 349:Generated_Source\PSoC5/USBUART_episr.c ****         }
 350:Generated_Source\PSoC5/USBUART_episr.c ****     #endif /* (CY_PSOC3 && USBUART_ISR_SERVICE_MIDI_OUT) */
 351:Generated_Source\PSoC5/USBUART_episr.c ****     }
 128              		.loc 1 351 0
 129 003e BD46     		mov	sp, r7
 130              		.cfi_def_cfa_register 13
 131              		@ sp needed
 132 0040 5DF8047B 		ldr	r7, [sp], #4
 133              		.cfi_restore 7
 134              		.cfi_def_cfa_offset 0
 135 0044 7047     		bx	lr
 136              	.L8:
 137 0046 00BF     		.align	2
 138              	.L7:
 139 0048 0B600040 		.word	1073766411
 140 004c FC5F0040 		.word	1073766396
 141 0050 00000000 		.word	USBUART_EP
 142              		.cfi_endproc
 143              	.LFE1:
 144              		.size	USBUART_EP_4_ISR, .-USBUART_EP_4_ISR
 145              		.section	.text.USBUART_SOF_ISR,"ax",%progbits
 146              		.align	2
 147              		.global	USBUART_SOF_ISR
 148              		.thumb
 149              		.thumb_func
 150              		.type	USBUART_SOF_ISR, %function
 151              	USBUART_SOF_ISR:
 152              	.LFB2:
 352:Generated_Source\PSoC5/USBUART_episr.c **** #endif /* (USBUART_EP4_ISR_ACTIVE) */
 353:Generated_Source\PSoC5/USBUART_episr.c **** 
 354:Generated_Source\PSoC5/USBUART_episr.c **** 
 355:Generated_Source\PSoC5/USBUART_episr.c **** #if (USBUART_EP5_ISR_ACTIVE)
 356:Generated_Source\PSoC5/USBUART_episr.c ****     /*******************************************************************************
 357:Generated_Source\PSoC5/USBUART_episr.c ****     * Function Name: USBUART_EP_5_ISR
 358:Generated_Source\PSoC5/USBUART_episr.c ****     ****************************************************************************//**
 359:Generated_Source\PSoC5/USBUART_episr.c ****     *
 360:Generated_Source\PSoC5/USBUART_episr.c ****     *  Endpoint 5 Interrupt Service Routine
 361:Generated_Source\PSoC5/USBUART_episr.c ****     *
ARM GAS  C:\Users\Keshuai\AppData\Local\Temp\ccOGDZDR.s 			page 10


 362:Generated_Source\PSoC5/USBUART_episr.c ****     *
 363:Generated_Source\PSoC5/USBUART_episr.c ****     *******************************************************************************/
 364:Generated_Source\PSoC5/USBUART_episr.c ****     CY_ISR(USBUART_EP_5_ISR)
 365:Generated_Source\PSoC5/USBUART_episr.c ****     {
 366:Generated_Source\PSoC5/USBUART_episr.c ****     #ifdef USBUART_EP_5_ISR_ENTRY_CALLBACK
 367:Generated_Source\PSoC5/USBUART_episr.c ****         USBUART_EP_5_ISR_EntryCallback();
 368:Generated_Source\PSoC5/USBUART_episr.c ****     #endif /* (USBUART_EP_5_ISR_ENTRY_CALLBACK) */
 369:Generated_Source\PSoC5/USBUART_episr.c **** 
 370:Generated_Source\PSoC5/USBUART_episr.c ****         /* `#START EP5_USER_CODE` Place your code here */
 371:Generated_Source\PSoC5/USBUART_episr.c **** 
 372:Generated_Source\PSoC5/USBUART_episr.c ****         /* `#END` */
 373:Generated_Source\PSoC5/USBUART_episr.c **** 
 374:Generated_Source\PSoC5/USBUART_episr.c ****     #if (defined(USBUART_ENABLE_MIDI_STREAMING) && !defined(USBUART_MAIN_SERVICE_MIDI_OUT) && \
 375:Generated_Source\PSoC5/USBUART_episr.c ****                  USBUART_ISR_SERVICE_MIDI_OUT && CY_PSOC3)
 376:Generated_Source\PSoC5/USBUART_episr.c ****         {
 377:Generated_Source\PSoC5/USBUART_episr.c ****             uint8 intEn = EA;
 378:Generated_Source\PSoC5/USBUART_episr.c ****             CyGlobalIntEnable;  /* Enable nested interrupts. */
 379:Generated_Source\PSoC5/USBUART_episr.c ****     #endif /* (CY_PSOC3 && USBUART_ISR_SERVICE_MIDI_OUT) */
 380:Generated_Source\PSoC5/USBUART_episr.c **** 
 381:Generated_Source\PSoC5/USBUART_episr.c ****         USBUART_ClearSieEpInterruptSource(USBUART_SIE_INT_EP5_INTR);
 382:Generated_Source\PSoC5/USBUART_episr.c ****     
 383:Generated_Source\PSoC5/USBUART_episr.c ****         /* Notifies user that transfer IN or OUT transfer is completed.
 384:Generated_Source\PSoC5/USBUART_episr.c ****         * IN endpoint: endpoint buffer can be reloaded, Host is read data.
 385:Generated_Source\PSoC5/USBUART_episr.c ****         * OUT endpoint: data is ready to read from endpoint buffer. 
 386:Generated_Source\PSoC5/USBUART_episr.c ****         */
 387:Generated_Source\PSoC5/USBUART_episr.c ****     #if (CY_PSOC4 && USBUART_EP_MANAGEMENT_DMA_AUTO)
 388:Generated_Source\PSoC5/USBUART_episr.c ****         if (0u != (USBUART_EP[USBUART_EP5].addr & USBUART_DIR_IN))
 389:Generated_Source\PSoC5/USBUART_episr.c ****     #endif /* (USBUART_EP_MANAGEMENT_DMA_AUTO) */
 390:Generated_Source\PSoC5/USBUART_episr.c ****         {            
 391:Generated_Source\PSoC5/USBUART_episr.c ****             /* Read CR0 register to clear SIE lock. */
 392:Generated_Source\PSoC5/USBUART_episr.c ****             (void) USBUART_SIE_EP_BASE.sieEp[USBUART_EP5].epCr0;
 393:Generated_Source\PSoC5/USBUART_episr.c **** 
 394:Generated_Source\PSoC5/USBUART_episr.c ****             /* Toggle all endpoint types except ISOC. */
 395:Generated_Source\PSoC5/USBUART_episr.c ****             if (USBUART_GET_EP_TYPE(USBUART_EP5) != USBUART_EP_TYPE_ISOC)
 396:Generated_Source\PSoC5/USBUART_episr.c ****             {
 397:Generated_Source\PSoC5/USBUART_episr.c ****                 USBUART_EP[USBUART_EP5].epToggle ^= USBUART_EPX_CNT_DATA_TOGGLE;
 398:Generated_Source\PSoC5/USBUART_episr.c ****             }
 399:Generated_Source\PSoC5/USBUART_episr.c **** 
 400:Generated_Source\PSoC5/USBUART_episr.c ****             /* EP_MANAGEMENT_DMA_AUTO (Ticket ID# 214187): For OUT endpoint this event is used to n
 401:Generated_Source\PSoC5/USBUART_episr.c ****             * user that DMA has completed copying data from OUT endpoint which is not completely tr
 402:Generated_Source\PSoC5/USBUART_episr.c ****             * Because last chunk of data is being copied.
 403:Generated_Source\PSoC5/USBUART_episr.c ****             * For CY_PSOC 3/5LP: it is acceptable as DMA is really fast.
 404:Generated_Source\PSoC5/USBUART_episr.c ****             * For CY_PSOC4: this event is set in Arbiter interrupt (source is DMA_TERMIN).
 405:Generated_Source\PSoC5/USBUART_episr.c ****             */
 406:Generated_Source\PSoC5/USBUART_episr.c ****             USBUART_EP[USBUART_EP5].apiEpState = USBUART_EVENT_PENDING;
 407:Generated_Source\PSoC5/USBUART_episr.c ****         }
 408:Generated_Source\PSoC5/USBUART_episr.c **** 
 409:Generated_Source\PSoC5/USBUART_episr.c ****     #if (!(CY_PSOC4 && USBUART_EP_MANAGEMENT_DMA_AUTO))        
 410:Generated_Source\PSoC5/USBUART_episr.c ****         #if (defined(USBUART_ENABLE_MIDI_STREAMING) && \
 411:Generated_Source\PSoC5/USBUART_episr.c ****             !defined(USBUART_MAIN_SERVICE_MIDI_OUT) && USBUART_ISR_SERVICE_MIDI_OUT)
 412:Generated_Source\PSoC5/USBUART_episr.c ****             if (USBUART_midi_out_ep == USBUART_EP5)
 413:Generated_Source\PSoC5/USBUART_episr.c ****             {
 414:Generated_Source\PSoC5/USBUART_episr.c ****                 USBUART_MIDI_OUT_Service();
 415:Generated_Source\PSoC5/USBUART_episr.c ****             }
 416:Generated_Source\PSoC5/USBUART_episr.c ****         #endif /* (USBUART_ISR_SERVICE_MIDI_OUT) */
 417:Generated_Source\PSoC5/USBUART_episr.c ****     #endif /* (!(CY_PSOC4 && USBUART_EP_MANAGEMENT_DMA_AUTO)) */
 418:Generated_Source\PSoC5/USBUART_episr.c **** 
ARM GAS  C:\Users\Keshuai\AppData\Local\Temp\ccOGDZDR.s 			page 11


 419:Generated_Source\PSoC5/USBUART_episr.c ****         /* `#START EP5_END_USER_CODE` Place your code here */
 420:Generated_Source\PSoC5/USBUART_episr.c **** 
 421:Generated_Source\PSoC5/USBUART_episr.c ****         /* `#END` */
 422:Generated_Source\PSoC5/USBUART_episr.c **** 
 423:Generated_Source\PSoC5/USBUART_episr.c ****     #ifdef USBUART_EP_5_ISR_EXIT_CALLBACK
 424:Generated_Source\PSoC5/USBUART_episr.c ****         USBUART_EP_5_ISR_ExitCallback();
 425:Generated_Source\PSoC5/USBUART_episr.c ****     #endif /* (USBUART_EP_5_ISR_EXIT_CALLBACK) */
 426:Generated_Source\PSoC5/USBUART_episr.c **** 
 427:Generated_Source\PSoC5/USBUART_episr.c ****     #if (CY_PSOC3 && defined(USBUART_ENABLE_MIDI_STREAMING) && \
 428:Generated_Source\PSoC5/USBUART_episr.c ****         !defined(USBUART_MAIN_SERVICE_MIDI_OUT) && USBUART_ISR_SERVICE_MIDI_OUT)
 429:Generated_Source\PSoC5/USBUART_episr.c ****         
 430:Generated_Source\PSoC5/USBUART_episr.c ****             EA = intEn; /* Restore nested interrupt configuration. */
 431:Generated_Source\PSoC5/USBUART_episr.c ****         }
 432:Generated_Source\PSoC5/USBUART_episr.c ****     #endif /* (CY_PSOC3 && USBUART_ISR_SERVICE_MIDI_OUT) */
 433:Generated_Source\PSoC5/USBUART_episr.c ****     }
 434:Generated_Source\PSoC5/USBUART_episr.c **** #endif /* (USBUART_EP5_ISR_ACTIVE) */
 435:Generated_Source\PSoC5/USBUART_episr.c **** 
 436:Generated_Source\PSoC5/USBUART_episr.c **** 
 437:Generated_Source\PSoC5/USBUART_episr.c **** #if (USBUART_EP6_ISR_ACTIVE)
 438:Generated_Source\PSoC5/USBUART_episr.c ****     /*******************************************************************************
 439:Generated_Source\PSoC5/USBUART_episr.c ****     * Function Name: USBUART_EP_6_ISR
 440:Generated_Source\PSoC5/USBUART_episr.c ****     ****************************************************************************//**
 441:Generated_Source\PSoC5/USBUART_episr.c ****     *
 442:Generated_Source\PSoC5/USBUART_episr.c ****     *  Endpoint 6 Interrupt Service Routine.
 443:Generated_Source\PSoC5/USBUART_episr.c ****     *
 444:Generated_Source\PSoC5/USBUART_episr.c ****     *
 445:Generated_Source\PSoC5/USBUART_episr.c ****     *******************************************************************************/
 446:Generated_Source\PSoC5/USBUART_episr.c ****     CY_ISR(USBUART_EP_6_ISR)
 447:Generated_Source\PSoC5/USBUART_episr.c ****     {
 448:Generated_Source\PSoC5/USBUART_episr.c ****     #ifdef USBUART_EP_6_ISR_ENTRY_CALLBACK
 449:Generated_Source\PSoC5/USBUART_episr.c ****         USBUART_EP_6_ISR_EntryCallback();
 450:Generated_Source\PSoC5/USBUART_episr.c ****     #endif /* (USBUART_EP_6_ISR_ENTRY_CALLBACK) */
 451:Generated_Source\PSoC5/USBUART_episr.c **** 
 452:Generated_Source\PSoC5/USBUART_episr.c ****         /* `#START EP6_USER_CODE` Place your code here */
 453:Generated_Source\PSoC5/USBUART_episr.c **** 
 454:Generated_Source\PSoC5/USBUART_episr.c ****         /* `#END` */
 455:Generated_Source\PSoC5/USBUART_episr.c **** 
 456:Generated_Source\PSoC5/USBUART_episr.c ****     #if (CY_PSOC3 && defined(USBUART_ENABLE_MIDI_STREAMING) && \
 457:Generated_Source\PSoC5/USBUART_episr.c ****         !defined(USBUART_MAIN_SERVICE_MIDI_OUT) && USBUART_ISR_SERVICE_MIDI_OUT)
 458:Generated_Source\PSoC5/USBUART_episr.c ****         {
 459:Generated_Source\PSoC5/USBUART_episr.c ****             uint8 intEn = EA;
 460:Generated_Source\PSoC5/USBUART_episr.c ****             CyGlobalIntEnable;  /* Enable nested interrupts. */
 461:Generated_Source\PSoC5/USBUART_episr.c ****     #endif /* (CY_PSOC3 && USBUART_ISR_SERVICE_MIDI_OUT) */
 462:Generated_Source\PSoC5/USBUART_episr.c **** 
 463:Generated_Source\PSoC5/USBUART_episr.c ****         USBUART_ClearSieEpInterruptSource(USBUART_SIE_INT_EP6_INTR);
 464:Generated_Source\PSoC5/USBUART_episr.c ****         
 465:Generated_Source\PSoC5/USBUART_episr.c ****         /* Notifies user that transfer IN or OUT transfer is completed.
 466:Generated_Source\PSoC5/USBUART_episr.c ****         * IN endpoint: endpoint buffer can be reloaded, Host is read data.
 467:Generated_Source\PSoC5/USBUART_episr.c ****         * OUT endpoint: data is ready to read from endpoint buffer. 
 468:Generated_Source\PSoC5/USBUART_episr.c ****         */
 469:Generated_Source\PSoC5/USBUART_episr.c ****     #if (CY_PSOC4 && USBUART_EP_MANAGEMENT_DMA_AUTO)
 470:Generated_Source\PSoC5/USBUART_episr.c ****         if (0u != (USBUART_EP[USBUART_EP6].addr & USBUART_DIR_IN))
 471:Generated_Source\PSoC5/USBUART_episr.c ****     #endif /* (USBUART_EP_MANAGEMENT_DMA_AUTO) */
 472:Generated_Source\PSoC5/USBUART_episr.c ****         {
 473:Generated_Source\PSoC5/USBUART_episr.c ****             /* Read CR0 register to clear SIE lock. */
 474:Generated_Source\PSoC5/USBUART_episr.c ****             (void) USBUART_SIE_EP_BASE.sieEp[USBUART_EP6].epCr0;
 475:Generated_Source\PSoC5/USBUART_episr.c **** 
ARM GAS  C:\Users\Keshuai\AppData\Local\Temp\ccOGDZDR.s 			page 12


 476:Generated_Source\PSoC5/USBUART_episr.c ****             /* Toggle all endpoint types except ISOC. */
 477:Generated_Source\PSoC5/USBUART_episr.c ****             if (USBUART_GET_EP_TYPE(USBUART_EP6) != USBUART_EP_TYPE_ISOC)
 478:Generated_Source\PSoC5/USBUART_episr.c ****             {
 479:Generated_Source\PSoC5/USBUART_episr.c ****                 USBUART_EP[USBUART_EP6].epToggle ^= USBUART_EPX_CNT_DATA_TOGGLE;
 480:Generated_Source\PSoC5/USBUART_episr.c ****             }
 481:Generated_Source\PSoC5/USBUART_episr.c ****             
 482:Generated_Source\PSoC5/USBUART_episr.c ****             /* EP_MANAGEMENT_DMA_AUTO (Ticket ID# 214187): For OUT endpoint this event is used to n
 483:Generated_Source\PSoC5/USBUART_episr.c ****             * user that DMA has completed copying data from OUT endpoint which is not completely tr
 484:Generated_Source\PSoC5/USBUART_episr.c ****             * Because last chunk of data is being copied.
 485:Generated_Source\PSoC5/USBUART_episr.c ****             * For CY_PSOC 3/5LP: it is acceptable as DMA is really fast.
 486:Generated_Source\PSoC5/USBUART_episr.c ****             * For CY_PSOC4: this event is set in Arbiter interrupt (source is DMA_TERMIN).
 487:Generated_Source\PSoC5/USBUART_episr.c ****             */
 488:Generated_Source\PSoC5/USBUART_episr.c ****             USBUART_EP[USBUART_EP6].apiEpState = USBUART_EVENT_PENDING;
 489:Generated_Source\PSoC5/USBUART_episr.c ****         }
 490:Generated_Source\PSoC5/USBUART_episr.c **** 
 491:Generated_Source\PSoC5/USBUART_episr.c ****     #if (!(CY_PSOC4 && USBUART_EP_MANAGEMENT_DMA_AUTO))
 492:Generated_Source\PSoC5/USBUART_episr.c ****         #if (defined(USBUART_ENABLE_MIDI_STREAMING) && \
 493:Generated_Source\PSoC5/USBUART_episr.c ****             !defined(USBUART_MAIN_SERVICE_MIDI_OUT) && USBUART_ISR_SERVICE_MIDI_OUT)
 494:Generated_Source\PSoC5/USBUART_episr.c ****             if (USBUART_midi_out_ep == USBUART_EP6)
 495:Generated_Source\PSoC5/USBUART_episr.c ****             {
 496:Generated_Source\PSoC5/USBUART_episr.c ****                 USBUART_MIDI_OUT_Service();
 497:Generated_Source\PSoC5/USBUART_episr.c ****             }
 498:Generated_Source\PSoC5/USBUART_episr.c ****         #endif /* (USBUART_ISR_SERVICE_MIDI_OUT) */
 499:Generated_Source\PSoC5/USBUART_episr.c ****     #endif /* (!(CY_PSOC4 && USBUART_EP_MANAGEMENT_DMA_AUTO)) */
 500:Generated_Source\PSoC5/USBUART_episr.c **** 
 501:Generated_Source\PSoC5/USBUART_episr.c ****         /* `#START EP6_END_USER_CODE` Place your code here */
 502:Generated_Source\PSoC5/USBUART_episr.c **** 
 503:Generated_Source\PSoC5/USBUART_episr.c ****         /* `#END` */
 504:Generated_Source\PSoC5/USBUART_episr.c **** 
 505:Generated_Source\PSoC5/USBUART_episr.c ****     #ifdef USBUART_EP_6_ISR_EXIT_CALLBACK
 506:Generated_Source\PSoC5/USBUART_episr.c ****         USBUART_EP_6_ISR_ExitCallback();
 507:Generated_Source\PSoC5/USBUART_episr.c ****     #endif /* (USBUART_EP_6_ISR_EXIT_CALLBACK) */
 508:Generated_Source\PSoC5/USBUART_episr.c **** 
 509:Generated_Source\PSoC5/USBUART_episr.c ****     #if (CY_PSOC3 && defined(USBUART_ENABLE_MIDI_STREAMING) && \
 510:Generated_Source\PSoC5/USBUART_episr.c ****         !defined(USBUART_MAIN_SERVICE_MIDI_OUT) && USBUART_ISR_SERVICE_MIDI_OUT)
 511:Generated_Source\PSoC5/USBUART_episr.c ****         
 512:Generated_Source\PSoC5/USBUART_episr.c ****             EA = intEn; /* Restore nested interrupt configuration. */
 513:Generated_Source\PSoC5/USBUART_episr.c ****         }
 514:Generated_Source\PSoC5/USBUART_episr.c ****     #endif /* (CY_PSOC3 && USBUART_ISR_SERVICE_MIDI_OUT) */
 515:Generated_Source\PSoC5/USBUART_episr.c ****     }
 516:Generated_Source\PSoC5/USBUART_episr.c **** #endif /* (USBUART_EP6_ISR_ACTIVE) */
 517:Generated_Source\PSoC5/USBUART_episr.c **** 
 518:Generated_Source\PSoC5/USBUART_episr.c **** 
 519:Generated_Source\PSoC5/USBUART_episr.c **** #if (USBUART_EP7_ISR_ACTIVE)
 520:Generated_Source\PSoC5/USBUART_episr.c ****     /*******************************************************************************
 521:Generated_Source\PSoC5/USBUART_episr.c ****     * Function Name: USBUART_EP_7_ISR
 522:Generated_Source\PSoC5/USBUART_episr.c ****     ****************************************************************************//**
 523:Generated_Source\PSoC5/USBUART_episr.c ****     *
 524:Generated_Source\PSoC5/USBUART_episr.c ****     *  Endpoint 7 Interrupt Service Routine.
 525:Generated_Source\PSoC5/USBUART_episr.c ****     *
 526:Generated_Source\PSoC5/USBUART_episr.c ****     *
 527:Generated_Source\PSoC5/USBUART_episr.c ****     *******************************************************************************/
 528:Generated_Source\PSoC5/USBUART_episr.c ****     CY_ISR(USBUART_EP_7_ISR)
 529:Generated_Source\PSoC5/USBUART_episr.c ****     {
 530:Generated_Source\PSoC5/USBUART_episr.c ****     #ifdef USBUART_EP_7_ISR_ENTRY_CALLBACK
 531:Generated_Source\PSoC5/USBUART_episr.c ****         USBUART_EP_7_ISR_EntryCallback();
 532:Generated_Source\PSoC5/USBUART_episr.c ****     #endif /* (USBUART_EP_7_ISR_ENTRY_CALLBACK) */
ARM GAS  C:\Users\Keshuai\AppData\Local\Temp\ccOGDZDR.s 			page 13


 533:Generated_Source\PSoC5/USBUART_episr.c **** 
 534:Generated_Source\PSoC5/USBUART_episr.c ****         /* `#START EP7_USER_CODE` Place your code here */
 535:Generated_Source\PSoC5/USBUART_episr.c **** 
 536:Generated_Source\PSoC5/USBUART_episr.c ****         /* `#END` */
 537:Generated_Source\PSoC5/USBUART_episr.c **** 
 538:Generated_Source\PSoC5/USBUART_episr.c ****     #if (CY_PSOC3 && defined(USBUART_ENABLE_MIDI_STREAMING) && \
 539:Generated_Source\PSoC5/USBUART_episr.c ****         !defined(USBUART_MAIN_SERVICE_MIDI_OUT) && USBUART_ISR_SERVICE_MIDI_OUT)
 540:Generated_Source\PSoC5/USBUART_episr.c ****         {
 541:Generated_Source\PSoC5/USBUART_episr.c ****             uint8 intEn = EA;
 542:Generated_Source\PSoC5/USBUART_episr.c ****             CyGlobalIntEnable;  /* Enable nested interrupts. */
 543:Generated_Source\PSoC5/USBUART_episr.c ****     #endif /* (CY_PSOC3 && USBUART_ISR_SERVICE_MIDI_OUT) */
 544:Generated_Source\PSoC5/USBUART_episr.c ****     
 545:Generated_Source\PSoC5/USBUART_episr.c ****         USBUART_ClearSieEpInterruptSource(USBUART_SIE_INT_EP7_INTR);
 546:Generated_Source\PSoC5/USBUART_episr.c ****         
 547:Generated_Source\PSoC5/USBUART_episr.c ****         /* Notifies user that transfer IN or OUT transfer is completed.
 548:Generated_Source\PSoC5/USBUART_episr.c ****         * IN endpoint: endpoint buffer can be reloaded, Host is read data.
 549:Generated_Source\PSoC5/USBUART_episr.c ****         * OUT endpoint: data is ready to read from endpoint buffer. 
 550:Generated_Source\PSoC5/USBUART_episr.c ****         */
 551:Generated_Source\PSoC5/USBUART_episr.c ****     #if (CY_PSOC4 && USBUART_EP_MANAGEMENT_DMA_AUTO)
 552:Generated_Source\PSoC5/USBUART_episr.c ****         if (0u != (USBUART_EP[USBUART_EP7].addr & USBUART_DIR_IN))
 553:Generated_Source\PSoC5/USBUART_episr.c ****     #endif /* (USBUART_EP_MANAGEMENT_DMA_AUTO) */
 554:Generated_Source\PSoC5/USBUART_episr.c ****         {           
 555:Generated_Source\PSoC5/USBUART_episr.c ****             /* Read CR0 register to clear SIE lock. */
 556:Generated_Source\PSoC5/USBUART_episr.c ****             (void) USBUART_SIE_EP_BASE.sieEp[USBUART_EP7].epCr0;
 557:Generated_Source\PSoC5/USBUART_episr.c **** 
 558:Generated_Source\PSoC5/USBUART_episr.c ****             /* Toggle all endpoint types except ISOC. */
 559:Generated_Source\PSoC5/USBUART_episr.c ****             if (USBUART_GET_EP_TYPE(USBUART_EP7) != USBUART_EP_TYPE_ISOC)
 560:Generated_Source\PSoC5/USBUART_episr.c ****             {
 561:Generated_Source\PSoC5/USBUART_episr.c ****                 USBUART_EP[USBUART_EP7].epToggle ^= USBUART_EPX_CNT_DATA_TOGGLE;
 562:Generated_Source\PSoC5/USBUART_episr.c ****             }
 563:Generated_Source\PSoC5/USBUART_episr.c ****             
 564:Generated_Source\PSoC5/USBUART_episr.c ****             /* EP_MANAGEMENT_DMA_AUTO (Ticket ID# 214187): For OUT endpoint this event is used to n
 565:Generated_Source\PSoC5/USBUART_episr.c ****             * user that DMA has completed copying data from OUT endpoint which is not completely tr
 566:Generated_Source\PSoC5/USBUART_episr.c ****             * Because last chunk of data is being copied.
 567:Generated_Source\PSoC5/USBUART_episr.c ****             * For CY_PSOC 3/5LP: it is acceptable as DMA is really fast.
 568:Generated_Source\PSoC5/USBUART_episr.c ****             * For CY_PSOC4: this event is set in Arbiter interrupt (source is DMA_TERMIN).
 569:Generated_Source\PSoC5/USBUART_episr.c ****             */
 570:Generated_Source\PSoC5/USBUART_episr.c ****             USBUART_EP[USBUART_EP7].apiEpState = USBUART_EVENT_PENDING;
 571:Generated_Source\PSoC5/USBUART_episr.c ****         }
 572:Generated_Source\PSoC5/USBUART_episr.c **** 
 573:Generated_Source\PSoC5/USBUART_episr.c **** 
 574:Generated_Source\PSoC5/USBUART_episr.c ****     #if (!(CY_PSOC4 && USBUART_EP_MANAGEMENT_DMA_AUTO))
 575:Generated_Source\PSoC5/USBUART_episr.c ****         #if (defined(USBUART_ENABLE_MIDI_STREAMING) && \
 576:Generated_Source\PSoC5/USBUART_episr.c ****             !defined(USBUART_MAIN_SERVICE_MIDI_OUT) && USBUART_ISR_SERVICE_MIDI_OUT)
 577:Generated_Source\PSoC5/USBUART_episr.c ****             if(USBUART_midi_out_ep == USBUART_EP7)
 578:Generated_Source\PSoC5/USBUART_episr.c ****             {
 579:Generated_Source\PSoC5/USBUART_episr.c ****                 USBUART_MIDI_OUT_Service();
 580:Generated_Source\PSoC5/USBUART_episr.c ****             }
 581:Generated_Source\PSoC5/USBUART_episr.c ****         #endif /* (USBUART_ISR_SERVICE_MIDI_OUT) */
 582:Generated_Source\PSoC5/USBUART_episr.c ****     #endif /* (!(CY_PSOC4 && USBUART_EP_MANAGEMENT_DMA_AUTO)) */
 583:Generated_Source\PSoC5/USBUART_episr.c **** 
 584:Generated_Source\PSoC5/USBUART_episr.c ****         /* `#START EP7_END_USER_CODE` Place your code here */
 585:Generated_Source\PSoC5/USBUART_episr.c **** 
 586:Generated_Source\PSoC5/USBUART_episr.c ****         /* `#END` */
 587:Generated_Source\PSoC5/USBUART_episr.c **** 
 588:Generated_Source\PSoC5/USBUART_episr.c ****     #ifdef USBUART_EP_7_ISR_EXIT_CALLBACK
 589:Generated_Source\PSoC5/USBUART_episr.c ****         USBUART_EP_7_ISR_ExitCallback();
ARM GAS  C:\Users\Keshuai\AppData\Local\Temp\ccOGDZDR.s 			page 14


 590:Generated_Source\PSoC5/USBUART_episr.c ****     #endif /* (USBUART_EP_7_ISR_EXIT_CALLBACK) */
 591:Generated_Source\PSoC5/USBUART_episr.c **** 
 592:Generated_Source\PSoC5/USBUART_episr.c ****     #if (CY_PSOC3 && defined(USBUART_ENABLE_MIDI_STREAMING) && \
 593:Generated_Source\PSoC5/USBUART_episr.c ****         !defined(USBUART_MAIN_SERVICE_MIDI_OUT) && USBUART_ISR_SERVICE_MIDI_OUT)
 594:Generated_Source\PSoC5/USBUART_episr.c ****         
 595:Generated_Source\PSoC5/USBUART_episr.c ****             EA = intEn; /* Restore nested interrupt configuration. */
 596:Generated_Source\PSoC5/USBUART_episr.c ****         }
 597:Generated_Source\PSoC5/USBUART_episr.c ****     #endif /* (CY_PSOC3 && USBUART_ISR_SERVICE_MIDI_OUT) */
 598:Generated_Source\PSoC5/USBUART_episr.c ****     }
 599:Generated_Source\PSoC5/USBUART_episr.c **** #endif /* (USBUART_EP7_ISR_ACTIVE) */
 600:Generated_Source\PSoC5/USBUART_episr.c **** 
 601:Generated_Source\PSoC5/USBUART_episr.c **** 
 602:Generated_Source\PSoC5/USBUART_episr.c **** #if (USBUART_EP8_ISR_ACTIVE)
 603:Generated_Source\PSoC5/USBUART_episr.c ****     /*******************************************************************************
 604:Generated_Source\PSoC5/USBUART_episr.c ****     * Function Name: USBUART_EP_8_ISR
 605:Generated_Source\PSoC5/USBUART_episr.c ****     ****************************************************************************//**
 606:Generated_Source\PSoC5/USBUART_episr.c ****     *
 607:Generated_Source\PSoC5/USBUART_episr.c ****     *  Endpoint 8 Interrupt Service Routine
 608:Generated_Source\PSoC5/USBUART_episr.c ****     *
 609:Generated_Source\PSoC5/USBUART_episr.c ****     *
 610:Generated_Source\PSoC5/USBUART_episr.c ****     *******************************************************************************/
 611:Generated_Source\PSoC5/USBUART_episr.c ****     CY_ISR(USBUART_EP_8_ISR)
 612:Generated_Source\PSoC5/USBUART_episr.c ****     {
 613:Generated_Source\PSoC5/USBUART_episr.c ****     #ifdef USBUART_EP_8_ISR_ENTRY_CALLBACK
 614:Generated_Source\PSoC5/USBUART_episr.c ****         USBUART_EP_8_ISR_EntryCallback();
 615:Generated_Source\PSoC5/USBUART_episr.c ****     #endif /* (USBUART_EP_8_ISR_ENTRY_CALLBACK) */
 616:Generated_Source\PSoC5/USBUART_episr.c **** 
 617:Generated_Source\PSoC5/USBUART_episr.c ****         /* `#START EP8_USER_CODE` Place your code here */
 618:Generated_Source\PSoC5/USBUART_episr.c **** 
 619:Generated_Source\PSoC5/USBUART_episr.c ****         /* `#END` */
 620:Generated_Source\PSoC5/USBUART_episr.c **** 
 621:Generated_Source\PSoC5/USBUART_episr.c ****     #if (CY_PSOC3 && defined(USBUART_ENABLE_MIDI_STREAMING) && \
 622:Generated_Source\PSoC5/USBUART_episr.c ****         !defined(USBUART_MAIN_SERVICE_MIDI_OUT) && USBUART_ISR_SERVICE_MIDI_OUT)
 623:Generated_Source\PSoC5/USBUART_episr.c ****         {
 624:Generated_Source\PSoC5/USBUART_episr.c ****             uint8 intEn = EA;
 625:Generated_Source\PSoC5/USBUART_episr.c ****             CyGlobalIntEnable;  /* Enable nested interrupts. */
 626:Generated_Source\PSoC5/USBUART_episr.c ****     #endif /* (CY_PSOC3 && USBUART_ISR_SERVICE_MIDI_OUT) */
 627:Generated_Source\PSoC5/USBUART_episr.c **** 
 628:Generated_Source\PSoC5/USBUART_episr.c ****         USBUART_ClearSieEpInterruptSource(USBUART_SIE_INT_EP8_INTR);
 629:Generated_Source\PSoC5/USBUART_episr.c ****         
 630:Generated_Source\PSoC5/USBUART_episr.c ****         /* Notifies user that transfer IN or OUT transfer is completed.
 631:Generated_Source\PSoC5/USBUART_episr.c ****         * IN endpoint: endpoint buffer can be reloaded, Host is read data.
 632:Generated_Source\PSoC5/USBUART_episr.c ****         * OUT endpoint: data is ready to read from endpoint buffer. 
 633:Generated_Source\PSoC5/USBUART_episr.c ****         */
 634:Generated_Source\PSoC5/USBUART_episr.c ****     #if (CY_PSOC4 && USBUART_EP_MANAGEMENT_DMA_AUTO)
 635:Generated_Source\PSoC5/USBUART_episr.c ****         if (0u != (USBUART_EP[USBUART_EP8].addr & USBUART_DIR_IN))
 636:Generated_Source\PSoC5/USBUART_episr.c ****     #endif /* (USBUART_EP_MANAGEMENT_DMA_AUTO) */
 637:Generated_Source\PSoC5/USBUART_episr.c ****         {
 638:Generated_Source\PSoC5/USBUART_episr.c ****             /* Read CR0 register to clear SIE lock. */
 639:Generated_Source\PSoC5/USBUART_episr.c ****             (void) USBUART_SIE_EP_BASE.sieEp[USBUART_EP8].epCr0;
 640:Generated_Source\PSoC5/USBUART_episr.c **** 
 641:Generated_Source\PSoC5/USBUART_episr.c ****             /* Toggle all endpoint types except ISOC. */
 642:Generated_Source\PSoC5/USBUART_episr.c ****             if (USBUART_GET_EP_TYPE(USBUART_EP8) != USBUART_EP_TYPE_ISOC)
 643:Generated_Source\PSoC5/USBUART_episr.c ****             {
 644:Generated_Source\PSoC5/USBUART_episr.c ****                 USBUART_EP[USBUART_EP8].epToggle ^= USBUART_EPX_CNT_DATA_TOGGLE;
 645:Generated_Source\PSoC5/USBUART_episr.c ****             }
 646:Generated_Source\PSoC5/USBUART_episr.c **** 
ARM GAS  C:\Users\Keshuai\AppData\Local\Temp\ccOGDZDR.s 			page 15


 647:Generated_Source\PSoC5/USBUART_episr.c ****             /* EP_MANAGEMENT_DMA_AUTO (Ticket ID# 214187): For OUT endpoint this event is used to n
 648:Generated_Source\PSoC5/USBUART_episr.c ****             * user that DMA has completed copying data from OUT endpoint which is not completely tr
 649:Generated_Source\PSoC5/USBUART_episr.c ****             * Because last chunk of data is being copied.
 650:Generated_Source\PSoC5/USBUART_episr.c ****             * For CY_PSOC 3/5LP: it is acceptable as DMA is really fast.
 651:Generated_Source\PSoC5/USBUART_episr.c ****             * For CY_PSOC4: this event is set in Arbiter interrupt (source is DMA_TERMIN).
 652:Generated_Source\PSoC5/USBUART_episr.c ****             */
 653:Generated_Source\PSoC5/USBUART_episr.c ****             USBUART_EP[USBUART_EP8].apiEpState = USBUART_EVENT_PENDING;
 654:Generated_Source\PSoC5/USBUART_episr.c ****         }
 655:Generated_Source\PSoC5/USBUART_episr.c **** 
 656:Generated_Source\PSoC5/USBUART_episr.c ****     #if (!(CY_PSOC4 && USBUART_EP_MANAGEMENT_DMA_AUTO))
 657:Generated_Source\PSoC5/USBUART_episr.c ****         #if (defined(USBUART_ENABLE_MIDI_STREAMING) && \
 658:Generated_Source\PSoC5/USBUART_episr.c ****             !defined(USBUART_MAIN_SERVICE_MIDI_OUT) && USBUART_ISR_SERVICE_MIDI_OUT)
 659:Generated_Source\PSoC5/USBUART_episr.c ****             if (USBUART_midi_out_ep == USBUART_EP8)
 660:Generated_Source\PSoC5/USBUART_episr.c ****             {
 661:Generated_Source\PSoC5/USBUART_episr.c ****                 USBUART_MIDI_OUT_Service();
 662:Generated_Source\PSoC5/USBUART_episr.c ****             }
 663:Generated_Source\PSoC5/USBUART_episr.c ****         #endif /* (USBUART_ISR_SERVICE_MIDI_OUT) */
 664:Generated_Source\PSoC5/USBUART_episr.c ****     #endif /* (!(CY_PSOC4 && USBUART_EP_MANAGEMENT_DMA_AUTO)) */
 665:Generated_Source\PSoC5/USBUART_episr.c **** 
 666:Generated_Source\PSoC5/USBUART_episr.c ****         /* `#START EP8_END_USER_CODE` Place your code here */
 667:Generated_Source\PSoC5/USBUART_episr.c **** 
 668:Generated_Source\PSoC5/USBUART_episr.c ****         /* `#END` */
 669:Generated_Source\PSoC5/USBUART_episr.c **** 
 670:Generated_Source\PSoC5/USBUART_episr.c ****     #ifdef USBUART_EP_8_ISR_EXIT_CALLBACK
 671:Generated_Source\PSoC5/USBUART_episr.c ****         USBUART_EP_8_ISR_ExitCallback();
 672:Generated_Source\PSoC5/USBUART_episr.c ****     #endif /* (USBUART_EP_8_ISR_EXIT_CALLBACK) */
 673:Generated_Source\PSoC5/USBUART_episr.c **** 
 674:Generated_Source\PSoC5/USBUART_episr.c ****     #if (CY_PSOC3 && defined(USBUART_ENABLE_MIDI_STREAMING) && \
 675:Generated_Source\PSoC5/USBUART_episr.c ****         !defined(USBUART_MAIN_SERVICE_MIDI_OUT) && USBUART_ISR_SERVICE_MIDI_OUT)
 676:Generated_Source\PSoC5/USBUART_episr.c ****         
 677:Generated_Source\PSoC5/USBUART_episr.c ****             EA = intEn; /* Restore nested interrupt configuration. */
 678:Generated_Source\PSoC5/USBUART_episr.c ****         }
 679:Generated_Source\PSoC5/USBUART_episr.c ****     #endif /* (CY_PSOC3 && USBUART_ISR_SERVICE_MIDI_OUT) */
 680:Generated_Source\PSoC5/USBUART_episr.c ****     }
 681:Generated_Source\PSoC5/USBUART_episr.c **** #endif /* (USBUART_EP8_ISR_ACTIVE) */
 682:Generated_Source\PSoC5/USBUART_episr.c **** 
 683:Generated_Source\PSoC5/USBUART_episr.c **** 
 684:Generated_Source\PSoC5/USBUART_episr.c **** #if (USBUART_SOF_ISR_ACTIVE)
 685:Generated_Source\PSoC5/USBUART_episr.c ****     /*******************************************************************************
 686:Generated_Source\PSoC5/USBUART_episr.c ****     * Function Name: USBUART_SOF_ISR
 687:Generated_Source\PSoC5/USBUART_episr.c ****     ****************************************************************************//**
 688:Generated_Source\PSoC5/USBUART_episr.c ****     *
 689:Generated_Source\PSoC5/USBUART_episr.c ****     *  Start of Frame Interrupt Service Routine.
 690:Generated_Source\PSoC5/USBUART_episr.c ****     *
 691:Generated_Source\PSoC5/USBUART_episr.c ****     *
 692:Generated_Source\PSoC5/USBUART_episr.c ****     *******************************************************************************/
 693:Generated_Source\PSoC5/USBUART_episr.c ****     CY_ISR(USBUART_SOF_ISR)
 694:Generated_Source\PSoC5/USBUART_episr.c ****     {
 153              		.loc 1 694 0
 154              		.cfi_startproc
 155              		@ args = 0, pretend = 0, frame = 0
 156              		@ frame_needed = 1, uses_anonymous_args = 0
 157              		@ link register save eliminated.
 158 0000 80B4     		push	{r7}
 159              		.cfi_def_cfa_offset 4
 160              		.cfi_offset 7, -4
 161 0002 00AF     		add	r7, sp, #0
ARM GAS  C:\Users\Keshuai\AppData\Local\Temp\ccOGDZDR.s 			page 16


 162              		.cfi_def_cfa_register 7
 695:Generated_Source\PSoC5/USBUART_episr.c ****     #ifdef USBUART_SOF_ISR_ENTRY_CALLBACK
 696:Generated_Source\PSoC5/USBUART_episr.c ****         USBUART_SOF_ISR_EntryCallback();
 697:Generated_Source\PSoC5/USBUART_episr.c ****     #endif /* (USBUART_SOF_ISR_ENTRY_CALLBACK) */
 698:Generated_Source\PSoC5/USBUART_episr.c **** 
 699:Generated_Source\PSoC5/USBUART_episr.c ****         /* `#START SOF_USER_CODE` Place your code here */
 700:Generated_Source\PSoC5/USBUART_episr.c **** 
 701:Generated_Source\PSoC5/USBUART_episr.c ****         /* `#END` */
 702:Generated_Source\PSoC5/USBUART_episr.c **** 
 703:Generated_Source\PSoC5/USBUART_episr.c ****         USBUART_ClearSieInterruptSource(USBUART_INTR_SIE_SOF_INTR);
 704:Generated_Source\PSoC5/USBUART_episr.c **** 
 705:Generated_Source\PSoC5/USBUART_episr.c ****     #ifdef USBUART_SOF_ISR_EXIT_CALLBACK
 706:Generated_Source\PSoC5/USBUART_episr.c ****         USBUART_SOF_ISR_ExitCallback();
 707:Generated_Source\PSoC5/USBUART_episr.c ****     #endif /* (USBUART_SOF_ISR_EXIT_CALLBACK) */
 708:Generated_Source\PSoC5/USBUART_episr.c ****     }
 163              		.loc 1 708 0
 164 0004 BD46     		mov	sp, r7
 165              		.cfi_def_cfa_register 13
 166              		@ sp needed
 167 0006 5DF8047B 		ldr	r7, [sp], #4
 168              		.cfi_restore 7
 169              		.cfi_def_cfa_offset 0
 170 000a 7047     		bx	lr
 171              		.cfi_endproc
 172              	.LFE2:
 173              		.size	USBUART_SOF_ISR, .-USBUART_SOF_ISR
 174              		.section	.text.USBUART_BUS_RESET_ISR,"ax",%progbits
 175              		.align	2
 176              		.global	USBUART_BUS_RESET_ISR
 177              		.thumb
 178              		.thumb_func
 179              		.type	USBUART_BUS_RESET_ISR, %function
 180              	USBUART_BUS_RESET_ISR:
 181              	.LFB3:
 709:Generated_Source\PSoC5/USBUART_episr.c **** #endif /* (USBUART_SOF_ISR_ACTIVE) */
 710:Generated_Source\PSoC5/USBUART_episr.c **** 
 711:Generated_Source\PSoC5/USBUART_episr.c **** 
 712:Generated_Source\PSoC5/USBUART_episr.c **** #if (USBUART_BUS_RESET_ISR_ACTIVE)
 713:Generated_Source\PSoC5/USBUART_episr.c **** /*******************************************************************************
 714:Generated_Source\PSoC5/USBUART_episr.c **** * Function Name: USBUART_BUS_RESET_ISR
 715:Generated_Source\PSoC5/USBUART_episr.c **** ****************************************************************************//**
 716:Generated_Source\PSoC5/USBUART_episr.c **** *
 717:Generated_Source\PSoC5/USBUART_episr.c **** *  USB Bus Reset Interrupt Service Routine.  Calls _Start with the same
 718:Generated_Source\PSoC5/USBUART_episr.c **** *  parameters as the last USER call to _Start
 719:Generated_Source\PSoC5/USBUART_episr.c **** *
 720:Generated_Source\PSoC5/USBUART_episr.c **** *
 721:Generated_Source\PSoC5/USBUART_episr.c **** *******************************************************************************/
 722:Generated_Source\PSoC5/USBUART_episr.c **** CY_ISR(USBUART_BUS_RESET_ISR)
 723:Generated_Source\PSoC5/USBUART_episr.c **** {
 182              		.loc 1 723 0
 183              		.cfi_startproc
 184              		@ args = 0, pretend = 0, frame = 0
 185              		@ frame_needed = 1, uses_anonymous_args = 0
 186 0000 80B5     		push	{r7, lr}
 187              		.cfi_def_cfa_offset 8
 188              		.cfi_offset 7, -8
 189              		.cfi_offset 14, -4
ARM GAS  C:\Users\Keshuai\AppData\Local\Temp\ccOGDZDR.s 			page 17


 190 0002 00AF     		add	r7, sp, #0
 191              		.cfi_def_cfa_register 7
 724:Generated_Source\PSoC5/USBUART_episr.c **** #ifdef USBUART_BUS_RESET_ISR_ENTRY_CALLBACK
 725:Generated_Source\PSoC5/USBUART_episr.c ****     USBUART_BUS_RESET_ISR_EntryCallback();
 726:Generated_Source\PSoC5/USBUART_episr.c **** #endif /* (USBUART_BUS_RESET_ISR_ENTRY_CALLBACK) */
 727:Generated_Source\PSoC5/USBUART_episr.c **** 
 728:Generated_Source\PSoC5/USBUART_episr.c ****     /* `#START BUS_RESET_USER_CODE` Place your code here */
 729:Generated_Source\PSoC5/USBUART_episr.c **** 
 730:Generated_Source\PSoC5/USBUART_episr.c ****     /* `#END` */
 731:Generated_Source\PSoC5/USBUART_episr.c **** 
 732:Generated_Source\PSoC5/USBUART_episr.c ****     USBUART_ClearSieInterruptSource(USBUART_INTR_SIE_BUS_RESET_INTR);
 733:Generated_Source\PSoC5/USBUART_episr.c **** 
 734:Generated_Source\PSoC5/USBUART_episr.c ****     USBUART_ReInitComponent();
 192              		.loc 1 734 0
 193 0004 FFF7FEFF 		bl	USBUART_ReInitComponent
 735:Generated_Source\PSoC5/USBUART_episr.c **** 
 736:Generated_Source\PSoC5/USBUART_episr.c **** #ifdef USBUART_BUS_RESET_ISR_EXIT_CALLBACK
 737:Generated_Source\PSoC5/USBUART_episr.c ****     USBUART_BUS_RESET_ISR_ExitCallback();
 738:Generated_Source\PSoC5/USBUART_episr.c **** #endif /* (USBUART_BUS_RESET_ISR_EXIT_CALLBACK) */
 739:Generated_Source\PSoC5/USBUART_episr.c **** }
 194              		.loc 1 739 0
 195 0008 80BD     		pop	{r7, pc}
 196              		.cfi_endproc
 197              	.LFE3:
 198              		.size	USBUART_BUS_RESET_ISR, .-USBUART_BUS_RESET_ISR
 199 000a 00BF     		.text
 200              	.Letext0:
 201              		.file 2 "Generated_Source\\PSoC5\\cytypes.h"
 202              		.file 3 "Generated_Source\\PSoC5\\USBUART.h"
 203              		.file 4 "Generated_Source\\PSoC5\\USBUART_pvt.h"